(lp0
((lp1
S'offensichtlich'
p2
aS'Offensichtlich'
p3
a(dp4
S'son '
p5
I1
sS'no '
p6
I1
sS'duh '
p7
I2
sS'clearly, '
p8
I3
sS'building '
p9
I1
sS'evidently '
p10
I9
sS'obviously '
p11
I278
sS'similar '
p12
I1
sS'seems '
p13
I1
sS'apparent '
p14
I2
sS'course '
p15
I3
sS'obously '
p16
I1
sS'predictable '
p17
I1
sS'clear '
p18
I1
sS'saved '
p19
I2
sS'obvious '
p20
I103
sS'few '
p21
I1
sS'significantly '
p22
I3
sS'economic '
p23
I1
sS'subtle '
p24
I1
sS'help '
p25
I1
sS'hide '
p26
I1
sS'thank '
p27
I1
sS'indeed '
p28
I1
sS'noticed '
p29
I1
sS'rude '
p30
I1
sS'lied, '
p31
I1
sS'aside '
p32
I1
sS'- '
p33
I1
sS'plain '
p34
I2
sS'deserved '
p35
I1
sS'********* '
p36
I1
sS'clearly '
p37
I67
sS'apparently, '
p38
I4
sS'apparently '
p39
I101
sS'certainly '
p40
I3
sS'changed '
p41
I1
sS'obviously, '
p42
I3
sS'obviousby '
p43
I1
sS'camper '
p44
I1
sS'cleary '
p45
I1
sS'stop '
p46
I1
sS'seem '
p47
I1
stp48
a((lp49
S'offenbar'
p50
aS'Offenbar'
p51
a(dp52
S'handle '
p53
I1
sS'ah '
p54
I1
sS'appears '
p55
I3
sS'looks '
p56
I2
sS'clearly '
p57
I9
sS'hurting '
p58
I2
sS'obvously '
p59
I1
sS'apparently '
p60
I84
sS'associating '
p61
I1
sS'obvious '
p62
I1
sS'purchases '
p63
I1
sS'presumably '
p64
I1
sS'boden '
p65
I1
sS'evidently '
p66
I10
sS'obviously '
p67
I51
sS'i '
p68
I1
sS'probably '
p69
I1
sS'seems '
p70
I8
sS'seem '
p71
I3
stp72
a((lp73
S'nat\xc3\xbcrlich'
p74
aS'Nat\xc3\xbcrlich'
p75
a(dp76
S'certain '
p77
I1
sS'below '
p78
I1
sS'am '
p79
I1
sS'no '
p80
I4
sS'would '
p81
I2
sS'ok '
p82
I2
sS'shh '
p83
I1
sS'rule '
p84
I2
sS'course '
p85
I2442
sS'did '
p86
I3
sS'clearly '
p87
I2
sS'really '
p88
I2
sS'absolutely '
p89
I22
sS'up '
p90
I1
sS'leonard '
p91
I1
sS'mother '
p92
I2
sS'classy '
p93
I1
sS'dead '
p94
I1
sS'natasha '
p95
I1
sS'natural '
p96
I66
sS'thank '
p97
I3
sS'certamente '
p98
I1
sS'everyone '
p99
I1
sS'surprises '
p100
I1
sS'fact '
p101
I1
sS'welcome '
p102
I1
sS'it '
p103
I7
sS'bigbro '
p104
I1
sS'funerals '
p105
I1
sS'we '
p106
I1
sS'except '
p107
I1
sS'tabi '
p108
I1
sS'ha '
p109
I1
sS'all '
p110
I2
sS'fine '
p111
I1
sS'schoen '
p112
I1
sS'french '
p113
I1
sS'bye '
p114
I1
sS'opened '
p115
I1
sS"'ll "
p116
I2
sS'course, '
p117
I24
sS'wine '
p118
I2
sS'popcorn '
p119
I1
sS'dangyeonhajl '
p120
I1
sS'or '
p121
I1
sS'simpler '
p122
I1
sS'nature '
p123
I1
sS'at '
p124
I1
sS'come '
p125
I1
sS'yes '
p126
I24
sS'crying '
p127
I1
sS'\\u00a1 '
p128
I1
sS'is '
p129
I1
sS'tho '
p130
I1
sS'she '
p131
I1
sS'cos '
p132
I1
sS'nervous '
p133
I1
sS'twitter '
p134
I1
sS'surely '
p135
I9
sS'tend '
p136
I1
sS'emily '
p137
I1
sS'considerate '
p138
I1
sS'must '
p139
I1
sS'black '
p140
I1
sS'seem '
p141
I1
sS'total '
p142
I1
sS'always '
p143
I1
sS'but '
p144
I3
sS'genuine '
p145
I1
sS'naturally '
p146
I37
sS'inform '
p147
I1
sS'mountain '
p148
I1
sS'worries '
p149
I1
sS'anchor '
p150
I1
sS'obviously '
p151
I22
sS'biclops '
p152
I1
sS'chuck '
p153
I1
sS'nah '
p154
I1
sS'73 '
p155
I1
sS'spitter '
p156
I1
sS'be '
p157
I2
sS'now '
p158
I2
sS'beeng '
p159
I1
sS'hey '
p160
I1
sS'sure '
p161
I112
sS'bribed '
p162
I1
sS'right '
p163
I20
sS'ofcourse '
p164
I3
sS'if '
p165
I1
sS'needless '
p166
I2
sS'meat '
p167
I1
sS'count '
p168
I1
sS'keep '
p169
I1
sS'you '
p170
I12
sS'kidding '
p171
I1
sS'ofourse '
p172
I1
sS'what '
p173
I2
sS'right- '
p174
I1
sS'theyre '
p175
I1
sS'means '
p176
I1
sS'okay '
p177
I3
sS'are '
p178
I3
sS'quick '
p179
I1
sS'sara '
p180
I1
sS'certainly '
p181
I28
sS'he '
p182
I1
sS'will '
p183
I2
sS'to '
p184
I1
sS'laughlng '
p185
I1
sS'marwan '
p186
I1
sS'convenient '
p187
I1
sS'positive '
p188
I2
sS'yes, '
p189
I1
sS'everybody '
p190
I1
sS'suite '
p191
I2
sS'indeedy '
p192
I1
sS'user '
p193
I1
sS"' "
p194
I1
sS'disturbed '
p195
I1
sS'well '
p196
I9
sS'hell '
p197
I4
sS'though '
p198
I1
sS'options '
p199
I1
sS'do '
p200
I1
sS'clear '
p201
I2
sS'how '
p202
I1
sS'does '
p203
I2
sS'fuller '
p204
I1
sS'can '
p205
I2
sS'indeed '
p206
I4
sS'oh '
p207
I7
sS'certa\xc3\xadnly '
p208
I1
sS'tell '
p209
I1
sS'moss '
p210
I1
sS'stinks '
p211
I1
sS'bathroom '
p212
I1
sS'i '
p213
I21
sS'ahead '
p214
I1
sS'stub '
p215
I1
sS'excuse '
p216
I1
sS'confused '
p217
I1
sS'get '
p218
I1
sS'yourself '
p219
I2
sS'aah '
p220
I1
sS'cour '
p221
I3
sS'cool '
p222
I1
sS'not '
p223
I1
sS'jules '
p224
I1
sS'tried '
p225
I1
sS"'m "
p226
I1
sS'yeah '
p227
I14
stp228
a((lp229
S'anscheinend'
p230
aS'Anscheinend'
p231
a(dp232
S'peeled '
p233
I1
sS'unfortunately '
p234
I1
sS'institutionalized '
p235
I1
sS'mighty '
p236
I1
sS'guess '
p237
I6
sS'looks '
p238
I15
sS'obviously '
p239
I21
sS'heard '
p240
I1
sS'seems '
p241
I29
sS'donny '
p242
I1
sS'may '
p243
I1
sS'hotter '
p244
I1
sS'fair '
p245
I1
sS'm '
p246
I1
sS'appears '
p247
I6
sS'savannah '
p248
I1
sS'seemed '
p249
I3
sS'well '
p250
I1
sS'pretpostavio '
p251
I1
sS'so '
p252
I1
sS'cha '
p253
I1
sS'singsongy '
p254
I1
sS'evidently '
p255
I3
sS'might '
p256
I1
sS'think '
p257
I1
sS'supposedly '
p258
I3
sS'i '
p259
I1
sS'to '
p260
I1
sS'turns '
p261
I1
sS'clearly '
p262
I4
sS'apparently, '
p263
I5
sS'bunch '
p264
I1
sS'apparently '
p265
I182
sS'institutionalised '
p266
I1
sS'quo '
p267
I1
sS'employed '
p268
I1
sS'seemingly '
p269
I5
sS'yeah '
p270
I1
sS'seem '
p271
I12
stp272
a((lp273
S'wohl'
p274
aS'Wohl'
p275
a(dp276
S'one '
p277
I1
sS'going '
p278
I1
sS'may '
p279
I11
sS'thusly '
p280
I1
sS'what '
p281
I1
sS'would '
p282
I9
sS'messed '
p283
I1
sS'mean '
p284
I5
sS'looks '
p285
I8
sS'welfare '
p286
I4
sS'making '
p287
I1
sS'better '
p288
I3
sS'course '
p289
I1
sS'did '
p290
I1
sS'health '
p291
I1
sS'then '
p292
I1
sS'wonder '
p293
I14
sS'up '
p294
I2
sS'afraid '
p295
I4
sS'isn '
p296
I1
sS'benefit '
p297
I3
sS'neccesary '
p298
I1
sS'it '
p299
I3
sS'about '
p300
I2
sS'sorry '
p301
I1
sS'expect '
p302
I3
sS'least '
p303
I1
sS'apparently '
p304
I4
sS'talking '
p305
I1
sS'all '
p306
I3
sS'fine '
p307
I2
sS'have '
p308
I20
sS"'re "
p309
I5
sS'probably '
p310
I183
sS'seem '
p311
I8
sS'best '
p312
I2
sS'else '
p313
I1
sS'very '
p314
I1
sS'getting '
p315
I1
sS'got '
p316
I3
sS'salud '
p317
I1
sS'bye '
p318
I6
sS'leaving '
p319
I1
sS'likely '
p320
I2
sS'seems '
p321
I13
sS'sake '
p322
I6
sS'just '
p323
I15
sS'healthy '
p324
I1
sS'fancy '
p325
I2
sS'that '
p326
I3
sS'rather '
p327
I1
sS'yes '
p328
I2
sS'good '
p329
I39
sS'safety '
p330
I1
sS'wouldn '
p331
I1
sS'pretty '
p332
I3
sS'is '
p333
I4
sS'mind '
p334
I1
sS'uncomfortable '
p335
I3
sS'trait '
p336
I1
sS'bter '
p337
I1
sS'drink '
p338
I1
sS'might '
p339
I16
sS'think '
p340
I156
sS'maybe '
p341
I4
sS'perhaps '
p342
I4
sS'enjoy '
p343
I3
sS'out '
p344
I3
sS"'s "
p345
I2
sS'must '
p346
I97
sS'quite '
p347
I2
sS'uvula '
p348
I1
sS'doubt '
p349
I2
sS'too '
p350
I1
sS'really '
p351
I4
sS'for '
p352
I1
sS'guess '
p353
I168
sS'zadrovya '
p354
I1
sS'know '
p355
I3
sS'i '
p356
I1
sS'obviously '
p357
I9
sS'richie '
p358
I1
sS'a '
p359
I1
sS'cheers '
p360
I19
sS'be '
p361
I68
sS'now '
p362
I2
sS'dreams '
p363
I1
sS'suppose '
p364
I33
sS'right '
p365
I17
sS'believe '
p366
I1
sS'much '
p367
I2
sS'sir '
p368
I2
sS'like '
p369
I15
sS'don '
p370
I3
sS'certainhy '
p371
I1
sS'was '
p372
I1
sS'feeling '
p373
I1
sS'means '
p374
I2
sS'possibly '
p375
I5
sS'are '
p376
I1
sS'opportunity '
p377
I1
sS'certainly '
p378
I3
sS'greater '
p379
I8
sS'bit '
p380
I2
sS'he '
p381
I1
sS'take '
p382
I2
sS'will '
p383
I1
sS'to '
p384
I10
sS'wonders '
p385
I1
sS'gonna '
p386
I6
sS'huh '
p387
I2
sS'bet '
p388
I5
sS'precisely '
p389
I1
sS'well '
p390
I50
sS'supposed '
p391
I1
sS'comfortable '
p392
I46
sS', '
p393
I1
sS'do '
p394
I8
sS"'m "
p395
I1
sS'sick '
p396
I1
sS"'t "
p397
I12
sS'business '
p398
I1
sS'bajillionaire '
p399
I1
sS'looking '
p400
I1
sS'nice '
p401
I1
sS'well- '
p402
I2
sS'long '
p403
I2
sS'shuffle '
p404
I1
sS'knows '
p405
I1
sS'not '
p406
I1
sS'bottoms- '
p407
I1
stp408
a((lp409
S'offentsichtlich'
p410
aS'Offentsichtlich'
p411
a(dp412
S'obviously '
p413
I4
stp414
a((lp415
S'augenscheinlich'
p416
aS'Augenscheinlich'
p417
a(dp418
S'obviously '
p419
I4
sS'apparently '
p420
I4
sS'tuckered '
p421
I1
sS'can, '
p422
I1
stp423
a((lp424
S'offenkundig'
p425
aS'Offenkundig'
p426
a(dp427
S'obviously '
p428
I3
sS'manifest '
p429
I1
sS'evidently '
p430
I1
stp431
a((lp432
S'eindeutig'
p433
aS'Eindeutig'
p434
a(dp435
S'definitely '
p436
I23
sS'straightforward '
p437
I3
sS'definitive '
p438
I1
sS'positive '
p439
I2
sS'simple '
p440
I1
sS'absolutely '
p441
I1
sS'conclusive '
p442
I3
sS'dried '
p443
I1
sS'obviously '
p444
I3
sS'broad '
p445
I1
sS'decidedly '
p446
I1
sS'mention '
p447
I1
sS'clear '
p448
I16
sS'inconclusive '
p449
I2
sS'sure '
p450
I3
sS'obvious '
p451
I9
sS'roundly '
p452
I2
sS'so '
p453
I1
sS'definite '
p454
I1
sS'awesome '
p455
I1
sS'surely '
p456
I1
sS'hysteric '
p457
I1
sS'match '
p458
I1
sS'clearly, '
p459
I1
sS'unequivocally '
p460
I3
sS'clearly '
p461
I71
sS'distinctly '
p462
I1
sS'certainly '
p463
I1
sS'conclusively '
p464
I4
sS'simultaneously '
p465
I1
sS'close '
p466
I1
sS'totally '
p467
I1
sS'way '
p468
I1
sS'auburn '
p469
I1
stp470
a((lp471
S'selbstredend'
p472
aS'Selbstredend'
p473
a(dp474
S'obviously '
p475
I3
sS'naturally '
p476
I1
stp477
a((lp478
S'klar'
p479
aS'Klar'
p480
a(dp481
S'definitely '
p482
I2
sS'rules '
p483
I1
sS'sweet '
p484
I1
sS'remember '
p485
I1
sS'stay '
p486
I2
sS'follow '
p487
I3
sS'uh '
p488
I3
sS'damaged '
p489
I1
sS'am '
p490
I1
sS'clearing '
p491
I4
sS'no '
p492
I15
sS'record '
p493
I6
sS'would '
p494
I1
sS'hi '
p495
I2
sS'ok '
p496
I48
sS'luck '
p497
I1
sS'recognition '
p498
I1
sS'realized '
p499
I50
sS'sharp '
p500
I2
sS'steady '
p501
I1
sS'kidding '
p502
I1
sS'man '
p503
I9
sS'course '
p504
I158
sS'sorry '
p505
I2
sS'break '
p506
I1
sS'did '
p507
I2
sS'understand '
p508
I50
sS'set '
p509
I4
sS'really '
p510
I2
sS'absolutely '
p511
I14
sS'up '
p512
I19
sS'ready '
p513
I11
sS'goes '
p514
I2
sS'duh '
p515
I1
sS'tight '
p516
I1
sS'dead '
p517
I1
sS'try '
p518
I1
sS'\\u00bf '
p519
I1
sS'lucid '
p520
I6
sS'cut '
p521
I1
sS'mode '
p522
I1
sS'buddy '
p523
I1
sS'ey '
p524
I1
sS'raj '
p525
I1
sS'is '
p526
I1
sS'fact '
p527
I1
sS'storybook '
p528
I1
sS'it '
p529
I61
sS'surprised '
p530
I1
sS'kids '
p531
I1
sS'check '
p532
I1
sS'established '
p533
I2
sS'great '
p534
I7
sS'down- '
p535
I1
sS'tomorrow '
p536
I2
sS'upfront '
p537
I1
sS'please '
p538
I5
sS'sure, '
p539
I1
sS'moment '
p540
I2
sS'mm- '
p541
I1
sS'flip '
p542
I2
sS'asshole '
p543
I1
sS'those, '
p544
I1
sS'consultants '
p545
I1
sS'we '
p546
I3
sS'next '
p547
I1
sS'- '
p548
I8
sS'help '
p549
I2
sS'weisskopf '
p550
I1
sS'cleared '
p551
I2
sS'tali '
p552
I1
sS'lohss '
p553
I2
sS'fine '
p554
I55
sS'timpleman '
p555
I1
sS'guess '
p556
I1
sS'praise '
p557
I1
sS'aware '
p558
I11
sS'totally '
p559
I1
sS'situation '
p560
I1
sS'clean '
p561
I1
sS'say '
p562
I1
sS'worries '
p563
I1
sS'artichoke- '
p564
I2
sS'does '
p565
I1
sS'lifts '
p566
I1
sS'me '
p567
I1
sS'definitive '
p568
I1
sS'jazz '
p569
I1
sS'amigo '
p570
I1
sS'got '
p571
I77
sS'simple '
p572
I1
sS'straight '
p573
I24
sS'marion '
p574
I1
sS'rim '
p575
I1
sS'mysehf '
p576
I1
sS'wha- '
p577
I1
sS'urinating '
p578
I1
sS'or '
p579
I1
sS'face '
p580
I3
sS'*** '
p581
I2
sS'figure '
p582
I2
sS'that '
p583
I16
sS'come '
p584
I3
sS'yes '
p585
I40
sS'good '
p586
I65
sS'gavel '
p587
I1
sS'charlotte '
p588
I1
sS"'em "
p589
I4
sS'understood '
p590
I13
sS'allright '
p591
I2
sS'time '
p592
I2
sS'funny '
p593
I1
sS'inferno '
p594
I1
sS'accept '
p595
I1
sS'doing '
p596
I21
sS'gotcha '
p597
I4
sS'****** '
p598
I1
sS'she '
p599
I2
sS'order '
p600
I1
sS'never '
p601
I1
sS'throh '
p602
I1
sS'them '
p603
I4
sS'loud '
p604
I1
sS'rht '
p605
I1
sS'doin '
p606
I1
sS'let" '
p607
I1
sS'surely '
p608
I1
sS"'ight "
p609
I3
sS'squawks '
p610
I1
sS'let '
p611
I1
sS'pal '
p612
I1
sS'everything '
p613
I1
sS'seriously '
p614
I3
sS'pointing '
p615
I1
sS'nuts '
p616
I1
sS'thanks '
p617
I5
sS'grab '
p618
I1
sS'light '
p619
I1
sS'along '
p620
I3
sS'mellifluous '
p621
I1
sS'square '
p622
I1
sS'novelty '
p623
I1
sS'yep '
p624
I3
sS'cancer '
p625
I1
sS'attention '
p626
I1
sS'go '
p627
I5
sS'happening '
p628
I2
sS'breakdown '
p629
I1
sS'cope '
p630
I1
sS'without '
p631
I1
sS'um '
p632
I1
sS'sorted '
p633
I2
sS'here '
p634
I1
sS'yourself '
p635
I1
sS'tubbs '
p636
I2
sS'amazing '
p637
I1
sS'farms '
p638
I1
sS'ten- '
p639
I2
sS'excited '
p640
I1
sS'live '
p641
I2
sS'knew '
p642
I6
sS'myself '
p643
I2
sS'agree '
p644
I1
sS'wanna '
p645
I1
sS'true '
p646
I1
sS'sense '
p647
I1
sS'cool, '
p648
I1
sS'sharon '
p649
I1
sS'dot '
p650
I1
sS'done '
p651
I10
sS'know '
p652
I76
sS'honey '
p653
I1
sS'obviously '
p654
I3
sS'dig '
p655
I2
sS'right, '
p656
I87
sS'realizes '
p657
I1
sS'crack '
p658
I1
sS'hiccup '
p659
I1
sS'love '
p660
I1
sS'righty '
p661
I7
sS'baby '
p662
I1
sS'clever '
p663
I1
sS'suddenly '
p664
I1
sS'familiar '
p665
I1
sS'now '
p666
I1
sS'ass '
p667
I1
sS'hey '
p668
I2
sS'obvous '
p669
I1
sS'sure '
p670
I525
sS'obvious '
p671
I23
sS'leonard '
p672
I1
sS'right '
p673
I2387
sS'nathan- '
p674
I1
sS'fiat '
p675
I1
sS'poll '
p676
I1
sS'laughs '
p677
I2
sS'enough '
p678
I3
sS'why '
p679
I1
sS'needed '
p680
I1
sS'hardison '
p681
I1
sS'fucking '
p682
I1
sS'like '
p683
I1
sS'rehearsal '
p684
I1
sS'sound '
p685
I1
sS'on '
p686
I12
sS'tally '
p687
I1
sS'you '
p688
I33
sS'noticed '
p689
I1
sS'wilcox '
p690
I1
sS'whatever '
p691
I1
sS'feature '
p692
I1
sS'what '
p693
I1
sS'sunk '
p694
I1
sS'oi '
p695
I1
sS'dude '
p696
I1
sS'door '
p697
I1
sS'handle '
p698
I33
sS'plain '
p699
I3
sS'okay '
p700
I191
sS'clearly '
p701
I56
sS"'ll "
p702
I1
sS'certainly '
p703
I3
sS'wasn '
p704
I1
sS'going '
p705
I3
sS'jared '
p706
I1
sS'dictatorship '
p707
I1
sS'put '
p708
I1
sS'eh '
p709
I1
sS'mistake '
p710
I1
sS'will '
p711
I2
sS'artifact '
p712
I1
sS'who '
p713
I1
sS'riall '
p714
I1
sS'manage '
p715
I3
sS'realizing '
p716
I2
sS'figured '
p717
I10
sS'klara '
p718
I3
sS'huh '
p719
I4
sS'ex '
p720
I1
sS'prepare '
p721
I1
sS'realised '
p722
I13
sS'sir '
p723
I2
sS'coping '
p724
I1
sS'reservation '
p725
I1
sS'112 '
p726
I1
sS'bet '
p727
I3
sS'alright '
p728
I104
sS'brother '
p729
I2
sS'settled '
p730
I5
sS'whee '
p731
I1
sS'right\\u00a1 '
p732
I1
sS'yeah, '
p733
I2
sS'well '
p734
I18
sS'problem '
p735
I5
sS'point '
p736
I1
sS'floyd '
p737
I2
sS'realize '
p738
I120
sS'memos '
p739
I1
sS'do '
p740
I5
sS'clear '
p741
I382
sS'guys '
p742
I2
sS'naturally '
p743
I1
sS'chuckllng '
p744
I1
sS'geniuses '
p745
I1
sS'figures '
p746
I4
sS'roger '
p747
I2
sS'remaining '
p748
I1
sS'shoot '
p749
I1
sS'realise '
p750
I14
sS'sheldonopolis '
p751
I1
sS'easy '
p752
I2
sS'telling '
p753
I2
sS'mate '
p754
I1
sS'crazy '
p755
I1
sS'girl, '
p756
I1
sS'can '
p757
I2
sS'klar '
p758
I8
sS'sit '
p759
I1
sS'managing '
p760
I1
sS'indeed '
p761
I3
sS'oh '
p762
I12
sS'baby- '
p763
I1
sS'tell '
p764
I2
sS'ben '
p765
I2
sS'hear '
p766
I2
sS'see '
p767
I22
sS'gasps '
p768
I1
sS'i '
p769
I18
sS'aaaaah '
p770
I1
sS'ahead '
p771
I3
sS'in '
p772
I1
sS'awesomest '
p773
I1
sS'laugh '
p774
I1
sS'mind '
p775
I1
sS'deal '
p776
I12
sS'elena '
p777
I1
sS'hofer '
p778
I1
sS'zack '
p779
I1
sS'confused '
p780
I2
sS'get '
p781
I13
sS'normal '
p782
I1
sS'eottae '
p783
I1
sS'explain '
p784
I1
sS'peed '
p785
I1
sS'liz '
p786
I1
sS'cool '
p787
I14
sS'idea '
p788
I3
sS'killed '
p789
I1
sS'copy '
p790
I3
sS'phony '
p791
I1
sS'thing '
p792
I1
sS'okeydoke '
p793
I2
sS'yeah '
p794
I283
stp795
a((lp796
S'scheinbar'
p797
aS'Scheinbar'
p798
a(dp799
S'maybe '
p800
I1
sS'appears '
p801
I4
sS'apparently, '
p802
I1
sS'afraid '
p803
I2
sS'apparently '
p804
I46
sS'clearly '
p805
I3
sS'seemed '
p806
I6
sS'appear '
p807
I1
sS'felt '
p808
I2
sS'how '
p809
I1
sS'imaginary '
p810
I1
sS'alright '
p811
I1
sS'looks '
p812
I2
sS"'t, "
p813
I1
sS'obviously '
p814
I3
sS'seemingly '
p815
I6
sS'seems '
p816
I9
sS'seem '
p817
I6
stp818
a((lp819
S'selbstverst\xc3\xa4ndlich'
p820
aS'Selbstverst\xc3\xa4ndlich'
p821
a(dp822
S'money '
p823
I1
sS'natural '
p824
I5
sS'naturally '
p825
I1
sS'shoulders '
p826
I1
sS'duh '
p827
I1
sS'obviously '
p828
I2
sS'seems '
p829
I1
sS'course '
p830
I83
sS'nature '
p831
I1
sS'staying '
p832
I1
sS'unambitious '
p833
I1
sS'* '
p834
I1
sS'then '
p835
I1
sS'absolutely '
p836
I6
sS'mm '
p837
I1
sS'sure '
p838
I4
sS'suppose '
p839
I1
sS'goes '
p840
I3
sS'pleasure '
p841
I1
sS'alterations '
p842
I1
sS'nothing '
p843
I1
sS'very '
p844
I6
sS'camille '
p845
I1
sS'obliged '
p846
I1
sS'honest '
p847
I1
sS'- '
p848
I1
sS'certainly '
p849
I6
sS'granted '
p850
I13
sS'not '
p851
I5
sS'outside '
p852
I1
sS'lndeed '
p853
I1
sS'yeah '
p854
I1
stp855
a((lp856
S'wahrscheinlich'
p857
aS'Wahrscheinlich'
p858
a(dp859
S'probablyjust '
p860
I1
sS'oppenheimer '
p861
I1
sS'js '
p862
I1
sS'may '
p863
I15
sS'frogs '
p864
I1
sS'wintersgill '
p865
I1
sS'sister '
p866
I1
sS': '
p867
I1
sS'reckon '
p868
I2
sS'convince '
p869
I1
sS'guess '
p870
I12
sS'probabhy '
p871
I2
sS'obviously '
p872
I2
sS'likely '
p873
I68
sS'tombstone '
p874
I1
sS'uglies '
p875
I1
sS'chance '
p876
I1
sS'already '
p877
I2
sS'shot '
p878
I1
sS'possible '
p879
I2
sS'racist '
p880
I1
sS'be '
p881
I2
sS'approximately '
p882
I1
sS'that '
p883
I4
sS'necessary '
p884
I1
sS'lines '
p885
I1
sS'sure '
p886
I3
sS'suppose '
p887
I3
sS'watches '
p888
I1
sS'fill '
p889
I1
sS'mm '
p890
I1
sS'stupid '
p891
I1
sS'propably '
p892
I1
sS'eventually '
p893
I3
sS'truth '
p894
I1
sS'doing '
p895
I1
sS'pony '
p896
I1
sS'yes '
p897
I1
sS'chances '
p898
I7
sS'maybe '
p899
I12
sS'it '
p900
I5
sS'might '
p901
I24
sS'supposedly '
p902
I1
sS'they '
p903
I1
sS'think '
p904
I9
sS'i '
p905
I2
sS'white '
p906
I1
sS'when '
p907
I1
sS'- '
p908
I1
sS'wasprobably '
p909
I1
sS'possibly '
p910
I10
sS'perhaps '
p911
I1
sS'apparently '
p912
I1
sS'gone '
p913
I1
sS'probable '
p914
I3
sS'odds '
p915
I1
sS'wanted '
p916
I1
sS'awful '
p917
I1
sS'odds- '
p918
I1
sS'must '
p919
I9
sS'possibility '
p920
I1
sS'probably '
p921
I1050
sS'wamapoke '
p922
I1
sS'yeah '
p923
I1
stp924
a((lp925
S'sind,'
p926
aS'Sind,'
p927
a(dp928
S'obviously '
p929
I1
sS'as '
p930
I1
sS'collection '
p931
I1
stp932
a((lp933
S'm\xc3\xbcnder'
p934
aS'M\xc3\xbcnder'
p935
a(dp936
S'obviously '
p937
I1
sS'mouths '
p938
I9
stp939
a((lp940
S'verarbeitet'
p941
aS'Verarbeitet'
p942
a(dp943
S'wantsmeto '
p944
I1
sS'grudge '
p945
I1
sS'working '
p946
I1
sS'dealing '
p947
I1
sS'fine '
p948
I1
sS'drilled '
p949
I1
sS'obviously '
p950
I1
sS'flowers '
p951
I1
sS'processed '
p952
I1
stp953
a((lp954
S'gestanden'
p955
aS'Gestanden'
p956
a(dp957
S'stood '
p958
I11
sS'niejsze '
p959
I1
sS'daring '
p960
I1
sS'obviously '
p961
I1
sS'fantasize '
p962
I1
sS'hut '
p963
I2
sS'keep '
p964
I1
sS'confessed '
p965
I34
sS'stan '
p966
I1
sS'blowtorch '
p967
I1
sS'stuck '
p968
I2
sS'wore '
p969
I2
sS'standing '
p970
I13
sS'copped '
p971
I2
sS'talked '
p972
I1
sS'thanks '
p973
I1
sS'confession '
p974
I2
sS'surf '
p975
I1
sS'retake '
p976
I1
sS'confess '
p977
I1
sS'square '
p978
I1
sS'beenunder '
p979
I2
sS'stand '
p980
I2
sS'hang '
p981
I1
stp982
a((lp983
S'oddenbar'
p984
aS'Oddenbar'
p985
a(dp986
S'obviously '
p987
I1
stp988
a((lp989
S'scheint'
p990
aS'Scheint'
p991
a(dp992
S'feel '
p993
I2
sS'figured '
p994
I1
sS'may '
p995
I1
sS'shows '
p996
I2
sS'els '
p997
I1
sS'appear '
p998
I15
sS'h\xc3\xb6lynp\xc3\xb6ly\xc3\xa4 '
p999
I1
sS'strikes '
p1000
I1
sS'guess '
p1001
I3
sS'looks '
p1002
I85
sS'obviously '
p1003
I1
sS'seems '
p1004
I703
sS'look '
p1005
I4
sS'appears '
p1006
I87
sS'didn '
p1007
I1
sS'appeared '
p1008
I2
sS'seemed '
p1009
I19
sS'come '
p1010
I1
sS'happens '
p1011
I1
sS'used '
p1012
I3
sS'shines '
p1013
I7
sS'is '
p1014
I8
sS'clingfilm '
p1015
I1
sS'does '
p1016
I3
sS'doing '
p1017
I2
sS'shall '
p1018
I1
sS'like '
p1019
I1
sS'doesn '
p1020
I7
sS'shine '
p1021
I4
sS'eyes '
p1022
I2
sS'isn '
p1023
I1
sS'think '
p1024
I4
sS'coughed '
p1025
I1
sS'simon '
p1026
I1
sS'taught '
p1027
I1
sS'clears '
p1028
I1
sS'shining '
p1029
I10
sS'turns '
p1030
I1
sS'feels '
p1031
I8
sS'tough '
p1032
I1
sS'apparently, '
p1033
I2
sS'we '
p1034
I1
sS'apparently '
p1035
I4
sS'seerns '
p1036
I1
sS'pigment '
p1037
I1
sS"'s "
p1038
I27
sS'sounds '
p1039
I16
sS'must '
p1040
I6
sS'geiss '
p1041
I1
sS'seem '
p1042
I153
stp1043
a((lp1044
S'normalerweise'
p1045
aS'Normalerweise'
p1046
a(dp1047
S'curbestin '
p1048
I1
sS'obviously '
p1049
I1
sS'yourselves '
p1050
I1
sS'usually '
p1051
I262
sS'called '
p1052
I1
sS'i '
p1053
I1
sS'hinuri '
p1054
I1
sS'most '
p1055
I1
sS'supposed '
p1056
I2
sS'generally '
p1057
I8
sS'habit '
p1058
I1
sS'victims '
p1059
I1
sS'normal '
p1060
I3
sS'always '
p1061
I1
sS'upset '
p1062
I1
sS'used '
p1063
I2
sS'asda '
p1064
I1
sS'laughing '
p1065
I1
sS'vyro '
p1066
I1
sS'basically '
p1067
I1
sS'typically '
p1068
I7
sS'cheerlng '
p1069
I1
sS'usual '
p1070
I8
sS'it '
p1071
I2
sS'traditionally '
p1072
I1
sS'tend '
p1073
I2
sS'boom- '
p1074
I1
sS'probably '
p1075
I1
sS'ordinarily '
p1076
I5
sS'sharing '
p1077
I1
sS'okay '
p1078
I1
sS'yep '
p1079
I1
sS'gedownload '
p1080
I1
sS'normally '
p1081
I124
sS'rupture '
p1082
I1
sS'normally, '
p1083
I7
sS'done '
p1084
I1
stp1085
a((lp1086
S'gedreht'
p1087
aS'Gedreht'
p1088
a(dp1089
S'recording '
p1090
I1
sS'filmed '
p1091
I2
sS'homes '
p1092
I4
sS'working '
p1093
I1
sS'computers '
p1094
I1
sS'obviously '
p1095
I1
sS'shot '
p1096
I1
sS'flag '
p1097
I1
sS'lifecompletely '
p1098
I2
sS'dennis '
p1099
I1
sS'slngle '
p1100
I1
sS'turned '
p1101
I6
sS'turn '
p1102
I1
sS'sets '
p1103
I1
sS'shifted '
p1104
I1
sS'anymore '
p1105
I1
sS'banked '
p1106
I1
sS'shooting '
p1107
I1
sS'twisted '
p1108
I1
sS'skullduggery '
p1109
I1
sS'changed '
p1110
I1
sS'vdeo '
p1111
I1
sS'sino\\u0436 '
p1112
I1
stp1113
a((lp1114
S'aber'
p1115
aS'Aber'
p1116
a(dp1117
S'raised '
p1118
I1
sS'better '
p1119
I1
sS'uh '
p1120
I1
sS'only '
p1121
I23
sS'am '
p1122
I5
sS'bu '
p1123
I1
sS'leelu '
p1124
I1
sS'no '
p1125
I32
sS'the '
p1126
I10
sS'ok '
p1127
I1
sS'buthat '
p1128
I1
sS'make '
p1129
I1
sS'actually '
p1130
I7
sS'neal '
p1131
I1
sS'wow '
p1132
I2
sS'man '
p1133
I1
sS'course '
p1134
I1
sS'bogus '
p1135
I1
sS'did '
p1136
I4
sS'work '
p1137
I1
sS'then '
p1138
I27
sS'ladies '
p1139
I2
sS'marko '
p1140
I1
sS'absolutely '
p1141
I4
sS'although '
p1142
I12
sS'if '
p1143
I27
sS'somehow '
p1144
I1
sS'medicine '
p1145
I1
sS'uh- '
p1146
I1
sS'experiment '
p1147
I1
sS'look '
p1148
I8
sS'neomallya '
p1149
I1
sS'cause '
p1150
I2
sS'it '
p1151
I56
sS'martha '
p1152
I1
sS'about '
p1153
I2
sS'please '
p1154
I3
sS'( '
p1155
I6
sS'nbut '
p1156
I1
sS'butnot '
p1157
I1
sS'let '
p1158
I5
sS'turns '
p1159
I1
sS'we '
p1160
I19
sS'- '
p1161
I122
sS'l '
p1162
I1
sS'all '
p1163
I16
sS'our '
p1164
I1
sS'least '
p1165
I2
sS'fine '
p1166
I1
sS'than '
p1167
I1
sS'. '
p1168
I4
sS'have '
p1169
I3
sS"'re "
p1170
I2
sS'yet '
p1171
I38
sS'also '
p1172
I2
sS'any '
p1173
I2
sS'mom '
p1174
I1
sS'admit '
p1175
I1
sS'b '
p1176
I1
sS'bur '
p1177
I1
sS"'but "
p1178
I4
sS'got '
p1179
I1
sS'didnt '
p1180
I1
sS'worth '
p1181
I1
sS'considering '
p1182
I1
sS'as '
p1183
I7
sS'once '
p1184
I1
sS'bou '
p1185
I2
sS'tommy '
p1186
I1
sS'but, '
p1187
I41
sS'granted '
p1188
I1
sS'by '
p1189
I1
sS'or '
p1190
I6
sS'like '
p1191
I1
sS'just '
p1192
I111
sS'because '
p1193
I15
sS'she '
p1194
I9
sS'at '
p1195
I2
sS'that '
p1196
I36
sS'come '
p1197
I8
sS'yes '
p1198
I11
sS'good '
p1199
I1
sS'wouldn '
p1200
I1
sS'are '
p1201
I1
sS'pretty '
p1202
I1
sS'bbut '
p1203
I1
sS'wait '
p1204
I9
sS'is '
p1205
I2
sS'even '
p1206
I3
sS'mais '
p1207
I2
sS'anyway '
p1208
I7
sS'cos '
p1209
I1
sS'never '
p1210
I1
sS'involved '
p1211
I1
sS'after '
p1212
I1
sS'might '
p1213
I2
sS'surely '
p1214
I1
sS'exactly '
p1215
I1
sS'mary '
p1216
I1
sS'say '
p1217
I5
sS'gunnar '
p1218
I1
sS'buts '
p1219
I7
sS'seriously '
p1220
I1
sS'when '
p1221
I8
sS'felhx '
p1222
I1
sS'bruv '
p1223
I1
sS'his '
p1224
I1
sS'perhaps '
p1225
I4
sS'totally '
p1226
I1
sS'whereas '
p1227
I1
sS'gwen '
p1228
I1
sS"'s "
p1229
I3
sS'must '
p1230
I1
sS'um '
p1231
I4
sS'however '
p1232
I45
sS'quite '
p1233
I2
sS'nice '
p1234
I1
sS'joy '
p1235
I1
sS'way '
p1236
I2
sS'shame '
p1237
I1
sS'tokyo '
p1238
I1
sS'boy '
p1239
I1
sS'but '
p1240
I32775
sS'mine '
p1241
I1
sS'too '
p1242
I5
sS'knew '
p1243
I1
sS'there '
p1244
I16
sS'for '
p1245
I10
sS'with '
p1246
I2
sS'guess '
p1247
I1
sS'hey '
p1248
I3
sS'know '
p1249
I1
sS'butwe '
p1250
I1
sS'obviously '
p1251
I1
sS'bring '
p1252
I1
sS'i- '
p1253
I2
sS'aber '
p1254
I1
sS'welil '
p1255
I1
sS'didn '
p1256
I1
sS'in '
p1257
I2
sS'be '
p1258
I10
sS'now '
p1259
I37
sS'true '
p1260
I1
sS'remember '
p1261
I1
sS'sure '
p1262
I9
sS'baby '
p1263
I2
sS'right '
p1264
I1
sS'shakir '
p1265
I1
sS'why '
p1266
I17
sS'ashamed '
p1267
I1
sS'so '
p1268
I53
sS'ah '
p1269
I2
sS'from '
p1270
I2
sS'guest '
p1271
I1
sS'doesn '
p1272
I2
sS'tyler, '
p1273
I1
sS'on '
p1274
I1
sS'maybe '
p1275
I13
sS'you '
p1276
I66
sS'don '
p1277
I11
sS'they '
p1278
I16
sS'whatever '
p1279
I1
sS'what '
p1280
I56
sS'pero '
p1281
I1
sS'darling '
p1282
I1
sS'this '
p1283
I4
sS'okay '
p1284
I7
sS'except '
p1285
I27
sS'certainly '
p1286
I2
sS'and '
p1287
I422
sS'my '
p1288
I1
sS'[ '
p1289
I1
sS'he '
p1290
I11
sS'ask '
p1291
I1
sS'big '
p1292
I1
sS'who '
p1293
I3
sS'senor '
p1294
I1
sS'lucky '
p1295
I1
sS'raimunda '
p1296
I1
sS'christian '
p1297
I1
sS'back '
p1298
I1
sS'gary '
p1299
I1
sS'where '
p1300
I4
sS'said '
p1301
I1
sS'bet '
p1302
I1
sS'unh '
p1303
I2
sS'< '
p1304
I1
sS"' "
p1305
I6
sS'approve '
p1306
I1
sS'well, '
p1307
I6
sS'well '
p1308
I190
sS"'t "
p1309
I1
sS'of '
p1310
I2
sS'iwant '
p1311
I1
sS'though '
p1312
I144
sS'thank '
p1313
I1
sS', '
p1314
I24
sS'mas '
p1315
I2
sS'do '
p1316
I22
sS'since '
p1317
I1
sS'your '
p1318
I1
sS'really '
p1319
I3
sS'how '
p1320
I11
sS'anyhow '
p1321
I1
sS'damn '
p1322
I2
sS'scorsese '
p1323
I1
sS'but- '
p1324
I1
sS'some '
p1325
I1
sS'does '
p1326
I7
sS'a '
p1327
I14
sS'" '
p1328
I5
sS'forgive '
p1329
I1
sS'can '
p1330
I3
sS'oh '
p1331
I21
sS'yesterday '
p1332
I1
sS'hello '
p1333
I1
sS'bui '
p1334
I3
sS'i '
p1335
I192
sS'* '
p1336
I3
sS'bro '
p1337
I1
sS'here '
p1338
I1
sS'someone '
p1339
I1
sS'shipyard '
p1340
I1
sS'real '
p1341
I1
sS'not '
p1342
I27
sS'shut '
p1343
I2
sS'hold '
p1344
I1
sS'thing '
p1345
I2
sS'whichever '
p1346
I1
sS'still '
p1347
I14
sS'yeah '
p1348
I14
sS'which '
p1349
I2
stp1350
a((lp1351
S'cocksucker'
p1352
aS'Cocksucker'
p1353
a(dp1354
S'obviously '
p1355
I1
stp1356
a((lp1357
S'nun'
p1358
aS'Nun'
p1359
a(dp1360
S'one '
p1361
I1
sS'supervisor '
p1362
I1
sS'going '
p1363
I7
sS'may '
p1364
I1
sS'uh '
p1365
I10
sS'am '
p1366
I3
sS'no '
p1367
I15
sS'almost '
p1368
I1
sS'would '
p1369
I1
sS'hi '
p1370
I2
sS'ok '
p1371
I2
sS'mom '
p1372
I1
sS'actually '
p1373
I3
sS'wow '
p1374
I4
sS'deal '
p1375
I2
sS'wellmaybe '
p1376
I1
sS'stumper '
p1377
I1
sS'then '
p1378
I18
sS'rudd '
p1379
I1
sS'oh, '
p1380
I1
sS'although '
p1381
I1
sS'if '
p1382
I3
sS'chop- '
p1383
I1
sS'where '
p1384
I1
sS'look '
p1385
I14
sS'beh '
p1386
I4
sS'now, '
p1387
I27
sS'fact '
p1388
I1
sS'it '
p1389
I15
sS'hmm '
p1390
I1
sS'about '
p1391
I4
sS'more '
p1392
I1
sS'beep '
p1393
I1
sS'please '
p1394
I1
sS'( '
p1395
I4
sS'the '
p1396
I1
sS'seal '
p1397
I1
sS'weil '
p1398
I6
sS'let '
p1399
I11
sS'we '
p1400
I9
sS'next '
p1401
I10
sS'- '
p1402
I50
sS'hilary '
p1403
I1
sS'all '
p1404
I36
sS'aria '
p1405
I1
sS'waltzed '
p1406
I1
sS'recovery '
p1407
I1
sS'addic7ed '
p1408
I1
sS'yet '
p1409
I9
sS'also '
p1410
I3
sS'nevertheless '
p1411
I1
sS'other '
p1412
I1
sS'henceforth '
p1413
I1
sS'livia '
p1414
I1
sS'has '
p1415
I2
sS'william '
p1416
I1
sS'as '
p1417
I2
sS'spick- '
p1418
I1
sS'mm '
p1419
I1
sS'creepy '
p1420
I1
sS'actually, '
p1421
I1
sS'llz '
p1422
I1
sS'just '
p1423
I18
sS'she '
p1424
I7
sS'at '
p1425
I1
sS'that '
p1426
I9
sS'come '
p1427
I7
sS'yes '
p1428
I12
sS'good '
p1429
I4
sS'wishing '
p1430
I1
sS'naked '
p1431
I2
sS'is '
p1432
I6
sS'everybody '
p1433
I2
sS'anyway '
p1434
I5
sS'reserved '
p1435
I1
sS'oh '
p1436
I13
sS'exactly '
p1437
I1
sS'think '
p1438
I2
sS'chango '
p1439
I1
sS'tell '
p1440
I1
sS'say '
p1441
I2
sS'own '
p1442
I1
sS'works '
p1443
I2
sS'when '
p1444
I3
sS'maybe '
p1445
I2
sS'perhaps '
p1446
I1
sS'sort '
p1447
I1
sS'things '
p1448
I1
sS'least '
p1449
I1
sS'go '
p1450
I5
sS'happen '
p1451
I3
sS'um '
p1452
I8
sS'however '
p1453
I1
sS'\\u266a '
p1454
I1
sS'here '
p1455
I9
sS'genericons '
p1456
I1
sS'umm '
p1457
I1
sS'but '
p1458
I10
sS'bem '
p1459
I3
sS'now '
p1460
I1853
sS'for '
p1461
I3
sS'risers '
p1462
I1
sS'legally '
p1463
I1
sS'have '
p1464
I1
sS'gunpowder '
p1465
I1
sS'know '
p1466
I1
sS'billboard '
p1467
I1
sS'obviously '
p1468
I1
sS'become '
p1469
I3
sS'turning '
p1470
I1
sS'pregnant '
p1471
I1
sS'hello '
p1472
I1
sS'there '
p1473
I8
sS'hey '
p1474
I9
sS'right '
p1475
I3
sS'believe '
p1476
I1
sS'why '
p1477
I8
sS'so '
p1478
I184
sS'sir '
p1479
I1
sS'costs '
p1480
I1
sS'like '
p1481
I2
sS'on '
p1482
I1
sS'ow '
p1483
I1
sS'so, '
p1484
I8
sS'you '
p1485
I32
sS'they '
p1486
I4
sS'what '
p1487
I28
sS'was '
p1488
I1
sS'this '
p1489
I9
sS'charlie '
p1490
I1
sS'okay '
p1491
I14
sS'simply '
p1492
I2
sS'and '
p1493
I9
sS'my '
p1494
I4
sS'[ '
p1495
I2
sS'he '
p1496
I10
sS'put '
p1497
I2
sS'eh '
p1498
I3
sS'will '
p1499
I1
sS'howard '
p1500
I1
sS'gonna '
p1501
I13
sS'ni '
p1502
I1
sS'ah '
p1503
I3
sS'over '
p1504
I1
sS'ma '
p1505
I1
sS'knee, '
p1506
I1
sS'parking '
p1507
I1
sS'well, '
p1508
I514
sS'chatter '
p1509
I1
sS'well '
p1510
I6386
sS'nearly '
p1511
I1
sS'thank '
p1512
I1
sS'oop '
p1513
I1
sS'do '
p1514
I11
sS'since '
p1515
I1
sS'guys '
p1516
I3
sS'really '
p1517
I1
sS'understand '
p1518
I1
sS'how '
p1519
I7
sS'anyhow '
p1520
I1
sS'hurry '
p1521
I3
sS'plus '
p1522
I3
sS'wha '
p1523
I1
sS'move '
p1524
I1
sS'listen '
p1525
I3
sS'whoa '
p1526
I2
sS'fry '
p1527
I1
sS'***** '
p1528
I1
sS'nice '
p1529
I3
sS'ooh '
p1530
I3
sS'see '
p1531
I2
sS'll, '
p1532
I1
sS'i '
p1533
I38
sS'been '
p1534
I2
sS'ist '
p1535
I1
sS'moscone '
p1536
I1
sS'mostly '
p1537
I1
sS'get '
p1538
I2
sS'gone '
p1539
I1
sS'creaking '
p1540
I1
sS'euough '
p1541
I1
sS'not '
p1542
I1
sS'finally '
p1543
I1
sS'still '
p1544
I1
sS'yeah '
p1545
I27
stp1546
a((lp1547
S'hochfliegen'
p1548
aS'Hochfliegen'
p1549
a(dp1550
S'obviously '
p1551
I1
sS'flown '
p1552
I1
sS'fly '
p1553
I1
sS'up '
p1554
I1
sS'straight '
p1555
I1
stp1556
a((lp1557
S'offensichtiich'
p1558
aS'Offensichtiich'
p1559
a(dp1560
tp1561
a((lp1562
S'nat\\u00c3\\u00bcrlich'
p1563
aS'Nat\\u00c3\\u00bcrlich'
p1564
a(dp1565
S'obviously '
p1566
I1
sS'course '
p1567
I7
stp1568
a((lp1569
S'abendd\xc3\xa4mmerung'
p1570
aS'Abendd\xc3\xa4mmerung'
p1571
a(dp1572
S'obviously '
p1573
I1
sS'nightfall '
p1574
I2
stp1575
a((lp1576
S'zwar'
p1577
aS'Zwar'
p1578
a(dp1579
S'while '
p1580
I1
sS'may '
p1581
I17
sS'that '
p1582
I2
sS'getaways '
p1583
I1
sS'absolutely '
p1584
I1
sS'obviously '
p1585
I1
sS'want '
p1586
I1
sS'mean '
p1587
I4
sS'oldie '
p1588
I1
sS'keep '
p1589
I1
sS'namely '
p1590
I1
sS'before, '
p1591
I1
sS'kept '
p1592
I1
sS'though '
p1593
I6
sS'did '
p1594
I2
sS'need '
p1595
I1
sS"'m "
p1596
I1
sS'really '
p1597
I1
sS'dress '
p1598
I1
sS'disappear '
p1599
I1
sS'sure '
p1600
I2
sS'right '
p1601
I5
sS'is '
p1602
I14
sS'him '
p1603
I1
sS'a '
p1604
I2
sS'admittedly '
p1605
I1
sS'fact '
p1606
I1
sS'like '
p1607
I5
sS'everyone '
p1608
I1
sS'little '
p1609
I2
sS'might '
p1610
I4
sS'it '
p1611
I10
sS'don '
p1612
I1
sS'today '
p1613
I2
sS'was '
p1614
I2
sS'describe '
p1615
I2
sS'totally '
p1616
I1
sS"'s "
p1617
I5
sS'sounds '
p1618
I1
sS'not '
p1619
I2
sS'hold '
p1620
I1
sS'will '
p1621
I1
sS'intentions '
p1622
I2
sS'still '
p1623
I1
sS'hurriedly '
p1624
I1
sS'seem '
p1625
I1
stp1626
a((lp1627
S'frank'
p1628
aS'Frank'
p1629
a(dp1630
S'film '
p1631
I1
sS'potential '
p1632
I1
sS'see '
p1633
I1
sS'no '
p1634
I1
sS'obviously '
p1635
I1
sS'wainscoting '
p1636
I1
sS'jeez '
p1637
I1
sS'bedroom '
p1638
I1
sS'lilly '
p1639
I1
sS'gay '
p1640
I1
sS'that '
p1641
I2
sS'come '
p1642
I1
sS'frankie '
p1643
I5
sS'frank '
p1644
I867
sS'what '
p1645
I1
sS'stockman '
p1646
I1
sS'science '
p1647
I1
sS'confirmed '
p1648
I1
sS'night '
p1649
I1
sS'wait '
p1650
I1
sS'stand '
p1651
I1
sS'tracy '
p1652
I1
sS'yeah '
p1653
I2
sS'frank, '
p1654
I3
stp1655
a((lp1656
S'funktioniert'
p1657
aS'Funktioniert'
p1658
a(dp1659
S'worked, '
p1660
I2
sS'taste '
p1661
I1
sS'stab '
p1662
I1
sS'checks '
p1663
I1
sS'use '
p1664
I2
sS'dah '
p1665
I1
sS'ever\\u00fdthing '
p1666
I1
sS'angeles '
p1667
I1
sS'obviously '
p1668
I1
sS'go '
p1669
I3
sS"'ll "
p1670
I3
sS'smile '
p1671
I1
sS'couple '
p1672
I1
sS'lily '
p1673
I1
sS'kill '
p1674
I1
sS'know '
p1675
I1
sS'runs '
p1676
I1
sS'queasy '
p1677
I1
sS'???? '
p1678
I1
sS'range '
p1679
I1
sS'functioning '
p1680
I1
sS'dave '
p1681
I1
sS'wow '
p1682
I1
sS'functional '
p1683
I1
sS'many '
p1684
I1
sS'speech '
p1685
I1
sS'works, '
p1686
I4
sS'function '
p1687
I1
sS'work '
p1688
I273
sS'doggie '
p1689
I1
sS'gotta '
p1690
I1
sS'malfunction '
p1691
I1
sS'run '
p1692
I1
sS'how '
p1693
I4
sS'worked '
p1694
I142
sS'bottled '
p1695
I1
sS'yel '
p1696
I1
sS'where '
p1697
I1
sS'trick '
p1698
I2
sS'is '
p1699
I11
sS'team '
p1700
I2
sS'it '
p1701
I1
sS'workedbecause '
p1702
I1
sS'nothing '
p1703
I1
sS'does '
p1704
I62
sS'doing '
p1705
I1
sS'working '
p1706
I181
sS'chandlerwas '
p1707
I1
sS'kisser '
p1708
I1
sS'doesn '
p1709
I11
sS'great '
p1710
I1
sS'think '
p1711
I1
sS'workng '
p1712
I2
sS'land '
p1713
I1
sS'functioned '
p1714
I1
sS'they '
p1715
I1
sS'succeed '
p1716
I1
sS'goes '
p1717
I4
sS'method '
p1718
I2
sS'normal '
p1719
I1
sS'works '
p1720
I344
sS'dena '
p1721
I1
sS'workin '
p1722
I2
sS'science '
p1723
I1
sS'sike '
p1724
I1
sS'done '
p1725
I1
sS'could '
p1726
I1
sS'malfunctioned '
p1727
I1
sS'ha '
p1728
I1
sS'outfit '
p1729
I1
sS'functions '
p1730
I2
sS'yaramad\\u0131 '
p1731
I1
sS'fine '
p1732
I1
sS'stands '
p1733
I1
sS'trying '
p1734
I1
sS"'s "
p1735
I8
sS'goodness '
p1736
I1
sS'telling '
p1737
I1
sS'happen '
p1738
I1
sS'way '
p1739
I1
sS'running '
p1740
I3
sS'yeah '
p1741
I2
sS'uh, '
p1742
I1
stp1743
a((lp1744
S'warte'
p1745
aS'Warte'
p1746
a(dp1747
S'sweet '
p1748
I1
sS'intellectual '
p1749
I1
sS'stay '
p1750
I22
sS'uh '
p1751
I1
sS'no '
p1752
I9
sS'project '
p1753
I1
sS'slow '
p1754
I1
sS'ok '
p1755
I1
sS'terrence '
p1756
I1
sS'hvda '
p1757
I1
sS'beam '
p1758
I1
sS'perfect '
p1759
I1
sS'rocky '
p1760
I1
sS'flamingo '
p1761
I1
sS'something '
p1762
I1
sS'oh, '
p1763
I2
sS'2 '
p1764
I1
sS'uh- '
p1765
I1
sS'toby '
p1766
I1
sS'david '
p1767
I1
sS'swear '
p1768
I1
sS'question '
p1769
I3
sS'look '
p1770
I9
sS'it '
p1771
I5
sS'kids '
p1772
I2
sS'damon '
p1773
I1
sS'chick '
p1774
I1
sS'leave '
p1775
I1
sS'please '
p1776
I1
sS'moment '
p1777
I1
sS'sucks '
p1778
I1
sS'expect '
p1779
I1
sS"'ve "
p1780
I4
sS'let '
p1781
I5
sS'next '
p1782
I1
sS'- '
p1783
I5
sS'all '
p1784
I2
sS'andie '
p1785
I1
sS'buddies '
p1786
I1
sS'waot '
p1787
I1
sS'sonia '
p1788
I1
sS'attendants '
p1789
I2
sS'friends '
p1790
I1
sS'carol '
p1791
I1
sS'wait '
p1792
I2639
sS'sex '
p1793
I1
sS'waitt '
p1794
I1
sS'conflict '
p1795
I1
sS'shake '
p1796
I1
sS"'ll "
p1797
I24
sS'amy '
p1798
I1
sS'second '
p1799
I2
sS'crosby '
p1800
I1
sS'mike '
p1801
I1
sS'just '
p1802
I8
sS'come '
p1803
I4
sS'ymca '
p1804
I1
sS'brent '
p1805
I1
sS'if '
p1806
I1
sS'cancelled '
p1807
I1
sS'waite '
p1808
I1
sS'melissa '
p1809
I1
sS'message '
p1810
I1
sS'mainframe '
p1811
I1
sS'oh '
p1812
I9
sS'warte '
p1813
I1
sS'await '
p1814
I1
sS'waited '
p1815
I3
sS'push '
p1816
I1
sS'waitdon '
p1817
I1
sS'aiting '
p1818
I1
sS'despite '
p1819
I1
sS'honest '
p1820
I1
sS'thanks '
p1821
I2
sS'luna '
p1822
I1
sS'cave '
p1823
I1
sS'go '
p1824
I5
sS'check '
p1825
I1
sS"'hang "
p1826
I1
sS'penthouse '
p1827
I1
sS'close '
p1828
I2
sS'basement '
p1829
I1
sS'waitin '
p1830
I3
sS'stand '
p1831
I5
sS'olivier '
p1832
I1
sS'here '
p1833
I19
sS'stop '
p1834
I14
sS'fuck '
p1835
I1
sS'pageant '
p1836
I1
sS'too '
p1837
I1
sS'mckinley '
p1838
I2
sS'lily '
p1839
I1
sS'calling '
p1840
I1
sS'gets '
p1841
I1
sS'my '
p1842
I1
sS'obviously '
p1843
I1
sS'now '
p1844
I8
sS'hey '
p1845
I15
sS'minute '
p1846
I2
sS'evolve '
p1847
I1
sS'easy '
p1848
I2
sS'right '
p1849
I5
sS'laughs '
p1850
I1
sS'careful '
p1851
I1
sS'watch '
p1852
I1
sS'why '
p1853
I4
sS'so '
p1854
I2
sS'oliveira '
p1855
I1
sS'shoot '
p1856
I1
sS'pull '
p1857
I1
sS'ooh '
p1858
I1
sS'you '
p1859
I5
sS'standing '
p1860
I8
sS'what '
p1861
I13
sS'l- '
p1862
I1
sS'dena '
p1863
I1
sS'okay '
p1864
I7
sS'are '
p1865
I1
sS'quick '
p1866
I3
sS'give '
p1867
I2
sS'chloe '
p1868
I1
sS'care '
p1869
I1
sS'waiting '
p1870
I191
sS'will '
p1871
I1
sS'hang '
p1872
I159
sS'girl '
p1873
I1
sS'cate '
p1874
I1
sS'gonna '
p1875
I1
sS'prepare '
p1876
I1
sS'where '
p1877
I3
sS'oi '
p1878
I2
sS'wait, '
p1879
I41
sS'meet '
p1880
I11
sS'well '
p1881
I2
sS'patience '
p1882
I1
sS'normal '
p1883
I1
sS"'s "
p1884
I1
sS'do '
p1885
I1
sS"'m "
p1886
I8
sS'dad '
p1887
I1
sS'whispering '
p1888
I1
sS'how '
p1889
I1
sS'trap '
p1890
I1
sS'on '
p1891
I2
sS'waits '
p1892
I7
sS'taste '
p1893
I1
sS'smelled '
p1894
I1
sS'sit '
p1895
I5
sS'listen '
p1896
I3
sS'whoa '
p1897
I22
sS'pause '
p1898
I2
sS'hear '
p1899
I3
sS'shrink '
p1900
I1
sS'see '
p1901
I3
sS'hello '
p1902
I2
sS'i '
p1903
I7
sS'fast '
p1904
I1
sS'daddy '
p1905
I2
sS'bide '
p1906
I1
sS'part '
p1907
I2
sS'door '
p1908
I1
sS'don '
p1909
I6
sS'get '
p1910
I3
sS'mi '
p1911
I1
sS'coffee '
p1912
I1
sS'explain '
p1913
I2
sS'cool '
p1914
I1
sS'yet '
p1915
I1
sS'hold '
p1916
I294
sS'yeah '
p1917
I2
sS'picking '
p1918
I1
stp1919
a((lp1920
S'stimmt'
p1921
aS'Stimmt'
p1922
a(dp1923
S'matter '
p1924
I1
sS'defenses '
p1925
I1
sS'farrah '
p1926
I1
sS'holds '
p1927
I1
sS'penny '
p1928
I1
sS'nope '
p1929
I1
sS'would '
p1930
I1
sS'ok '
p1931
I1
sS'blake '
p1932
I1
sS'stay '
p1933
I1
sS'months '
p1934
I1
sS'course '
p1935
I4
sS'fair '
p1936
I1
sS'did '
p1937
I19
sS'amiss '
p1938
I2
sS'absolutely '
p1939
I1
sS'haven '
p1940
I3
sS'\\u043c\\u043d\\u0435\\u043d\\u0438\\u044f\\u043c\\u0438 '
p1941
I1
sS'distasteful '
p1942
I1
sS'won '
p1943
I1
sS'am '
p1944
I7
sS'orphan '
p1945
I1
sS'keen '
p1946
I1
sS'lying '
p1947
I1
sS'truth '
p1948
I9
sS'sors '
p1949
I1
sS'isn '
p1950
I55
sS'raj '
p1951
I1
sS'fact '
p1952
I1
sS'agree '
p1953
I6
sS'3x21 '
p1954
I1
sS'scott '
p1955
I1
sS'sun '
p1956
I1
sS'anything '
p1957
I1
sS'- '
p1958
I5
sS'mikey '
p1959
I1
sS'had '
p1960
I2
sS'miyagi '
p1961
I1
sS'\xc3\x84\xc3\xa4nest\xc3\xa4 '
p1962
I1
sS'h\\u1ea3 '
p1963
I1
sS'guess '
p1964
I1
sS"'re "
p1965
I4
sS'27 '
p1966
I1
sS'est- '
p1967
I1
sS'plena '
p1968
I1
sS'matches '
p1969
I1
sS'correct '
p1970
I20
sS'we '
p1971
I1
sS'down '
p1972
I1
sS'answer '
p1973
I1
sS'aren '
p1974
I14
sS'fasterthis '
p1975
I1
sS'vote '
p1976
I1
sS'that '
p1977
I4
sS'yes '
p1978
I21
sS'fits '
p1979
I1
sS'wouldn '
p1980
I2
sS'ain '
p1981
I11
sS'start '
p1982
I1
sS'is '
p1983
I152
sS'no '
p1984
I4
sS'miles '
p1985
I1
sS'lsn '
p1986
I2
sS'exactly '
p1987
I2
sS'rht '
p1988
I1
sS'prohibition '
p1989
I1
sS'honor '
p1990
I1
sS'checks '
p1991
I5
sS'maybe '
p1992
I1
sS'untrue '
p1993
I1
sS'enjoy '
p1994
I1
sS'yep '
p1995
I2
sS'kissing '
p1996
I1
sS'check '
p1997
I1
sS"'s "
p1998
I90
sS'quite '
p1999
I1
sS'agreed '
p2000
I1
sS'too '
p2001
I1
sS'happens '
p2002
I1
sS'there '
p2003
I1
sS'makes '
p2004
I2
sS'true '
p2005
I380
sS'woman '
p2006
I1
sS'have '
p2007
I8
sS'know '
p2008
I4
sS'\\u0414\\u0430 '
p2009
I1
sS'obviously '
p2010
I1
sS'cops '
p2011
I1
sS'right, '
p2012
I1
sS'pregnant '
p2013
I1
sS'dazzling '
p2014
I1
sS'didn '
p2015
I22
sS'boom- '
p2016
I1
sS'now '
p2017
I1
sS'mouse '
p2018
I1
sS'applause '
p2019
I1
sS'sure '
p2020
I2
sS'right '
p2021
I852
sS'buzzer '
p2022
I1
sS'agrees '
p2023
I4
sS'plug '
p2024
I1
sS'permit '
p2025
I1
sS'were '
p2026
I1
sS'why '
p2027
I1
sS'so '
p2028
I3
sS'apricots '
p2029
I1
sS'doesn '
p2030
I2
sS'true, '
p2031
I1
sS'ow '
p2032
I1
sS'you '
p2033
I5
sS'don '
p2034
I17
sS'impressed '
p2035
I1
sS'they '
p2036
I4
sS'untruth '
p2037
I1
sS'what '
p2038
I2
sS'was '
p2039
I7
sS'hon '
p2040
I1
sS'wrong '
p2041
I356
sS'okay '
p2042
I1
sS'are '
p2043
I25
sS'certainly '
p2044
I1
sS'wait '
p2045
I1
sS'nothing '
p2046
I1
sS'take '
p2047
I1
sS'geugeonmaja '
p2048
I1
sS'arm '
p2049
I1
sS'huh '
p2050
I6
sS'scary '
p2051
I1
sS'fit '
p2052
I1
sS'password '
p2053
I1
sS'lecture '
p2054
I1
sS'girls '
p2055
I1
sS'maureen '
p2056
I1
sS'well '
p2057
I5
sS'point '
p2058
I3
sS'sec '
p2059
I1
sS'sweatshirt '
p2060
I1
sS'keep '
p2061
I4
sS'ls '
p2062
I4
sS', '
p2063
I1
sS'do '
p2064
I18
sS"'m "
p2065
I3
sS'dad '
p2066
I1
sS'kn '
p2067
I1
sS'leah '
p2068
I1
sS'understand '
p2069
I1
sS'girlfriend '
p2070
I1
sS'benjamln '
p2071
I1
sS'scheider '
p2072
I1
sS'not '
p2073
I1
sS'does '
p2074
I5
sS'can '
p2075
I2
sS'indeed '
p2076
I1
sS'oh '
p2077
I2
sS'somethin '
p2078
I1
sS'stimmt '
p2079
I1
sS'i '
p2080
I9
sS'goons '
p2081
I1
sS'wasn '
p2082
I6
sS'olekin '
p2083
I1
sS'socially '
p2084
I1
sS'real '
p2085
I2
sS'boat '
p2086
I1
sS'something '
p2087
I13
sS'passengers '
p2088
I1
sS'yeah '
p2089
I28
stp2090
a((lp2091
S'nudel'
p2092
aS'Nudel'
p2093
a(dp2094
S'needle '
p2095
I1
sS'dick '
p2096
I2
sS'cock '
p2097
I2
sS'obviously '
p2098
I1
sS'judging '
p2099
I1
sS'noodle '
p2100
I3
sS'wick '
p2101
I1
stp2102
a((lp2103
S'sicher'
p2104
aS'Sicher'
p2105
a(dp2106
S'definitely '
p2107
I22
sS'checked '
p2108
I1
sS'certain '
p2109
I169
sS'could '
p2110
I3
sS'may '
p2111
I1
sS'uh '
p2112
I1
sS'clearing '
p2113
I1
sS'doc '
p2114
I1
sS'no '
p2115
I7
sS'record '
p2116
I1
sS'would '
p2117
I7
sS'hi '
p2118
I2
sS'ok '
p2119
I2
sS'redcap '
p2120
I1
sS'fat '
p2121
I1
sS'confirm '
p2122
I2
sS'steady '
p2123
I1
sS'certa\xc3\xadnly '
p2124
I1
sS'mattress '
p2125
I1
sS'course '
p2126
I67
sS'already '
p2127
I3
sS'bait '
p2128
I1
sS'de\\u011filim '
p2129
I1
sS'confidentthat '
p2130
I1
sS'sureshe '
p2131
I1
sS'clarify '
p2132
I1
sS'gotta '
p2133
I3
sS'really '
p2134
I7
sS'absolutely '
p2135
I10
sS'few '
p2136
I1
sS'mother '
p2137
I1
sS'validation '
p2138
I1
sS'pleasure '
p2139
I1
sS'pictures '
p2140
I1
sS'manage '
p2141
I1
sS'isafe '
p2142
I3
sS'dodukanleyo '
p2143
I1
sS'seat '
p2144
I1
sS'thank '
p2145
I2
sS'fizbo- '
p2146
I1
sS'talk '
p2147
I1
sS'it '
p2148
I10
sS'hmm '
p2149
I1
sS'liz '
p2150
I1
sS'regular '
p2151
I1
sS'banana '
p2152
I1
sS'imagine '
p2153
I1
sS'please '
p2154
I1
sS'sorry '
p2155
I2
sS'clean '
p2156
I1
sS'agency '
p2157
I1
sS'whatever '
p2158
I1
sS'all '
p2159
I1
sS'guarantee '
p2160
I1
sS'hurry '
p2161
I1
sS'talking '
p2162
I1
sS'fine '
p2163
I4
sS'secured '
p2164
I1
sS'torn '
p2165
I1
sS'have '
p2166
I1
sS'pen '
p2167
I1
sS'birthday '
p2168
I1
sS'totally '
p2169
I3
sS'probably '
p2170
I62
sS'safer '
p2171
I3
sS'damm '
p2172
I1
sS'determined '
p2173
I1
sS'assure '
p2174
I1
sS'anything '
p2175
I2
sS'blocking '
p2176
I1
sS'safe '
p2177
I790
sS'got '
p2178
I2
sS'teammates '
p2179
I1
sS'*** '
p2180
I1
sS"'ll "
p2181
I3
sS'as '
p2182
I1
sS'invisible '
p2183
I1
sS'likely '
p2184
I1
sS'yup '
p2185
I1
sS'laughing '
p2186
I3
sS'face '
p2187
I1
sS'gunfire '
p2188
I1
sS'at '
p2189
I2
sS'johnny '
p2190
I1
sS'surethis '
p2191
I2
sS'hit '
p2192
I1
sS'assured '
p2193
I4
sS'that '
p2194
I1
sS'come '
p2195
I1
sS'find '
p2196
I1
sS'yes '
p2197
I6
sS'good '
p2198
I5
sS'safety '
p2199
I1
sS'even '
p2200
I1
sS'is '
p2201
I2
sS'nothing '
p2202
I1
sS'protected '
p2203
I4
sS'built '
p2204
I2
sS'count '
p2205
I1
sS'proof '
p2206
I3
sS'brilliant '
p2207
I1
sS'aid '
p2208
I1
sS'them '
p2209
I1
sS'dismiss '
p2210
I1
sS'might '
p2211
I8
sS'think '
p2212
I9
sS'ridikolus '
p2213
I1
sS'surely '
p2214
I51
sS'doesn '
p2215
I2
sS'hello '
p2216
I1
sS'saturday '
p2217
I1
sS'burke '
p2218
I1
sS'ruth '
p2219
I1
sS'cheney '
p2220
I1
sS'puhut '
p2221
I1
sS'seriously '
p2222
I2
sS'nuts '
p2223
I1
sS'jerry '
p2224
I2
sS'ones '
p2225
I1
sS'bruv '
p2226
I1
sS'joe '
p2227
I1
sS'su '
p2228
I1
sS'checking '
p2229
I1
sS'seymour, '
p2230
I1
sS'thanks '
p2231
I2
sS'happen '
p2232
I1
sS'must '
p2233
I49
sS'surethat '
p2234
I2
sS'constance '
p2235
I1
sS'quite '
p2236
I2
sS'threesome '
p2237
I1
sS'lot '
p2238
I2
sS'trust '
p2239
I3
sS'boring '
p2240
I1
sS'cookie '
p2241
I1
sS'deserves '
p2242
I1
sS'doubt '
p2243
I4
sS'angle '
p2244
I1
sS'neurobiologist '
p2245
I1
sS'live '
p2246
I1
sS'knew '
p2247
I2
sS'case '
p2248
I3
sS'see '
p2249
I3
sS'stakes '
p2250
I1
sS'wanna '
p2251
I1
sS'worried '
p2252
I2
sS'guess '
p2253
I3
sS'convinced '
p2254
I4
sS'know '
p2255
I45
sS'obviously '
p2256
I1
sS'ton '
p2257
I1
sS'brain '
p2258
I1
sS'toilets '
p2259
I1
sS'$23 '
p2260
I1
sS'passageway '
p2261
I1
sS'be '
p2262
I38
sS'thoughts '
p2263
I2
sS'there '
p2264
I3
sS'sure '
p2265
I4971
sS'suppose '
p2266
I5
sS'right '
p2267
I25
sS'insane '
p2268
I1
sS'unsafe '
p2269
I4
sS'me '
p2270
I2
sS'believe '
p2271
I2
sS'batman '
p2272
I1
sS'why '
p2273
I1
sS'so '
p2274
I1
sS'certainty '
p2275
I2
sS'crap '
p2276
I1
sS'jr '
p2277
I1
sS'safely '
p2278
I56
sS'ronstadt '
p2279
I1
sS'you '
p2280
I6
sS'off '
p2281
I1
sS'serious '
p2282
I19
sS'they '
p2283
I2
sS'what '
p2284
I1
sS'right- '
p2285
I1
sS'straight '
p2286
I2
sS'means '
p2287
I3
sS'odavde '
p2288
I1
sS'okay '
p2289
I9
sS'clearly '
p2290
I6
sS'certainly '
p2291
I86
sS'and '
p2292
I1
sS'won '
p2293
I1
sS'betcha '
p2294
I1
sS'mesome '
p2295
I1
sS'he '
p2296
I2
sS'shizzle '
p2297
I1
sS'eh '
p2298
I1
sS'mike '
p2299
I1
sS'will '
p2300
I3
sS'granted '
p2301
I4
sS'spot '
p2302
I1
sS'confident '
p2303
I13
sS'cheer '
p2304
I1
sS'gonna '
p2305
I3
sS'shure '
p2306
I1
sS'positive '
p2307
I31
sS"' "
p2308
I1
sS's\\u00fbr '
p2309
I1
sS'go '
p2310
I1
sS"'d "
p2311
I1
sS'bat '
p2312
I1
sS'bet '
p2313
I25
sS'cocksure '
p2314
I1
sS'none '
p2315
I1
sS'swear '
p2316
I1
sS'well '
p2317
I5
sS"'t "
p2318
I1
sS'solid '
p2319
I2
sS'though '
p2320
I1
sS', '
p2321
I1
sS'do '
p2322
I5
sS'clear '
p2323
I27
sS'made- '
p2324
I1
sS'understand '
p2325
I4
sS'hell '
p2326
I1
sS'watch '
p2327
I1
sS'compromised '
p2328
I1
sS'engaged '
p2329
I1
sS'soda '
p2330
I1
sS'eat '
p2331
I1
sS'point '
p2332
I1
sS'fact '
p2333
I6
sS'can '
p2334
I6
sS'sit '
p2335
I1
sS'oh '
p2336
I2
sS'sure, '
p2337
I23
sS'spend '
p2338
I1
sS'assurance '
p2339
I1
sS'surehe '
p2340
I1
sS'sicher '
p2341
I1
sS'ridiculous '
p2342
I1
sS'i '
p2343
I6
sS'she, '
p2344
I1
sS'ahead '
p2345
I1
sS're '
p2346
I3
sS'excuse '
p2347
I1
sS'door '
p2348
I1
sS'don '
p2349
I4
sS'katie '
p2350
I1
sS'real '
p2351
I1
sS'sire '
p2352
I3
sS'surei '
p2353
I1
sS'secure '
p2354
I51
sS'ensure '
p2355
I1
sS'covered '
p2356
I1
sS'great '
p2357
I2
sS'assuredly '
p2358
I1
sS'shut '
p2359
I1
sS'thing '
p2360
I1
sS'picking '
p2361
I1
sS'still '
p2362
I1
sS"'m "
p2363
I1
sS'yeah '
p2364
I30
sS'epitome '
p2365
I1
stp2366
a((lp2367
S'daher'
p2368
aS'Daher'
p2369
a(dp2370
S'where '
p2371
I3
sS'that\\u2019 '
p2372
I1
sS'obviously '
p2373
I1
sS'therefore '
p2374
I21
sS'because '
p2375
I4
sS'siksi '
p2376
I1
sS'that '
p2377
I20
sS'miro '
p2378
I1
sS'how '
p2379
I3
sS'occasion '
p2380
I1
sS'thus '
p2381
I2
sS'why '
p2382
I12
sS'so '
p2383
I170
sS"'cause "
p2384
I1
sS'i '
p2385
I1
sS'turn '
p2386
I1
sS'bubbles '
p2387
I2
sS'we '
p2388
I1
sS'hence '
p2389
I19
sS'and '
p2390
I4
sS'alone '
p2391
I1
sS'such '
p2392
I1
sS'handbrake '
p2393
I1
sS'till '
p2394
I1
sS'along '
p2395
I6
sS'which '
p2396
I9
stp2397
a((lp2398
S'was'
p2399
aS'Was'
p2400
a(dp2401
S'definitely '
p2402
I1
sS'stay '
p2403
I1
sS'better '
p2404
I1
sS'whitmore '
p2405
I1
sS'keoki '
p2406
I1
sS'ever '
p2407
I7
sS'puff '
p2408
I1
sS'texts '
p2409
I1
sS'deal '
p2410
I2
sS'pardon '
p2411
I3
sS'meant '
p2412
I1
sS'kicking '
p2413
I1
sS'really '
p2414
I15
sS'haven '
p2415
I1
sS'leonard '
p2416
I1
sS'mother '
p2417
I2
sS'whatt '
p2418
I2
sS'turn '
p2419
I1
sS'j\xc3\xb8rgen '
p2420
I1
sS'buddy '
p2421
I1
sS'otherwise '
p2422
I2
sS'talk '
p2423
I6
sS'hmm '
p2424
I4
sS'more '
p2425
I4
sS'soul '
p2426
I1
sS'nowwhat '
p2427
I1
sS'mark '
p2428
I1
sS'- '
p2429
I182
sS'help '
p2430
I7
sS'best '
p2431
I6
sS'carter '
p2432
I1
sS'attendants '
p2433
I1
sS'whichl '
p2434
I1
sS'mean '
p2435
I3
sS'luojan '
p2436
I1
sS'suit '
p2437
I1
sS'disapprove '
p2438
I1
sS'entendu '
p2439
I1
sS'else '
p2440
I3
sS'me '
p2441
I10
sS'slurps '
p2442
I1
sS'wai '
p2443
I1
sS'christ '
p2444
I1
sS'wha- '
p2445
I1
sS'dre '
p2446
I1
sS'should '
p2447
I1
sS'answer '
p2448
I2
sS'quiet '
p2449
I1
sS'aren '
p2450
I9
sS'foods '
p2451
I1
sS'staying '
p2452
I1
sS'mention '
p2453
I1
sS'beeps '
p2454
I2
sS'that '
p2455
I600
sS'change '
p2456
I1
sS'kid '
p2457
I1
sS'pete '
p2458
I1
sS'bo '
p2459
I1
sS'leave '
p2460
I1
sS'interesting '
p2461
I1
sS'him '
p2462
I4
sS'engine '
p2463
I1
sS'brlony '
p2464
I1
sS'machine '
p2465
I1
sS'beth '
p2466
I1
sS'mwah '
p2467
I1
sS'say '
p2468
I6
sS'everything '
p2469
I145
sS'eggs '
p2470
I1
sS'when '
p2471
I12
sS'telegraph '
p2472
I1
sS'maybe '
p2473
I5
sS'skills '
p2474
I1
sS'gun '
p2475
I1
sS'calf- '
p2476
I1
sS'must '
p2477
I1
sS'wha '
p2478
I17
sS'enzo '
p2479
I1
sS'here '
p2480
I2
sS'fuck '
p2481
I20
sS'workwith '
p2482
I1
sS'runkle '
p2483
I1
sS'up '
p2484
I8
sS'know '
p2485
I3
sS'war '
p2486
I1
sS'didn '
p2487
I1
sS'right '
p2488
I70
sS'wh- '
p2489
I1
sS'believe '
p2490
I2
sS'watch '
p2491
I1
sS'oldu '
p2492
I1
sS'amateurs '
p2493
I1
sS'whose '
p2494
I1
sS'tanya '
p2495
I1
sS'off '
p2496
I2
sS'wich '
p2497
I1
sS'duty '
p2498
I1
sS'blood '
p2499
I2
sS'three '
p2500
I1
sS'wrong '
p2501
I6
sS'sara '
p2502
I1
sS'shit '
p2503
I8
sS'and '
p2504
I54
sS'nothing '
p2505
I56
sS'regis '
p2506
I1
sS'big '
p2507
I5
sS'belts '
p2508
I1
sS'that- '
p2509
I1
sS'engines '
p2510
I1
sS'type '
p2511
I1
sS'comin '
p2512
I1
sS'eight '
p2513
I1
sS'water '
p2514
I2
sS"'t "
p2515
I2
sS'keep '
p2516
I1
sS'discuss '
p2517
I1
sS'what, '
p2518
I86
sS'um '
p2519
I7
sS'food '
p2520
I2
sS'whaabout '
p2521
I1
sS'these '
p2522
I1
sS'funny '
p2523
I1
sS'listen '
p2524
I7
sS'somebody '
p2525
I2
sS'awesome '
p2526
I1
sS'waegeurae '
p2527
I1
sS'somethin '
p2528
I14
sS'hear '
p2529
I7
sS'what" '
p2530
I6
sS'forks '
p2531
I2
sS'chaos '
p2532
I1
sS', '
p2533
I2
sS'speak '
p2534
I1
sS'overages '
p2535
I1
sS'aah '
p2536
I1
sS'need '
p2537
I1
sS'liz '
p2538
I3
sS'untie '
p2539
I1
sS'scoot '
p2540
I1
sS'hold '
p2541
I5
sS'jules '
p2542
I1
sS'amelia '
p2543
I1
sS'dinner '
p2544
I1
sS'oy '
p2545
I1
sS'perlmutter '
p2546
I1
sS'luke '
p2547
I1
sS'mltchell '
p2548
I1
sS'uh '
p2549
I11
sS'school '
p2550
I1
sS'no '
p2551
I59
sS'development '
p2552
I1
sS'the '
p2553
I65
sS'ok '
p2554
I4
sS'cain '
p2555
I1
sS'shh '
p2556
I1
sS'jeez '
p2557
I1
sS'boss '
p2558
I2
sS'mom '
p2559
I3
sS'wow '
p2560
I4
sS'chuckle '
p2561
I1
sS'did '
p2562
I13
sS'hawaii '
p2563
I1
sS'jou\xc3\xa9 '
p2564
I1
sS'then '
p2565
I11
sS'died '
p2566
I1
sS'if '
p2567
I30
sS'between '
p2568
I2
sS'hail '
p2569
I1
sS'sign '
p2570
I1
sS'\\u041a\\u043e\\u043c\\u043f\\u0430\\u043d\\u0438\\u044f '
p2571
I1
sS'isn '
p2572
I7
sS'evelyn '
p2573
I1
sS'it '
p2574
I154
sS'kids '
p2575
I1
sS'arif '
p2576
I1
sS'vlem '
p2577
I1
sS'james '
p2578
I1
sS'hero '
p2579
I1
sS'all '
p2580
I147
sS'37 '
p2581
I1
sS'bail '
p2582
I1
sS'than '
p2583
I1
sS'birthday '
p2584
I1
sS'dependents '
p2585
I1
sS'by '
p2586
I1
sS'trouble '
p2587
I2
sS'conservative '
p2588
I1
sS'mathieu '
p2589
I1
sS'got '
p2590
I3
sS'as '
p2591
I204
sS'hell, '
p2592
I1
sS'o\\u00f9 '
p2593
I1
sS'denholm '
p2594
I1
sS'mm '
p2595
I1
sS'or '
p2596
I6
sS'at '
p2597
I5
sS'could '
p2598
I2
sS'yes '
p2599
I18
sS'mustn\\u2019 '
p2600
I1
sS'worst '
p2601
I1
sS'neonwaeneulgeureonslkinl '
p2602
I1
sS'is '
p2603
I12
sS'book '
p2604
I1
sS'police '
p2605
I1
sS'rosalie '
p2606
I1
sS'even '
p2607
I2
sS'distal '
p2608
I1
sS'mit\xc3\xa4 '
p2609
I1
sS'backpack '
p2610
I1
sS'studio '
p2611
I1
sS'bra, '
p2612
I1
sS'selling '
p2613
I1
sS'ben '
p2614
I1
sS'vanya '
p2615
I1
sS'things '
p2616
I134
sS'go '
p2617
I10
sS'screwed '
p2618
I1
sS'fuzz '
p2619
I1
sS'but '
p2620
I35
sS'anyone '
p2621
I1
sS'too '
p2622
I1
sS'\\u00cb\\u00cb\\u00b9\\u00d2\\u00b2\\u00cf\\u00eb\\u00ca\\u00a7\\u00d2\xc3\xa4\xc3\x96\\u00d8\\u00c0 '
p2623
I1
sS'forwhat '
p2624
I2
sS'have '
p2625
I5
sS'remember '
p2626
I1
sS'boff '
p2627
I1
sS'mmm '
p2628
I1
sS'danlel '
p2629
I1
sS'love '
p2630
I1
sS'evennwhat '
p2631
I1
sS'suppose '
p2632
I1
sS'splendid '
p2633
I1
sS'sure '
p2634
I2
sS'baby '
p2635
I3
sS'enough '
p2636
I2
sS'basically '
p2637
I1
sS'much '
p2638
I2
sS'phillips '
p2639
I1
sS'# '
p2640
I1
sS'from '
p2641
I6
sS'takes '
p2642
I1
sS'ted '
p2643
I2
sS'on '
p2644
I17
sS'shaldre '
p2645
I1
sS'schweiber '
p2646
I1
sS'ooh '
p2647
I1
sS'don '
p2648
I25
sS'serious '
p2649
I1
sS'necessarily '
p2650
I1
sS'was '
p2651
I55
sS'realtor '
p2652
I1
sS'yt\\u00fa '
p2653
I1
sS'rope '
p2654
I1
sS'whaat '
p2655
I1
sS'behind '
p2656
I1
sS'yee- '
p2657
I1
sS'except '
p2658
I2
sS'body '
p2659
I1
sS'give '
p2660
I4
sS'dog '
p2661
I1
sS'bit '
p2662
I3
sS'rewind '
p2663
I1
sS'to '
p2664
I1
sS'hang '
p2665
I1
sS'wh '
p2666
I8
sS'being '
p2667
I1
sS'huh '
p2668
I398
sS'sis '
p2669
I1
sS'coming '
p2670
I3
sS'whhat '
p2671
I2
sS'well '
p2672
I53
sS'crap '
p2673
I1
sS'point '
p2674
I4
sS'tator '
p2675
I1
sS'joking '
p2676
I1
sS'nidal '
p2677
I1
sS'do '
p2678
I45
sS'guys '
p2679
I1
sS'fbi '
p2680
I1
sS'lauren '
p2681
I2
sS'understand '
p2682
I1
sS'hisses '
p2683
I1
sS'damn '
p2684
I2
sS'bishop '
p2685
I1
sS'congratulations '
p2686
I2
sS'lyin '
p2687
I1
sS'taste '
p2688
I6
sS'an '
p2689
I5
sS'screw '
p2690
I1
sS'looking '
p2691
I2
sS'tell '
p2692
I23
sS'ow '
p2693
I1
sS'nice '
p2694
I1
sS'wake '
p2695
I3
sS'see '
p2696
I6
sS'honey '
p2697
I1
sS'* '
p2698
I3
sS'dahlia '
p2699
I1
sS'dajoheunde '
p2700
I1
sS'hands '
p2701
I1
sS'babe '
p2702
I2
sS'saying '
p2703
I1
sS'they '
p2704
I17
sS'sesang '
p2705
I1
sS'not '
p2706
I16
sS'max '
p2707
I2
sS'what- '
p2708
I9
sS'something '
p2709
I2609
sS'gibbs '
p2710
I1
sS'one '
p2711
I57
sS'why\\u2019 '
p2712
I1
sS'knowhat '
p2713
I1
sS'word '
p2714
I9
sS'stomachache '
p2715
I1
sS'knock '
p2716
I1
sS'clerk '
p2717
I1
sS'd '
p2718
I1
sS'kmart '
p2719
I1
sS'hi '
p2720
I3
sS'ge '
p2721
I1
sS'luck '
p2722
I1
sS'uncle '
p2723
I3
sS'whatevert '
p2724
I1
sS'may '
p2725
I1
sS'man '
p2726
I9
sS'another '
p2727
I1
sS'viktor '
p2728
I1
sS'bomb '
p2729
I1
sS'whoo- '
p2730
I1
sS'with '
p2731
I11
sS'run '
p2732
I1
sS'green '
p2733
I1
sS'everythingthat '
p2734
I1
sS'proudly '
p2735
I2
sS'awhat '
p2736
I1
sS'knowwhat '
p2737
I10
sS'vector '
p2738
I1
sS'about '
p2739
I91
sS'saw '
p2740
I2
sS'imagine '
p2741
I1
sS'please '
p2742
I7
sS'would '
p2743
I1
sS'josh '
p2744
I1
sS'base '
p2745
I1
sS'que '
p2746
I7
sS'anything '
p2747
I711
sS'had '
p2748
I3
sS'ain '
p2749
I12
sS'amazing '
p2750
I2
sS'veridian '
p2751
I1
sS'probably '
p2752
I1
sS'bingham '
p2753
I1
sS'bobby '
p2754
I1
sS'ahold '
p2755
I1
sS'sheldon '
p2756
I6
sS'straight '
p2757
I3
sS'wt '
p2758
I2
sS'job '
p2759
I1
sS'salad '
p2760
I1
sS'because '
p2761
I2
sS'anyway '
p2762
I1
sS'figure '
p2763
I1
sS"'sup "
p2764
I1
sS'come '
p2765
I35
sS'roller '
p2766
I1
sS'sexting '
p2767
I1
sS'charlotte '
p2768
I1
sS'stationary '
p2769
I1
sS'stupid '
p2770
I1
sS'wait '
p2771
I26
sS'whatever '
p2772
I1362
sS'kusanagi '
p2773
I1
sS'mind '
p2774
I5
sS'ginger '
p2775
I1
sS'pullthe '
p2776
I1
sS'facing '
p2777
I1
sS'delchewaelrae '
p2778
I1
sS'forgiveness '
p2779
I1
sS'what\\u2019 '
p2780
I13
sS'dana '
p2781
I1
sS'exactly '
p2782
I3
sS'upstairs '
p2783
I1
sS'turkey '
p2784
I1
sS'seriously '
p2785
I3
sS'ex- '
p2786
I1
sS'craftsmanship '
p2787
I1
sS'yep '
p2788
I1
sS'dangereux '
p2789
I1
sS'check '
p2790
I2
sS"'s "
p2791
I1
sS'pierson '
p2792
I1
sS'aboutwhat '
p2793
I1
sS'those '
p2794
I1
sS'way '
p2795
I9
sS'felicia '
p2796
I2
sS'wha\\u009ds '
p2797
I12
sS'kramer '
p2798
I1
sS'wanna '
p2799
I1
sS'desmond '
p2800
I1
sS'want '
p2801
I9
sS'tricky '
p2802
I2
sS'donny '
p2803
I1
sS'harder '
p2804
I1
sS'on, '
p2805
I1
sS'there '
p2806
I20
sS'hey '
p2807
I28
sS"'what "
p2808
I2
sS'fucked '
p2809
I1
sS'chuckles '
p2810
I1
sS'notwhat '
p2811
I2
sS'fucking '
p2812
I4
sS'like '
p2813
I34
sS'jay '
p2814
I1
sS'c '
p2815
I1
sS'beach '
p2816
I1
sS'whatelse '
p2817
I1
sS'geb '
p2818
I1
sS'ven '
p2819
I1
sS'matt '
p2820
I1
sS'okay '
p2821
I21
sS'tried '
p2822
I1
sS'care '
p2823
I1
sS'ask '
p2824
I1
sS'mike '
p2825
I1
sS'mistake '
p2826
I1
sS'will '
p2827
I1
sS'who '
p2828
I216
sS'rachel '
p2829
I1
sS'craig '
p2830
I1
sS"' "
p2831
I6
sS'where '
p2832
I203
sS'mold '
p2833
I1
sS'said '
p2834
I1
sS'lawyer '
p2835
I1
sS'sweater '
p2836
I1
sS'donaghy '
p2837
I1
sS'whatwhatwhatwhat '
p2838
I1
sS'of '
p2839
I2
sS'though '
p2840
I1
sS'look '
p2841
I16
sS'phil '
p2842
I2
sS'whattaya '
p2843
I1
sS"'m "
p2844
I8
sS'dad '
p2845
I2
sS'your '
p2846
I6
sS'happens '
p2847
I2
sS'how '
p2848
I841
sS'ants '
p2849
I1
sS'some '
p2850
I174
sS'rip '
p2851
I1
sS'" '
p2852
I4
sS'tourists '
p2853
I1
sS'can '
p2854
I9
sS'realistically '
p2855
I1
sS'play '
p2856
I1
sS'hello '
p2857
I8
sS'sold '
p2858
I2
sS'simon '
p2859
I2
sS'dai '
p2860
I1
sS'bathroom '
p2861
I1
sS'i '
p2862
I270
sS'bow- '
p2863
I1
sS'part '
p2864
I1
sS'azumi '
p2865
I1
sS'put '
p2866
I1
sS'get '
p2867
I15
sS'jeff '
p2868
I2
sS'eottae '
p2869
I1
sS'shut '
p2870
I1
sS'thing '
p2871
I440
sS'waking '
p2872
I1
sS'which '
p2873
I1001
sS'matter '
p2874
I1
sS'jarvis '
p2875
I1
sS'only '
p2876
I1
sS'kilowatt '
p2877
I1
sS'am '
p2878
I1
sS'money '
p2879
I1
sS'kill '
p2880
I2
sS'bullshit '
p2881
I1
sS'actually '
p2882
I1
sS'god '
p2883
I18
sS'shoes '
p2884
I1
sS'work '
p2885
I7
sS'vaccinated '
p2886
I1
sS'oh, '
p2887
I2
sS'dennis '
p2888
I1
sS'cusick '
p2889
I1
sS'\\u00bf '
p2890
I5
sS'thank '
p2891
I1
sS'pollution '
p2892
I1
sS'personal '
p2893
I1
sS'bad '
p2894
I2
sS'faster '
p2895
I2
sS'opinion '
p2896
I2
sS'dinnertime '
p2897
I1
sS'( '
p2898
I18
sS'sorry '
p2899
I10
sS'reasonable '
p2900
I1
sS'let '
p2901
I15
sS'we '
p2902
I44
sS'ha '
p2903
I1
sS'beaudry '
p2904
I1
sS'statistically, '
p2905
I1
sS'woman '
p2906
I2
sS'rememberwhich '
p2907
I1
sS'totally '
p2908
I4
sS'any '
p2909
I40
sS'fun '
p2910
I1
sS'restricted '
p2911
I1
sS'lattimer '
p2912
I1
sS'mewhat '
p2913
I2
sS'ls '
p2914
I2
sS'fine '
p2915
I8
sS"'ll "
p2916
I2
sS'mutt '
p2917
I1
sS'meaning '
p2918
I1
sS'dissociating '
p2919
I1
sS'second '
p2920
I1
sS'perfect '
p2921
I1
sS'broke '
p2922
I1
sS'just '
p2923
I10
sS'good '
p2924
I9
sS'chuck '
p2925
I1
sS'newspaper '
p2926
I1
sS'\\u00a1 '
p2927
I3
sS'debbie '
p2928
I2
sS'stuff '
p2929
I53
sS'she '
p2930
I27
sS'walter '
p2931
I2
sS'mommy '
p2932
I1
sS'think '
p2933
I3
sS'qu\xc3\xaa '
p2934
I1
sS'vandalism '
p2935
I1
sS'gets '
p2936
I2
sS'nuts '
p2937
I1
sS'geundewae '
p2938
I1
sS'bent '
p2939
I1
sS'mitchell '
p2940
I2
sS'kenneth '
p2941
I1
sS'forget '
p2942
I1
sS'out '
p2943
I2
sS'teii '
p2944
I1
sS'such '
p2945
I3
sS'happen '
p2946
I2
sS'whatyou '
p2947
I3
sS'quite '
p2948
I1
sS'free '
p2949
I1
sS'stop '
p2950
I7
sS'nobody '
p2951
I1
sS'boy '
p2952
I3
sS"'on "
p2953
I1
sS'low '
p2954
I1
sS'now '
p2955
I19
sS'for '
p2956
I31
sS'every '
p2957
I2
sS'jack '
p2958
I5
sS'obviously '
p2959
I1
sS'nothingyou '
p2960
I1
sS'porcelain '
p2961
I1
sS'cancer '
p2962
I1
sS'. '
p2963
I1
sS'ytu '
p2964
I1
sS'playlng '
p2965
I1
sS'tofu '
p2966
I1
sS'why '
p2967
I323
sS'so '
p2968
I62
sS'ah '
p2969
I5
sS'runt '
p2970
I1
sS'doesn '
p2971
I3
sS'shoot '
p2972
I2
sS'excuse '
p2973
I6
sS'birdie '
p2974
I1
sS'you '
p2975
I157
sS'kidding '
p2976
I10
sS'waelrae '
p2977
I1
sS'n- '
p2978
I1
sS'what '
p2979
I62471
sS'loan '
p2980
I1
sS'reckoning '
p2981
I1
sS'door '
p2982
I2
sS'this '
p2983
I54
sS'whats '
p2984
I20
sS'are '
p2985
I10
sS'london '
p2986
I1
sS'miss '
p2987
I1
sS'[ '
p2988
I33
sS'he '
p2989
I37
sS'eh '
p2990
I60
sS'eyes '
p2991
I1
sS'whatcha '
p2992
I13
sS'peter '
p2993
I2
sS'yang '
p2994
I1
sS'toast '
p2995
I1
sS'eventually '
p2996
I1
sS'everybody '
p2997
I1
sS'smile '
p2998
I1
sS'kind '
p2999
I10
sS'ryan '
p3000
I1
sS'-- '
p3001
I1
sS'problem '
p3002
I1
sS'mwoya '
p3003
I1
sS'february '
p3004
I1
sS'fired '
p3005
I1
sS'youcan '
p3006
I1
sS'c\\u2019 '
p3007
I1
sS'cracks '
p3008
I1
sS'hell '
p3009
I7
sS'call '
p3010
I5
sS'jesus '
p3011
I3
sS'odd '
p3012
I1
sS'w- '
p3013
I1
sS'does '
p3014
I4
sS'a '
p3015
I221
sS'ellie '
p3016
I1
sS'again '
p3017
I1
sS'oh '
p3018
I75
sS'whoa '
p3019
I11
sS'jewish '
p3020
I1
sS'pinto '
p3021
I1
sS'michelle '
p3022
I1
sS'\\u0459ta '
p3023
I1
sS'my '
p3024
I16
sS'in '
p3025
I2
sS'wahat '
p3026
I1
sS'atwh '
p3027
I1
sS'rose '
p3028
I2
sS'someone '
p3029
I5
sS'sail '
p3030
I1
sS'news '
p3031
I3
sS'yeah '
p3032
I32
sS'finally '
p3033
I1
sS'edward '
p3034
I1
stp3035
a((lp3036
S'logisch'
p3037
aS'Logisch'
p3038
a(dp3039
S'jonny '
p3040
I1
sS'sweet '
p3041
I1
sS'stonewall '
p3042
I1
sS'do '
p3043
I2
sS'realistic '
p3044
I3
sS'course '
p3045
I2
sS'sense '
p3046
I6
sS'sure '
p3047
I3
sS'obvious '
p3048
I1
sS'logical '
p3049
I13
sS'right '
p3050
I3
sS'stands '
p3051
I1
sS'called '
p3052
I1
sS'obviously '
p3053
I1
sS'guilted '
p3054
I1
sS'whatever '
p3055
I1
sS'l. '
p3056
I1
sS'logically '
p3057
I3
sS'smiling '
p3058
I1
stp3059
a((lp3060
S'sowieso'
p3061
aS'Sowieso'
p3062
a(dp3063
S'regardless '
p3064
I1
sS'matter '
p3065
I1
sS'going '
p3066
I2
sS'gonna '
p3067
I1
sS'happens '
p3068
I1
sS'intention '
p3069
I1
sS'end '
p3070
I1
sS'given '
p3071
I1
sS'meaning '
p3072
I2
sS'obviously '
p3073
I1
sS'heard '
p3074
I1
sS'besides '
p3075
I1
sS'actually '
p3076
I1
sS'well '
p3077
I1
sS'anyways '
p3078
I11
sS'point '
p3079
I6
sS'already '
p3080
I12
sS'do '
p3081
I1
sS"'m "
p3082
I2
sS'really '
p3083
I1
sS'your '
p3084
I1
sS'visit '
p3085
I1
sS'good '
p3086
I4
sS'wouldn '
p3087
I1
sS'anyhow '
p3088
I4
sS'won '
p3089
I5
sS"'ll "
p3090
I1
sS'either '
p3091
I1
sS'anyway '
p3092
I264
sS'even '
p3093
I3
sS'about '
p3094
I1
sS'pointless '
p3095
I1
sS'say '
p3096
I1
sS'anywhere '
p3097
I1
sS'anything '
p3098
I1
sS'helped '
p3099
I1
sS'all '
p3100
I5
sS"'re "
p3101
I2
sS'probably '
p3102
I6
sS'any '
p3103
I2
sS'sooner '
p3104
I1
stp3105
a((lp3106
S'vorgaben'
p3107
aS'Vorgaben'
p3108
a(dp3109
S'obviously '
p3110
I1
sS'procedures '
p3111
I1
sS'specifications '
p3112
I1
sS'requirements '
p3113
I1
sS'pretended '
p3114
I1
stp3115
a((lp3116
S'-'
p3117
aS'-'
p3118
a(dp3119
S'happy '
p3120
I2
sS'sometimes '
p3121
I2
sS'llam '
p3122
I2
sS'1, '
p3123
I2
sS'liar '
p3124
I2
sS'whoever '
p3125
I2
sS'really '
p3126
I10
sS'uh- '
p3127
I28
sS'otherwise '
p3128
I4
sS': '
p3129
I10
sS'talk '
p3130
I2
sS'minus '
p3131
I2
sS'hmm '
p3132
I14
sS'more '
p3133
I2
sS'cease '
p3134
I2
sS'today '
p3135
I4
sS'whoop '
p3136
I2
sS'mark '
p3137
I4
sS'- '
p3138
I223742
sS'her '
p3139
I4
sS'has '
p3140
I2
sS'tommy '
p3141
I4
sS'hush '
p3142
I2
sS'should '
p3143
I4
sS'that '
p3144
I456
sS'juan '
p3145
I2
sS'pretty '
p3146
I4
sS'leave '
p3147
I4
sS'put '
p3148
I8
sS'he- '
p3149
I2
sS'keller '
p3150
I4
sS'say '
p3151
I2
sS'everything '
p3152
I4
sS'when '
p3153
I56
sS'mistress '
p3154
I2
sS'maybe '
p3155
I60
sS'\\u266a '
p3156
I2
sS'here '
p3157
I26
sS'fuck '
p3158
I18
sS'know '
p3159
I2
sS'shades '
p3160
I2
sS'chuck '
p3161
I6
sS'right '
p3162
I14
sS'wh- '
p3163
I2
sS'watch '
p3164
I6
sS'sir '
p3165
I8
sS'lower '
p3166
I2
sS'three '
p3167
I2
sS'shit '
p3168
I6
sS'and '
p3169
I450
sS'nothing '
p3170
I4
sS'take '
p3171
I24
sS'mr. '
p3172
I14
sS'big '
p3173
I4
sS'ahh '
p3174
I2
sS'whlstler '
p3175
I2
sS'gemma '
p3176
I10
sS'until '
p3177
I2
sS'travis '
p3178
I2
sS'keep '
p3179
I4
sS', '
p3180
I4
sS'garland '
p3181
I2
sS'glrl '
p3182
I4
sS'serge '
p3183
I2
sS'subway- '
p3184
I2
sS'mayhew '
p3185
I2
sS'both '
p3186
I2
sS'never '
p3187
I8
sS'ben '
p3188
I4
sS'geek '
p3189
I2
sS'camplzl '
p3190
I2
sS'? '
p3191
I6
sS'soldler '
p3192
I2
sS'aah '
p3193
I6
sS'unh- '
p3194
I2
sS'about '
p3195
I2
sS'hold '
p3196
I12
sS'uh '
p3197
I290
sS'! '
p3198
I2
sS'no '
p3199
I622
sS'good- '
p3200
I2
sS'the '
p3201
I232
sS'ok '
p3202
I26
sS'but '
p3203
I364
sS'shh '
p3204
I4
sS'looks '
p3205
I10
sS'down '
p3206
I2
sS'mom '
p3207
I16
sS'wow '
p3208
I30
sS'did '
p3209
I48
sS'michael '
p3210
I2
sS'then '
p3211
I112
sS'if '
p3212
I64
sS'between '
p3213
I2
sS'also, '
p3214
I2
sS'isn '
p3215
I4
sS'welcome '
p3216
I4
sS'it '
p3217
I940
sS'gloria '
p3218
I2
sS'great '
p3219
I2
sS'todd '
p3220
I2
sS'mm- '
p3221
I12
sS'audrey '
p3222
I2
sS'all '
p3223
I182
sS'our '
p3224
I2
sS'fine '
p3225
I2
sS'by '
p3226
I2
sS'_ '
p3227
I2
sS'tlg '
p3228
I6
sS'got '
p3229
I2
sS'as '
p3230
I8
sS'artie '
p3231
I2
sS'mm '
p3232
I20
sS'or '
p3233
I22
sS'finished '
p3234
I2
sS'could '
p3235
I2
sS'yes '
p3236
I174
sS'is '
p3237
I64
sS'lf '
p3238
I2
sS'listen '
p3239
I46
sS'interesting '
p3240
I2
sS'mnh '
p3241
I2
sS'sergeant '
p3242
I4
sS'ej '
p3243
I2
sS'go '
p3244
I56
sS'tubbs '
p3245
I2
sS'ah, '
p3246
I2
sS'offlcer '
p3247
I2
sS'have '
p3248
I4
sS'mrs. '
p3249
I6
sS'mmm '
p3250
I4
sS'nah '
p3251
I4
sS'i- '
p3252
I50
sS'robert '
p3253
I2
sS'two '
p3254
I2
sS'sure '
p3255
I4
sS'enough '
p3256
I2
sS'frank '
p3257
I6
sS'from '
p3258
I2
sS'ooh '
p3259
I10
sS'don '
p3260
I188
sS'air '
p3261
I6
sS'except '
p3262
I2
sS'leg '
p3263
I2
sS'give '
p3264
I34
sS'truly '
p3265
I4
sS'hang '
p3266
I2
sS'mlck '
p3267
I4
sS'chicken- '
p3268
I2
sS'well '
p3269
I940
sS'aw '
p3270
I14
sS'calvin '
p3271
I2
sS'do '
p3272
I146
sS'understand '
p3273
I2
sS'sweetheart '
p3274
I2
sS'damn '
p3275
I10
sS'cam '
p3276
I2
sS'mr '
p3277
I6
sS'very '
p3278
I12
sS'horror '
p3279
I2
sS'an '
p3280
I2
sS'tell '
p3281
I32
sS'francls '
p3282
I2
sS'nice '
p3283
I16
sS'whatshisname '
p3284
I2
sS'dent '
p3285
I2
sS'* '
p3286
I48
sS'terri '
p3287
I2
sS'enid '
p3288
I2
sS'not '
p3289
I62
sS'max '
p3290
I4
sS'paul '
p3291
I4
sS'yeah '
p3292
I620
sS'one '
p3293
I16
sS'crashlng '
p3294
I2
sS'hi '
p3295
I46
sS'cathy '
p3296
I4
sS'which '
p3297
I10
sS'hanging '
p3298
I2
sS'sofla '
p3299
I4
sS'with '
p3300
I6
sS'suzie '
p3301
I2
sS'ohh '
p3302
I2
sS'ople '
p3303
I2
sS'try '
p3304
I2
sS'quentin '
p3305
I2
sS'kako '
p3306
I2
sS'erlc '
p3307
I4
sS'please '
p3308
I44
sS'would '
p3309
I6
sS'anything '
p3310
I2
sS'cherry '
p3311
I2
sS'men '
p3312
I2
sS'ouch '
p3313
I2
sS'hypothermia '
p3314
I2
sS'# '
p3315
I10
sS'bye '
p3316
I4
sS'miss '
p3317
I2
sS'forty- '
p3318
I2
sS'darcy '
p3319
I2
sS'because '
p3320
I86
sS'come '
p3321
I210
sS'man '
p3322
I54
sS'[ '
p3323
I198
sS'wait '
p3324
I36
sS'kristina '
p3325
I2
sS'\\u2013 '
p3326
I502
sS'anyway '
p3327
I2
sS'exactly '
p3328
I2
sS'after '
p3329
I4
sS'seriously '
p3330
I2
sS'thanks '
p3331
I34
sS'his '
p3332
I12
sS'e- '
p3333
I2
sS'yep '
p3334
I2
sS'no, '
p3335
I12
sS'jessica '
p3336
I2
sS"'s "
p3337
I2
sS'those '
p3338
I2
sS'race '
p3339
I2
sS'nate '
p3340
I4
sS'arise '
p3341
I2
sS'tae '
p3342
I2
sS'lookit '
p3343
I2
sS'now '
p3344
I110
sS'hey '
p3345
I330
sS'division '
p3346
I2
sS'yeah- '
p3347
I2
sS'like '
p3348
I22
sS'see '
p3349
I28
sS'lola '
p3350
I2
sS'dude '
p3351
I2
sS'okay '
p3352
I238
sS'philly '
p3353
I2
sS'ask '
p3354
I6
sS'mike '
p3355
I2
sS'addison '
p3356
I4
sS'who '
p3357
I72
sS'where '
p3358
I82
sS'over '
p3359
I2
sS'monster '
p3360
I2
sS'amy '
p3361
I4
sS'these '
p3362
I2
sS'of '
p3363
I26
sS'look '
p3364
I106
sS'wybie '
p3365
I2
sS'dad '
p3366
I14
sS'your '
p3367
I72
sS'how '
p3368
I210
sS'some '
p3369
I2
sS'" '
p3370
I132
sS'can '
p3371
I28
sS'hello '
p3372
I28
sS'frankenstein '
p3373
I2
sS'i '
p3374
I3120
sS'get '
p3375
I46
sS'sam '
p3376
I2
sS'/ '
p3377
I4
sS'shut '
p3378
I14
sS'i\\u2019 '
p3379
I6
sS'ransom '
p3380
I2
sS'may '
p3381
I4
sS'only '
p3382
I4
sS'joey '
p3383
I2
sS'kill '
p3384
I6
sS'actually '
p3385
I6
sS'god '
p3386
I26
sS'anyways '
p3387
I2
sS'y- '
p3388
I4
sS'oh, '
p3389
I20
sS'this- '
p3390
I2
sS'alr '
p3391
I2
sS'clay '
p3392
I2
sS'call '
p3393
I2
sS'\\u00bf '
p3394
I2
sS'thank '
p3395
I68
sS'.. '
p3396
I2
sS'sleep '
p3397
I2
sS'roger '
p3398
I2
sS'( '
p3399
I370
sS'sorry '
p3400
I8
sS'let '
p3401
I234
sS'quitter '
p3402
I2
sS'we '
p3403
I490
sS'ha '
p3404
I2
sS'tony '
p3405
I4
sS'woman '
p3406
I6
sS'any '
p3407
I6
sS'last '
p3408
I2
sS'sheriff '
p3409
I2
sS'besides '
p3410
I2
sS'just '
p3411
I152
sS'johnny '
p3412
I2
sS'good '
p3413
I56
sS'she '
p3414
I170
sS'pete '
p3415
I12
sS'erm '
p3416
I2
sS'mommy '
p3417
I2
sS'think '
p3418
I4
sS'mary '
p3419
I4
sS'father '
p3420
I2
sS'forget '
p3421
I2
sS'gwen '
p3422
I2
sS'um '
p3423
I68
sS'whom '
p3424
I4
sS'stop '
p3425
I26
sS'nobody '
p3426
I4
sS'shawn '
p3427
I2
sS'kensi '
p3428
I2
sS'alex '
p3429
I2
sS'there '
p3430
I154
sS'for '
p3431
I30
sS'charles '
p3432
I2
sS'morning '
p3433
I2
sS'every '
p3434
I2
sS'jack '
p3435
I10
sS'honey '
p3436
I6
sS'obviously '
p3437
I2
sS'margaret '
p3438
I2
sS'. '
p3439
I58
sS'vous '
p3440
I2
sS'dr. '
p3441
I8
sS'er '
p3442
I4
sS'why '
p3443
I232
sS'so '
p3444
I426
sS'ah '
p3445
I82
sS'ow '
p3446
I6
sS'you '
p3447
I1486
sS'they '
p3448
I134
sS'n- '
p3449
I6
sS'what '
p3450
I874
sS'john '
p3451
I2
sS'this '
p3452
I176
sS'... '
p3453
I358
sS'are '
p3454
I58
sS'freddie '
p3455
I2
sS'geureodajukneundongmul '
p3456
I2
sS'he '
p3457
I290
sS'eh '
p3458
I8
sS'ooh, '
p3459
I4
sS'peter '
p3460
I10
sS'yeah, '
p3461
I4
sS'yo, '
p3462
I4
sS'jax '
p3463
I4
sS'balinor '
p3464
I2
sS'elana '
p3465
I2
sS"' "
p3466
I108
sS'well, '
p3467
I6
sS'ryan '
p3468
I8
sS'-- '
p3469
I3198
sS'anne '
p3470
I2
sS'eddie '
p3471
I4
sS'walter '
p3472
I2
sS'since '
p3473
I6
sS't- '
p3474
I2
sS'andy '
p3475
I2
sS'jesus '
p3476
I14
sS'w- '
p3477
I12
sS'hurry '
p3478
I2
sS'does '
p3479
I12
sS'a '
p3480
I80
sS'planet '
p3481
I2
sS'move '
p3482
I6
sS'oh '
p3483
I1094
sS'whoa '
p3484
I20
sS'terry '
p3485
I2
sS'nicky '
p3486
I2
sS'my '
p3487
I66
sS'in '
p3488
I10
sS'excuse '
p3489
I12
sS'someone '
p3490
I4
sS'yo '
p3491
I4
sS'lamah '
p3492
I2
sS'something '
p3493
I4
sS'lee '
p3494
I2
sS'foster '
p3495
I2
sS'seriously, '
p3496
I2
sS'back '
p3497
I2
stp3498
a((lp3499
S'jeremy'
p3500
aS'Jeremy'
p3501
a(dp3502
S'jeremy '
p3503
I189
sS'jeremy, '
p3504
I5
sS'edgar '
p3505
I1
sS'ok '
p3506
I1
sS'take '
p3507
I1
sS'obviously '
p3508
I1
stp3509
a((lp3510
S'rufst'
p3511
aS'Rufst'
p3512
a(dp3513
S'jailed '
p3514
I1
sS'addisoning '
p3515
I1
sS'are '
p3516
I2
sS'do '
p3517
I1
sS'he/ '
p3518
I1
sS'calls '
p3519
I1
sS'calling '
p3520
I60
sS'don '
p3521
I3
sS'home '
p3522
I1
sS'call '
p3523
I81
sS'called '
p3524
I4
sS'obviously '
p3525
I1
sS'will '
p3526
I1
sS'trust '
p3527
I1
sS'agreement '
p3528
I1
sS'callim '
p3529
I1
stp3530
a((lp3531
S'jeden'
p3532
aS'Jeden'
p3533
a(dp3534
S'one '
p3535
I2
sS'definitely '
p3536
I1
sS'anyone '
p3537
I105
sS'a '
p3538
I2
sS'no '
p3539
I2
sS'everybody '
p3540
I103
sS'bet '
p3541
I1
sS'coming '
p3542
I1
sS'every '
p3543
I1174
sS'anybody '
p3544
I34
sS'obviously '
p3545
I1
sS'everything '
p3546
I5
sS'stood '
p3547
I1
sS'course '
p3548
I2
sS'daily '
p3549
I3
sS'. '
p3550
I1
sS'suddenly '
p3551
I1
sS'always '
p3552
I2
sS'sure '
p3553
I6
sS'know '
p3554
I1
sS'\\u00e2\\u0099\\u00aa '
p3555
I1
sS'apiece '
p3556
I2
sS'worry '
p3557
I1
sS'routine '
p3558
I1
sS'whatever '
p3559
I4
sS'each '
p3560
I92
sS'either '
p3561
I4
sS'so '
p3562
I1
sS'anyway '
p3563
I1
sS'everyone '
p3564
I224
sS'spending '
p3565
I2
sS'spend '
p3566
I1
sS'easily '
p3567
I1
sS'dinnerevery '
p3568
I1
sS'everyday '
p3569
I35
sS'what '
p3570
I1
sS'phone '
p3571
I1
sS'anyday '
p3572
I1
sS'anything '
p3573
I4
sS'all '
p3574
I61
sS'righteous '
p3575
I1
sS'whoever '
p3576
I5
sS'they '
p3577
I1
sS'evey '
p3578
I1
sS'every- '
p3579
I1
sS'any '
p3580
I203
sS'entirely '
p3581
I1
stp3582
a((lp3583
S'tue'
p3584
aS'Tue'
p3585
a(dp3586
S'floor '
p3587
I1
sS'whirring '
p3588
I1
sS'going '
p3589
I1
sS'eliot '
p3590
I1
sS'doing, '
p3591
I1
sS'am '
p3592
I79
sS'jules '
p3593
I1
sS'do, '
p3594
I7
sS'contestant '
p3595
I1
sS'hip '
p3596
I1
sS"'ll "
p3597
I6
sS'husband '
p3598
I1
sS'later '
p3599
I1
sS'put '
p3600
I2
sS'know '
p3601
I1
sS'news, '
p3602
I1
sS'obviously '
p3603
I1
sS'hurt '
p3604
I1
sS'slimy '
p3605
I1
sS'mom '
p3606
I1
sS'perfect '
p3607
I1
sS'pooping '
p3608
I1
sS'sou '
p3609
I2
sS'just '
p3610
I1
sS'did '
p3611
I9
sS'doinng '
p3612
I2
sS'do '
p3613
I623
sS"'m "
p3614
I72
sS'rather '
p3615
I1
sS'make '
p3616
I1
sS'man '
p3617
I1
sS'hers '
p3618
I1
sS'wouldn '
p3619
I1
sS'easy '
p3620
I1
sS'won '
p3621
I5
sS'act '
p3622
I5
sS'if '
p3623
I1
sS'all '
p3624
I1
sS'try '
p3625
I1
sS'aldous '
p3626
I1
sS'oprah '
p3627
I1
sS'doing '
p3628
I175
sS'promise '
p3629
I1
sS"'m- "
p3630
I1
sS'girl, '
p3631
I1
sS'mind '
p3632
I1
sS'thank '
p3633
I1
sS'cos '
p3634
I1
sS'funny '
p3635
I1
sS'\\u00c1breme '
p3636
I1
sS'whoa '
p3637
I1
sS'kids '
p3638
I1
sS'don '
p3639
I43
sS'lord '
p3640
I1
sS'death '
p3641
I1
sS'stopping '
p3642
I1
sS'behaved '
p3643
I1
sS'sorry '
p3644
I1
sS'daddy '
p3645
I1
sS'blond '
p3646
I1
sS'shotgun '
p3647
I1
sS'feels '
p3648
I1
sS'stark '
p3649
I5
sS'-- '
p3650
I1
sS'unemployed '
p3651
I1
sS'pretend '
p3652
I4
sS'gun '
p3653
I1
sS'hang '
p3654
I1
sS'archimedes '
p3655
I2
sS'philanthropist '
p3656
I1
sS'moe '
p3657
I1
sS'not '
p3658
I1
sS'breat '
p3659
I1
sS'will '
p3660
I17
sS'donotdo '
p3661
I2
sS'always '
p3662
I1
sS'french '
p3663
I2
stp3664
a((lp3665
S'wirklich'
p3666
aS'Wirklich'
p3667
a(dp3668
S'definitely '
p3669
I4
sS'crunches '
p3670
I1
sS'concrete '
p3671
I1
sS'stay '
p3672
I1
sS'better '
p3673
I1
sS'devon '
p3674
I1
sS'hardly '
p3675
I2
sS'dunwiddie '
p3676
I1
sS'no '
p3677
I6
sS'certain '
p3678
I3
sS'perfect '
p3679
I1
sS'would '
p3680
I6
sS'sweet '
p3681
I3
sS'hey '
p3682
I2
sS'mean '
p3683
I11
sS'screaming '
p3684
I1
sS'roasted '
p3685
I1
sS'going '
p3686
I1
sS'rubbish '
p3687
I1
sS'actually '
p3688
I252
sS'really, '
p3689
I16
sS'levar '
p3690
I2
sS'calendar '
p3691
I1
sS'nervous '
p3692
I1
sS'booze '
p3693
I1
sS'already '
p3694
I2
sS'did '
p3695
I33
sS'work '
p3696
I1
sS'something '
p3697
I1
sS'then '
p3698
I1
sS'really '
p3699
I7566
sS'true '
p3700
I17
sS'cla '
p3701
I1
sS'palms '
p3702
I1
sS'ready '
p3703
I1
sS'particularly '
p3704
I1
sS'am '
p3705
I6
sS'dead '
p3706
I2
sS'cough '
p3707
I1
sS'truth '
p3708
I2
sS'egypt '
p3709
I1
sS'ihanko '
p3710
I1
sS'swear '
p3711
I4
sS'dearly '
p3712
I1
sS'look '
p3713
I1
sS'realy '
p3714
I4
sS'genuinely '
p3715
I4
sS'sometimes '
p3716
I1
sS'crying '
p3717
I3
sS'cause '
p3718
I1
sS'it '
p3719
I17
sS'surprised '
p3720
I1
sS'about '
p3721
I1
sS'guysaren '
p3722
I1
sS'god '
p3723
I3
sS'sorry '
p3724
I1
sS'tongue '
p3725
I1
sS'ridiculous '
p3726
I1
sS'mustafa '
p3727
I1
sS'anything '
p3728
I2
sS'clearly '
p3729
I2
sS'help '
p3730
I1
sS'all '
p3731
I15
sS'92 '
p3732
I1
sS'badly '
p3733
I1
sS'best '
p3734
I1
sS'than '
p3735
I1
sS'want '
p3736
I1
sS"'re "
p3737
I2
sS'shamy '
p3738
I1
sS'geiss '
p3739
I1
sS'kinda '
p3740
I1
sS'totally '
p3741
I11
sS'reaily '
p3742
I20
sS'any '
p3743
I2
sS'shh '
p3744
I1
sS'mom '
p3745
I2
sS'nathan '
p3746
I1
sS'certainly '
p3747
I3
sS'other '
p3748
I2
sS'a '
p3749
I16
sS'sheldon '
p3750
I1
sS'worth '
p3751
I2
sS'obviously '
p3752
I1
sS'unborn '
p3753
I1
sS'unscheduled '
p3754
I1
sS'job '
p3755
I3
sS'should '
p3756
I2
sS'laughing '
p3757
I1
sS'actually, '
p3758
I3
sS'just '
p3759
I22
sS'because '
p3760
I1
sS'away '
p3761
I1
sS'could '
p3762
I1
sS'that '
p3763
I23
sS'come '
p3764
I3
sS'confident '
p3765
I1
sS'yes '
p3766
I2
sS'good '
p3767
I6
sS'sexed '
p3768
I1
sS'cagey '
p3769
I1
sS'drew '
p3770
I1
sS'pretty '
p3771
I31
sS'woman '
p3772
I2
sS'hlp- '
p3773
I1
sS'is '
p3774
I26
sS'literally '
p3775
I7
sS'melissa '
p3776
I1
sS'even '
p3777
I9
sS'koreatown '
p3778
I1
sS'sharply '
p3779
I1
sS'miniature '
p3780
I1
sS'unfair '
p3781
I1
sS'cos '
p3782
I1
sS'oh '
p3783
I11
sS'universe '
p3784
I1
sS'tequila- '
p3785
I1
sS'exactly '
p3786
I75
sS'think '
p3787
I7
sS'nice '
p3788
I1
sS'incredibly '
p3789
I1
sS'nachos '
p3790
I1
sS'colourful '
p3791
I1
sS'believe '
p3792
I4
sS'say '
p3793
I4
sS'sugar '
p3794
I1
sS'pregnant '
p3795
I2
sS'existed '
p3796
I1
sS'reals '
p3797
I2
sS'honest '
p3798
I8
sS'honestly '
p3799
I33
sS'thanks '
p3800
I1
sS'frankie '
p3801
I1
sS'violence '
p3802
I1
sS'beth '
p3803
I1
sS'food '
p3804
I1
sS'less '
p3805
I1
sS'go '
p3806
I2
sS'happening '
p3807
I1
sS"'s "
p3808
I1
sS'such '
p3809
I6
sS'cadet '
p3810
I1
sS'perfectly '
p3811
I2
sS'telling '
p3812
I2
sS'former '
p3813
I1
sS'meant '
p3814
I2
sS'quite '
p3815
I24
sS'simon '
p3816
I1
sS'way '
p3817
I6
sS'lisbon '
p3818
I1
sS'geez '
p3819
I1
sS'reallywant '
p3820
I2
sS'actual '
p3821
I4
sS'but '
p3822
I4
sS'anyone '
p3823
I1
sS'too '
p3824
I5
sS'anymore '
p3825
I2
sS'makes '
p3826
I1
sS'absolutely '
p3827
I21
sS'have '
p3828
I3
sS'pack '
p3829
I1
sS'butter '
p3830
I1
sS'know '
p3831
I4
sS'ally '
p3832
I1
sS'lifts '
p3833
I1
sS'everything '
p3834
I1
sS'seriously '
p3835
I59
sS'own '
p3836
I1
sS'receptionist '
p3837
I1
sS'be '
p3838
I4
sS'award '
p3839
I1
sS'now '
p3840
I3
sS'remember '
p3841
I1
sS'sure '
p3842
I76
sS'ought '
p3843
I1
sS'right '
p3844
I19
sS'officially '
p3845
I1
sS'gosh '
p3846
I1
sS'jas\\u00e5 '
p3847
I1
sS'enough '
p3848
I1
sS'were '
p3849
I2
sS'captaln '
p3850
I1
sS'why '
p3851
I4
sS'much '
p3852
I10
sS'so '
p3853
I53
sS'addi '
p3854
I1
sS'from '
p3855
I1
sS'like '
p3856
I11
sS'doesn '
p3857
I2
sS'ted '
p3858
I1
sS'on '
p3859
I11
sS'buenos '
p3860
I1
sS'buggy '
p3861
I1
sS'you '
p3862
I53
sS'kidding '
p3863
I3
sS'don '
p3864
I1
sS'serious '
p3865
I6
sS'rude '
p3866
I1
sS'what '
p3867
I6
sS'was '
p3868
I3
sS'hoo '
p3869
I1
sS'% '
p3870
I1
sS'clears '
p3871
I1
sS'this '
p3872
I1
sS'okay '
p3873
I4
sS'are '
p3874
I13
sS'especially '
p3875
I1
sS'yeah '
p3876
I62
sS'shit '
p3877
I4
sS'overlapping '
p3878
I1
sS'grim '
p3879
I1
sS'he '
p3880
I3
sS'mitchell '
p3881
I1
sS'whew '
p3882
I1
sS'outside '
p3883
I1
sS'truly '
p3884
I150
sS'stoop '
p3885
I1
sS'big '
p3886
I3
sS'alright '
p3887
I2
sS'cats '
p3888
I1
sS'mlck '
p3889
I1
sS'grammys '
p3890
I1
sS'gonna '
p3891
I1
sS'huh '
p3892
I1
sS'positive '
p3893
I1
sS'until '
p3894
I1
sS'how '
p3895
I1
sS'hilarious '
p3896
I1
sS'mouth '
p3897
I1
sS'wait '
p3898
I1
sS'kind '
p3899
I3
sS'forthcoming '
p3900
I1
sS'well '
p3901
I8
sS'dreadfully '
p3902
I1
sS"'t "
p3903
I1
sS'though '
p3904
I2
sS'buddy '
p3905
I1
sS'elevator '
p3906
I1
sS'truly, '
p3907
I1
sS'do '
p3908
I74
sS"'m "
p3909
I1
sS'guys '
p3910
I2
sS'-- '
p3911
I1
sS'aziz '
p3912
I1
sS'girlfriend '
p3913
I2
sS'damn '
p3914
I2
sS'bad '
p3915
I1
sS'jesus '
p3916
I1
sS'geugeolhaeyadwae '
p3917
I1
sS'frankly '
p3918
I1
sS'department '
p3919
I1
sS'frigging '
p3920
I1
sS'um '
p3921
I1
sS'does '
p3922
I5
sS'very '
p3923
I148
sS'eally '
p3924
I3
sS'fact '
p3925
I2
sS'can '
p3926
I2
sS'indeed '
p3927
I31
sS'never '
p3928
I1
sS'made '
p3929
I1
sS'lucia '
p3930
I1
sS'lot '
p3931
I5
sS'completely '
p3932
I3
sS'horrible '
p3933
I1
sS'i '
p3934
I18
sS'really- '
p3935
I2
sS'been '
p3936
I1
sS'part '
p3937
I1
sS'168 '
p3938
I1
sS'unhook '
p3939
I1
sS'whoopi '
p3940
I1
sS'get '
p3941
I1
sS'real '
p3942
I305
sS'deeply '
p3943
I1
sS'kill '
p3944
I1
sS'nancy '
p3945
I1
sS'explain '
p3946
I1
sS'reallynothing '
p3947
I1
sS'great '
p3948
I3
sS'not '
p3949
I3
sS'clearer '
p3950
I1
sS'finally '
p3951
I1
sS'realily '
p3952
I1
sS'kiss '
p3953
I1
sS'heart '
p3954
I2
sS'idea '
p3955
I4
sS'entirely '
p3956
I4
stp3957
a((lp3958
S'ja'
p3959
aS'Ja'
p3960
a(dp3961
S'lenny '
p3962
I1
sS'definitely '
p3963
I8
sS'stay '
p3964
I3
sS'united '
p3965
I1
sS'huge '
p3966
I1
sS'almost '
p3967
I1
sS'uhh '
p3968
I1
sS'wehh '
p3969
I2
sS'crezski '
p3970
I1
sS'tyler '
p3971
I1
sS'ouais '
p3972
I1
sS'geureomlgeo '
p3973
I1
sS'really '
p3974
I74
sS'absolutely '
p3975
I6
sS'up '
p3976
I1
sS'happy '
p3977
I1
sS'although '
p3978
I1
sS'mother '
p3979
I4
sS'turn '
p3980
I3
sS'uh- '
p3981
I2
sS'saltwater '
p3982
I1
sS'tote '
p3983
I1
sS'shall '
p3984
I3
sS'buddy '
p3985
I1
sS'everyone '
p3986
I1
sS'talk '
p3987
I1
sS'earlier '
p3988
I1
sS'child '
p3989
I1
sS'hmm '
p3990
I16
sS'phew '
p3991
I1
sS'tomorrow '
p3992
I1
sS'hat '
p3993
I1
sS'weil '
p3994
I4
sS'holy '
p3995
I2
sS'- '
p3996
I156
sS'help '
p3997
I1
sS'married '
p3998
I1
sS'sounds '
p3999
I4
sS'icon '
p4000
I1
sS'cal, '
p4001
I1
sS'suitcase '
p4002
I1
sS'letterhead '
p4003
I1
sS'sex '
p4004
I1
sS'shit '
p4005
I2
sS'else '
p4006
I2
sS'me '
p4007
I15
sS'remission '
p4008
I1
sS'pants '
p4009
I1
sS'somewhere '
p4010
I2
sS'her '
p4011
I2
sS'exact '
p4012
I1
sS'mama '
p4013
I2
sS'roy '
p4014
I1
sS'ha- '
p4015
I1
sS'weird '
p4016
I1
sS'should '
p4017
I1
sS'quiet '
p4018
I1
sS'aren '
p4019
I3
sS'desserts '
p4020
I1
sS'room '
p4021
I1
sS'warrant '
p4022
I1
sS'that '
p4023
I130
sS'make '
p4024
I1
sS'dust '
p4025
I1
sS'****** '
p4026
I1
sS'condom '
p4027
I1
sS'bo '
p4028
I1
sS'thompson '
p4029
I1
sS'understood '
p4030
I2
sS'him '
p4031
I2
sS'ask '
p4032
I1
sS'tigers '
p4033
I1
sS'propyltech '
p4034
I1
sS'wooooh '
p4035
I1
sS'lovely '
p4036
I1
sS'say '
p4037
I3
sS'everything '
p4038
I4
sS'harold '
p4039
I1
sS'madame '
p4040
I1
sS'when '
p4041
I1
sS'maybe '
p4042
I9
sS'reviewing '
p4043
I1
sS'likewise '
p4044
I1
sS'exports '
p4045
I1
sS'celebrate '
p4046
I1
sS'chris '
p4047
I1
sS'assistants '
p4048
I1
sS'must '
p4049
I2
sS'atoms '
p4050
I2
sS'cheerier '
p4051
I1
sS'here '
p4052
I17
sS'share '
p4053
I1
sS'fuck '
p4054
I1
sS'557 '
p4055
I1
sS'cheering '
p4056
I1
sS'yah '
p4057
I8
sS'butterflies '
p4058
I1
sS'bush '
p4059
I1
sS'plney '
p4060
I1
sS's\xc3\xad '
p4061
I3
sS'guess '
p4062
I3
sS'know '
p4063
I83
sS'bring '
p4064
I2
sS'incident '
p4065
I2
sS'logo '
p4066
I1
sS'right '
p4067
I437
sS'debate '
p4068
I1
sS'gosh '
p4069
I2
sS'janine '
p4070
I1
sS'watch '
p4071
I1
sS'sir '
p4072
I2
sS'hard '
p4073
I1
sS'ahye '
p4074
I1
sS'tanya '
p4075
I2
sS'ahead '
p4076
I1
sS'lisbeth '
p4077
I1
sS'beautiful '
p4078
I1
sS'gorgeous '
p4079
I2
sS'mops '
p4080
I1
sS'kurt '
p4081
I1
sS'means '
p4082
I1
sS'wire '
p4083
I3
sS'cute '
p4084
I1
sS'certainly '
p4085
I8
sS'and '
p4086
I2
sS'laughter '
p4087
I1
sS'take '
p4088
I3
sS'mr. '
p4089
I1
sS'big '
p4090
I1
sS'ahh '
p4091
I1
sS'she/ '
p4092
I1
sS'far '
p4093
I3
sS'gas '
p4094
I1
sS'scary '
p4095
I1
sS'zetas '
p4096
I1
sS'guy '
p4097
I1
sS'snap '
p4098
I2
sS'mouth '
p4099
I1
sS'bret '
p4100
I1
sS'precisely '
p4101
I2
sS'trustworthy '
p4102
I1
sS"'t "
p4103
I4
sS'keep '
p4104
I1
sS', '
p4105
I1
sS'bartender '
p4106
I1
sS'around '
p4107
I1
sS'serge '
p4108
I1
sS'axis '
p4109
I1
sS'soviet '
p4110
I1
sS's '
p4111
I3
sS'crumples '
p4112
I1
sS'black '
p4113
I1
sS'waits '
p4114
I1
sS'junior '
p4115
I4
sS'funny '
p4116
I2
sS'listen '
p4117
I4
sS'doublepuke '
p4118
I1
sS'moving '
p4119
I1
sS'mirror '
p4120
I1
sS'hear '
p4121
I7
sS'verona '
p4122
I1
sS'bosses '
p4123
I1
sS'sugarman '
p4124
I1
sS'writer '
p4125
I1
sS'ho '
p4126
I1
sS'oui '
p4127
I3
sS'speak '
p4128
I1
sS'won\\u2019 '
p4129
I1
sS'bentley '
p4130
I1
sS'need '
p4131
I2
sS'si '
p4132
I28
sS'mugging '
p4133
I1
sS'mine '
p4134
I1
sS'still '
p4135
I2
sS'ok, '
p4136
I1
sS'sweet '
p4137
I1
sS'dare '
p4138
I2
sS'da '
p4139
I1
sS'zoe '
p4140
I1
sS'uh '
p4141
I29
sS'y '
p4142
I3
sS'no '
p4143
I93
sS'would '
p4144
I6
sS'ok '
p4145
I61
sS'curfew '
p4146
I1
sS'jeez '
p4147
I1
sS'doc '
p4148
I2
sS'mom '
p4149
I4
sS'broach '
p4150
I1
sS'rings '
p4151
I1
sS'wow '
p4152
I9
sS'zane '
p4153
I1
sS'course '
p4154
I16
sS'already '
p4155
I4
sS'did '
p4156
I43
sS'michael '
p4157
I1
sS'then '
p4158
I12
sS'ready '
p4159
I6
sS'world '
p4160
I2
sS'if '
p4161
I7
sS'martin '
p4162
I1
sS'rock '
p4163
I1
sS'ferrls '
p4164
I3
sS'tahdon '
p4165
I1
sS'look '
p4166
I10
sS'owen '
p4167
I2
sS'fella '
p4168
I1
sS'reddish '
p4169
I1
sS'it '
p4170
I198
sS'operation '
p4171
I2
sS'383 '
p4172
I1
sS'extortion '
p4173
I1
sS'debra '
p4174
I1
sS'moses '
p4175
I1
sS'year '
p4176
I1
sS'mm- '
p4177
I1
sS'dizzy '
p4178
I1
sS'jason '
p4179
I1
sS'all '
p4180
I61
sS'hank '
p4181
I1
sS'our '
p4182
I1
sS'fine '
p4183
I32
sS"'re "
p4184
I4
sS'ledgers '
p4185
I1
sS'house '
p4186
I1
sS'roman '
p4187
I1
sS'correct '
p4188
I3
sS'ldpe '
p4189
I1
sS'got '
p4190
I8
sS'small '
p4191
I1
sS'as '
p4192
I2
sS'denholm '
p4193
I1
sS'jaaa '
p4194
I1
sS'mm '
p4195
I2
sS'aye, '
p4196
I1
sS'finished '
p4197
I1
sS'could '
p4198
I1
sS'bury '
p4199
I1
sS'yes '
p4200
I10458
sS'ye- '
p4201
I3
sS'jimmy '
p4202
I3
sS'is '
p4203
I41
sS'time '
p4204
I6
sS'nine '
p4205
I1
sS'yea '
p4206
I59
sS'even '
p4207
I1
sS'reaction '
p4208
I1
sS'senior '
p4209
I1
sS'mum '
p4210
I1
sS'fruit '
p4211
I1
sS'clink '
p4212
I1
sS'bella '
p4213
I1
sS'ken '
p4214
I3
sS'tricks '
p4215
I1
sS'shepard '
p4216
I1
sS'go '
p4217
I22
sS'hammersmark '
p4218
I1
sS'bags, '
p4219
I1
sS'dear '
p4220
I1
sS'ja '
p4221
I53
sS'veriyor '
p4222
I1
sS'warning '
p4223
I1
sS'orderlng '
p4224
I1
sS'but '
p4225
I13
sS'carson '
p4226
I1
sS'too '
p4227
I5
sS'bob '
p4228
I1
sS'have '
p4229
I6
sS'weeks, '
p4230
I1
sS'twist '
p4231
I1
sS'mmm '
p4232
I1
sS'nah '
p4233
I1
sS'st '
p4234
I1
sS'love '
p4235
I4
sS'idea '
p4236
I3
sS'be '
p4237
I1
sS'marry '
p4238
I3
sS'remember '
p4239
I2
sS'sure '
p4240
I106
sS'baby '
p4241
I3
sS'splashes '
p4242
I1
sS'laughs '
p4243
I6
sS'enough '
p4244
I1
sS'miller '
p4245
I1
sS'ooh '
p4246
I3
sS'don '
p4247
I4
sS'serious '
p4248
I1
sS'evan '
p4249
I1
sS'heh '
p4250
I2
sS'hoo '
p4251
I1
sS'sorta '
p4252
I1
sS'give '
p4253
I1
sS'bit '
p4254
I1
sS'twelve '
p4255
I1
sS'melody '
p4256
I1
sS'you- '
p4257
I1
sS'truly '
p4258
I1
sS'reggie '
p4259
I1
sS'hang '
p4260
I5
sS'maerlon '
p4261
I1
sS'girl '
p4262
I3
sS'avoid '
p4263
I1
sS'wh '
p4264
I1
sS'sheet '
p4265
I1
sS'huh '
p4266
I120
sS'german '
p4267
I1
sS'bet '
p4268
I4
sS'coming '
p4269
I2
sS'wrist '
p4270
I1
sS'hasselhoff '
p4271
I1
sS'fall '
p4272
I1
sS'well '
p4273
I302
sS'aw '
p4274
I1
sS'point '
p4275
I13
sS'397 '
p4276
I1
sS'i, '
p4277
I1
sS'boyfriend '
p4278
I1
sS'do '
p4279
I73
sS'guys '
p4280
I1
sS'understand '
p4281
I7
sS'damn '
p4282
I1
sS'bad '
p4283
I2
sS'window '
p4284
I1
sS'mr '
p4285
I1
sS'on '
p4286
I7
sS'very '
p4287
I9
sS'stall '
p4288
I1
sS'delectable '
p4289
I1
sS'screw '
p4290
I1
sS'tell '
p4291
I2
sS'ow '
p4292
I1
sS'moss '
p4293
I1
sS'nice '
p4294
I4
sS'clicks '
p4295
I1
sS'see '
p4296
I17
sS'honey '
p4297
I2
sS'fast '
p4298
I1
sS'real '
p4299
I2
sS'ride '
p4300
I1
sS'night '
p4301
I1
sS'saying '
p4302
I43
sS'russian '
p4303
I1
sS'paul '
p4304
I1
sS'yeah '
p4305
I18391
sS'one '
p4306
I2
sS'weren '
p4307
I1
sS'wonderful '
p4308
I5
sS'word '
p4309
I1
sS'knock '
p4310
I1
sS'nope '
p4311
I1
sS'hi '
p4312
I5
sS'dipshit '
p4313
I1
sS'mean '
p4314
I7
sS'was '
p4315
I4
sS'wayne '
p4316
I1
sS'mandy '
p4317
I1
sS'nervous '
p4318
I1
sS'white '
p4319
I1
sS'encrypted '
p4320
I1
sS'gotta '
p4321
I1
sS'true '
p4322
I7
sS'officiant '
p4323
I1
sS"'ello "
p4324
I1
sS'truck '
p4325
I2
sS'troopers '
p4326
I1
sS'pooping '
p4327
I1
sS'\\u1ea1 '
p4328
I1
sS'pretty '
p4329
I4
sS'agree '
p4330
I1
sS'z '
p4331
I1
sS'739 '
p4332
I1
sS'please '
p4333
I16
sS'the '
p4334
I6
sS'pass '
p4335
I1
sS'chairman '
p4336
I1
sS'disabled '
p4337
I1
sS'salami '
p4338
I1
sS'anything '
p4339
I1
sS'aye '
p4340
I33
sS'yeahdo '
p4341
I1
sS'apparently '
p4342
I1
sS'cherry '
p4343
I1
sS'mayor '
p4344
I1
sS'tempo '
p4345
I1
sS'crazy '
p4346
I2
sS'probably '
p4347
I3
sS'reaily '
p4348
I1
sS'punch '
p4349
I1
sS'heck '
p4350
I1
sS'# '
p4351
I1
sS'bye '
p4352
I2
sS'ireon '
p4353
I1
sS'job '
p4354
I2
sS'******** '
p4355
I1
sS'elllson '
p4356
I1
sS'conversation '
p4357
I1
sS'laughing '
p4358
I1
sS'because '
p4359
I4
sS'come '
p4360
I18
sS'2 '
p4361
I1
sS'man '
p4362
I7
sS'date '
p4363
I1
sS"'yes "
p4364
I4
sS'he '
p4365
I34
sS'rhode '
p4366
I1
sS'whatever '
p4367
I1
sS'mind '
p4368
I1
sS'anyway '
p4369
I6
sS'drink '
p4370
I2
sS'gross '
p4371
I1
sS'exactly '
p4372
I6
sS'asked '
p4373
I1
sS'si, '
p4374
I4
sS'oohing '
p4375
I1
sS'seriously '
p4376
I2
sS'honestly '
p4377
I1
sS'thanks '
p4378
I3
sS'epsteln '
p4379
I1
sS'huh, '
p4380
I1
sS'tolerance '
p4381
I1
sS'talked '
p4382
I1
sS'sort '
p4383
I1
sS'yep '
p4384
I187
sS'super '
p4385
I1
sS'check '
p4386
I1
sS"'s "
p4387
I19
sS'knee '
p4388
I1
sS'ish '
p4389
I1
sS'draw '
p4390
I1
sS'475 '
p4391
I1
sS'feud '
p4392
I1
sS'picture '
p4393
I1
sS'way '
p4394
I5
sS'armour '
p4395
I1
sS'knew '
p4396
I1
sS"'yeah "
p4397
I1
sS'squirrel '
p4398
I1
sS'sense '
p4399
I1
sS'axl '
p4400
I1
sS'lingo '
p4401
I1
sS'375 '
p4402
I1
sS"'magic "
p4403
I1
sS'hm '
p4404
I3
sS'zeah '
p4405
I1
sS'networker '
p4406
I1
sS'aha '
p4407
I3
sS'there '
p4408
I44
sS'hey '
p4409
I39
sS'won '
p4410
I2
sS'were '
p4411
I1
sS'yeah- '
p4412
I2
sS'fucking '
p4413
I1
sS'like '
p4414
I21
sS'thats '
p4415
I1
sS'rogova '
p4416
I1
sS'tray '
p4417
I1
sS'vampires '
p4418
I1
sS'raphael '
p4419
I1
sS'standing '
p4420
I1
sS'feds '
p4421
I1
sS'yes- '
p4422
I1
sS'dude '
p4423
I1
sS'okay '
p4424
I170
sS'clearly '
p4425
I1
sS'engine '
p4426
I1
sS'enjoy '
p4427
I1
sS'will '
p4428
I41
sS'who '
p4429
I3
sS'ya '
p4430
I33
sS'chart '
p4431
I1
sS'unh '
p4432
I1
sS'\\u00bf '
p4433
I9
sS'positive '
p4434
I2
sS"' "
p4435
I1
sS'no, '
p4436
I1
sS'said '
p4437
I1
sS'cellphone '
p4438
I1
sS'alright '
p4439
I8
sS'386 '
p4440
I1
sS'donaghy '
p4441
I2
sS'evet '
p4442
I2
sS'of '
p4443
I1
sS'though '
p4444
I3
sS'ls '
p4445
I3
sS'nice, '
p4446
I1
sS'moody '
p4447
I1
sS"'m "
p4448
I9
sS'484 '
p4449
I1
sS'dad '
p4450
I4
sS'your '
p4451
I1
sS'away '
p4452
I1
sS'baylin '
p4453
I1
sS'how '
p4454
I12
sS'eyesight '
p4455
I1
sS'some '
p4456
I3
sS'read '
p4457
I1
sS'bands '
p4458
I1
sS'little '
p4459
I4
sS'can '
p4460
I7
sS'sit '
p4461
I1
sS'queenle '
p4462
I1
sS'hello '
p4463
I9
sS'\\u0422\\u0430\\u0443\\u0440\\u0435\\u0442\\u0442\\u0430 '
p4464
I1
sS'chatter '
p4465
I1
sS'i '
p4466
I344
sS'been '
p4467
I1
sS'fake '
p4468
I1
sS'joy '
p4469
I1
sS'neil '
p4470
I1
sS'get '
p4471
I6
sS'sam '
p4472
I1
sS'great '
p4473
I6
sS'cool '
p4474
I6
sS'thing '
p4475
I17
sS'which '
p4476
I1
sS'going '
p4477
I1
sS'seconds '
p4478
I1
sS'only '
p4479
I4
sS'am '
p4480
I12
sS'memories '
p4481
I1
sS'penny '
p4482
I1
sS'250 '
p4483
I1
sS'actually '
p4484
I15
sS'perfect '
p4485
I1
sS'emmanuelle '
p4486
I1
sS'work '
p4487
I1
sS'thousand- '
p4488
I1
sS'oh, '
p4489
I1
sS'cellophane '
p4490
I1
sS'robber '
p4491
I1
sS'themto '
p4492
I1
sS'vd '
p4493
I1
sS'mensches '
p4494
I1
sS"'hare "
p4495
I1
sS'follow '
p4496
I1
sS'freshen '
p4497
I1
sS'mistake '
p4498
I1
sS'question '
p4499
I2
sS'thank '
p4500
I11
sS'ye '
p4501
I8
sS'fact '
p4502
I3
sS'lily '
p4503
I1
sS"'d "
p4504
I1
sS'sim '
p4505
I2
sS'native '
p4506
I1
sS'god '
p4507
I5
sS'sorry '
p4508
I4
sS'grey '
p4509
I1
sS'boelcke '
p4510
I1
sS'let '
p4511
I6
sS'we '
p4512
I27
sS'ha '
p4513
I4
sS'thinkin '
p4514
I1
sS'keeps '
p4515
I2
sS'ohh '
p4516
I2
sS'toilet '
p4517
I1
sS'illusion '
p4518
I1
sS'totally '
p4519
I4
sS'seem '
p4520
I1
sS'999 '
p4521
I1
sS'residence '
p4522
I1
sS'sheriff '
p4523
I1
sS"'ll "
p4524
I1
sS'jump '
p4525
I1
sS'second '
p4526
I1
sS'delinquency '
p4527
I1
sS'gentle '
p4528
I1
sS'just '
p4529
I40
sS'tony '
p4530
I1
sS'women '
p4531
I2
sS'glad '
p4532
I1
sS'badger '
p4533
I1
sS'flammable '
p4534
I1
sS'tara '
p4535
I2
sS'good '
p4536
I33
sS'wouldn '
p4537
I1
sS'crying '
p4538
I1
sS'indeed '
p4539
I13
sS'aldous '
p4540
I1
sS'yeahl '
p4541
I1
sS'castillion '
p4542
I1
sS'she '
p4543
I23
sS'oh '
p4544
I126
sS'512 '
p4545
I1
sS'fuckin '
p4546
I1
sS'marcus '
p4547
I1
sS'hej '
p4548
I1
sS'told '
p4549
I1
sS'yours '
p4550
I1
sS'briefing '
p4551
I1
sS'january '
p4552
I1
sS'snacks '
p4553
I1
sS'promise '
p4554
I1
sS'you/ '
p4555
I1
sS'kenneth '
p4556
I1
sS'mooing '
p4557
I1
sS'such '
p4558
I1
sS'um '
p4559
I8
sS'es '
p4560
I3
sS'quite '
p4561
I8
sS'r\xc3\xa9sum '
p4562
I1
sS'exclalms '
p4563
I1
sS'( '
p4564
I12
sS'now '
p4565
I25
sS'yay '
p4566
I9
sS'eagerly '
p4567
I1
sS'goggles '
p4568
I1
sS'allright '
p4569
I2
sS'my '
p4570
I6
sS'obviously '
p4571
I1
sS'knowso '
p4572
I1
sS'yup '
p4573
I42
sS'heilo '
p4574
I1
sS'long '
p4575
I1
sS'shaun '
p4576
I1
sS'maggie '
p4577
I1
sS'sarah '
p4578
I3
sS'cell '
p4579
I1
sS'8 '
p4580
I1
sS'why '
p4581
I17
sS'drill '
p4582
I2
sS'newton '
p4583
I1
sS'so '
p4584
I168
sS'ah '
p4585
I27
sS'agrees '
p4586
I1
sS'dunlop '
p4587
I1
sS'yesh '
p4588
I4
sS'smell '
p4589
I1
sS'460 '
p4590
I1
sS'you '
p4591
I167
sS'they '
p4592
I14
sS'objects '
p4593
I1
sS'what '
p4594
I70
sS'leads '
p4595
I1
sS'same '
p4596
I2
sS'this '
p4597
I2
sS'terminate '
p4598
I1
sS'are '
p4599
I40
sS'miss '
p4600
I1
sS'trying '
p4601
I5
sS'[ '
p4602
I10
sS'wait '
p4603
I7
sS'eh '
p4604
I16
sS'serbian '
p4605
I1
sS'goanna '
p4606
I1
sS'peter '
p4607
I1
sS'yeah, '
p4608
I473
sS'prepare '
p4609
I1
sS'apricots '
p4610
I1
sS'yes, '
p4611
I139
sS'everybody '
p4612
I1
sS'kind '
p4613
I6
sS'well, '
p4614
I3
sS'ho- '
p4615
I1
sS'424 '
p4616
I1
sS'problem '
p4617
I1
sS'phil '
p4618
I1
sS'ahem '
p4619
I1
sS'unprotected '
p4620
I1
sS'siell\xc3\xa4h\xc3\xa4n '
p4621
I1
sS'excellent '
p4622
I1
sS'jesus '
p4623
I1
sS'mistaking '
p4624
I1
sS'w- '
p4625
I1
sS'hurry '
p4626
I2
sS'not '
p4627
I10
sS'does '
p4628
I11
sS'a '
p4629
I20
sS'again '
p4630
I1
sS'isn '
p4631
I3
sS'whoa '
p4632
I2
sS'snlffles '
p4633
I1
sS'michelle '
p4634
I1
sS'congratulations '
p4635
I1
sS"'hh "
p4636
I1
sS'tequila '
p4637
I1
sS'in '
p4638
I2
sS'lutely '
p4639
I1
sS'unless '
p4640
I1
sS'excuse '
p4641
I4
sS'someone '
p4642
I1
sS'coffee '
p4643
I1
sS'yo '
p4644
I19
sS'stepping '
p4645
I1
sS'something '
p4646
I3
sS'finally '
p4647
I1
sS'foster '
p4648
I1
sS'driver '
p4649
I1
sS'seriously, '
p4650
I1
stp4651
a.