(lp0
((lp1
S'n\xc3\xb6tig'
p2
aS'N\xc3\xb6tig'
p3
a(dp4
S'vineyard '
p5
I1
sS'house '
p6
I1
sS'da '
p7
I1
sS'use '
p8
I4
sS'jilt '
p9
I1
sS'no '
p10
I2
sS'ok '
p11
I1
sS'needs '
p12
I10
sS'alright '
p13
I1
sS'shouldn '
p14
I1
sS'unnecessary '
p15
I8
sS'problem '
p16
I1
sS'dave '
p17
I1
sS'be '
p18
I2
sS'really '
p19
I3
sS'necessary '
p20
I161
sS'due '
p21
I2
sS'smart- '
p22
I1
sS'program '
p23
I1
sS'call '
p24
I1
sS'bad '
p25
I1
sS"'ll "
p26
I1
sS'flowers '
p27
I1
sS'required '
p28
I4
sS'needed '
p29
I27
sS'takes '
p30
I59
sS'arse '
p31
I1
sS'see '
p32
I1
sS'gunnar '
p33
I1
sS'nessessary '
p34
I1
sS'needy '
p35
I1
sS'bother '
p36
I7
sS'done '
p37
I1
sS'okay '
p38
I7
sS'all '
p39
I1
sS'necessary, '
p40
I1
sS'give '
p41
I1
sS'fine '
p42
I6
sS'night '
p43
I1
sS'need '
p44
I95
sS'have '
p45
I29
sS'woman '
p46
I1
sS'requires '
p47
I2
sS'take '
p48
I3
sS'kabul '
p49
I1
sS'to '
p50
I2
sS'private '
p51
I1
sS'yourself '
p52
I1
sS'storm '
p53
I1
stp54
a((lp55
S'notwendig'
p56
aS'Notwendig'
p57
a(dp58
S'required '
p59
I3
sS'needed '
p60
I2
sS'vital '
p61
I1
sS'need '
p62
I22
sS'remodeling '
p63
I1
sS'indicated '
p64
I1
sS'fit '
p65
I1
sS'necessary '
p66
I112
sS'fine '
p67
I1
sS'imperative '
p68
I2
sS'have '
p69
I10
sS'necessarily '
p70
I2
sS'essential '
p71
I1
sS'necessity '
p72
I2
sS'critical '
p73
I1
sS'nicked '
p74
I1
sS'god '
p75
I1
sS'spooge '
p76
I1
stp77
a((lp78
S'sein'
p79
aS'Sein'
p80
a(dp81
S'one '
p82
I4
sS'stay '
p83
I8
sS'the '
p84
I48
sS'around '
p85
I2
sS'rest '
p86
I1
sS'mom '
p87
I1
sS'man '
p88
I8
sS'possible '
p89
I10
sS'host '
p90
I1
sS'work '
p91
I1
sS'then '
p92
I1
sS'detected '
p93
I1
sS'with '
p94
I5
sS'up '
p95
I5
sS'b '
p96
I1
sS'myself '
p97
I2
sS'it '
p98
I30
sS'hmm '
p99
I1
sS'about '
p100
I5
sS'muslims '
p101
I1
sS'anything '
p102
I1
sS'nonsense '
p103
I1
sS'guys '
p104
I1
sS'hate '
p105
I1
sS'jap '
p106
I1
sS'have '
p107
I44
sS'them '
p108
I1
sS'twice '
p109
I1
sS'by '
p110
I15
sS'seem '
p111
I2
sS'else '
p112
I4
sS'me '
p113
I3
sS'difficult '
p114
I1
sS'her '
p115
I4
sS'sein '
p116
I1
sS'end '
p117
I1
sS'as '
p118
I1
sS'should '
p119
I1
sS'become '
p120
I4
sS'nario '
p121
I1
sS'could '
p122
I1
sS'that '
p123
I16
sS'necessary '
p124
I9
sS'good '
p125
I1
sS'carry '
p126
I1
sS"'ll "
p127
I1
sS'their '
p128
I33
sS'is '
p129
I7
sS'time '
p130
I3
sS'mind '
p131
I1
sS'him '
p132
I12
sS'might '
p133
I2
sS'seriously '
p134
I1
sS'his '
p135
I3729
sS'perhaps '
p136
I1
sS'free '
p137
I1
sS'enjoy '
p138
I2
sS'go '
p139
I8
sS'happening '
p140
I1
sS'out '
p141
I3
sS"'s "
p142
I5
sS'happen '
p143
I3
sS'over '
p144
I1
sS'play '
p145
I2
sS'quite '
p146
I1
sS'here '
p147
I8
sS'fellow '
p148
I1
sS'always '
p149
I1
sS'but '
p150
I1
sS'too '
p151
I3
sS'live '
p152
I4
sS'there '
p153
I1
sS'for '
p154
I8
sS'true '
p155
I1
sS'guess '
p156
I3
sS'minutes '
p157
I2
sS'h '
p158
I1
sS'last '
p159
I2
sS'long '
p160
I1
sS'suppose '
p161
I1
sS'. '
p162
I7
sS'be '
p163
I12106
sS'now '
p164
I2
sS'baby '
p165
I2
sS'right '
p166
I1
sS'gosh '
p167
I1
sS'being '
p168
I524
sS'like '
p169
I2
sS'on '
p170
I1
sS'destination '
p171
I2
sS'you '
p172
I8
sS'off '
p173
I10
sS'serious '
p174
I1
sS'they '
p175
I1
sS'church '
p176
I1
sS'what '
p177
I2
sS'was '
p178
I1
sS'friend '
p179
I1
sS'this '
p180
I21
sS'yee- '
p181
I1
sS'are '
p182
I2
sS'us '
p183
I6
sS'later '
p184
I1
sS'miss '
p185
I1
sS'jared '
p186
I1
sS'he '
p187
I40
sS'life '
p188
I3
sS'to '
p189
I14
sS'so '
p190
I4
sS'side '
p191
I1
sS'guy '
p192
I2
sS'bet '
p193
I1
sS'comes '
p194
I1
sS'maureen '
p195
I1
sS'thunder '
p196
I1
sS'possibility '
p197
I1
sS'though '
p198
I1
sS', '
p199
I1
sS'anymore '
p200
I1
sS'do '
p201
I1
sS'dad '
p202
I1
sS'your '
p203
I38
sS'bad '
p204
I1
sS'future '
p205
I2
sS'must '
p206
I2
sS'assumption '
p207
I1
sS'a '
p208
I5
sS'can '
p209
I1
sS'again '
p210
I1
sS'of '
p211
I1
sS'been '
p212
I66
sS'gary '
p213
I1
sS'? '
p214
I1
sS'shall '
p215
I1
sS'way '
p216
I8
sS'hon '
p217
I1
sS'yourself '
p218
I1
sS'gone '
p219
I4
sS'alone '
p220
I3
sS'its '
p221
I54
sS'killed '
p222
I1
sS'interfere '
p223
I1
sS'something '
p224
I8
stp225
a((lp226
S'erforderlich'
p227
aS'Erforderlich'
p228
a(dp229
S'required '
p230
I6
sS'needed '
p231
I2
sS'necessary '
p232
I7
sS'essential '
p233
I1
sS'suya '
p234
I1
stp235
a((lp236
S'notwendiges'
p237
aS'Notwendiges'
p238
a(dp239
S'necessary '
p240
I7
stp241
a((lp242
S'notwendigen'
p243
aS'Notwendigen'
p244
a(dp245
S'necessary '
p246
I6
stp247
a((lp248
S'notwendige'
p249
aS'Notwendige'
p250
a(dp251
S'bobby '
p252
I1
sS'takes '
p253
I1
sS'occuring '
p254
I1
sS'dime '
p255
I1
sS'necessary '
p256
I6
sS'essential '
p257
I1
sS'addic7ed '
p258
I1
sS'proper '
p259
I1
stp260
a((lp261
S'n\xc3\xb6tige'
p262
aS'N\xc3\xb6tige'
p263
a(dp264
S'needed '
p265
I2
sS'provide '
p266
I1
sS'takes '
p267
I3
sS'coaching '
p268
I1
sS'getting '
p269
I1
sS'appropriate '
p270
I1
sS'necessary '
p271
I5
sS'arrangements '
p272
I1
sS'need '
p273
I7
sS'trent '
p274
I1
sS'much- '
p275
I1
stp276
a((lp277
S'm\xc3\xbcssen'
p278
aS'M\xc3\xbcssen'
p279
a(dp280
S'violent '
p281
I1
sS'gotta '
p282
I650
sS'better '
p283
I4
sS'gonna '
p284
I4
sS'places '
p285
I1
sS'really '
p286
I1
sS'got '
p287
I746
sS'w0n '
p288
I1
sS'has '
p289
I9
sS'necessary '
p290
I3
sS'exciting '
p291
I1
sS"'ll "
p292
I17
sS'forced '
p293
I2
sS'have '
p294
I2982
sS'testicles '
p295
I1
sS'shouldn '
p296
I1
sS'should '
p297
I48
sS'supposed '
p298
I10
sS'vanessa '
p299
I1
sS'bob '
p300
I1
sS"'m "
p301
I3
sS'just '
p302
I3
sS'keep '
p303
I1
sS'm\xc3\xbcssen '
p304
I1
sS'afraid '
p305
I1
sS'need '
p306
I2235
sS'fashionable '
p307
I1
sS'do '
p308
I58
sS'clear '
p309
I2
sS'that '
p310
I1
sS'guys '
p311
I1
sS'haven '
p312
I1
sS'make '
p313
I3
sS'understand '
p314
I1
sS'si '
p315
I1
sS'needy '
p316
I1
sS"'re "
p317
I80
sS'is '
p318
I9
sS'time '
p319
I2
sS'already '
p320
I1
sS'fashionably '
p321
I1
sS'does '
p322
I2
sS'needed '
p323
I2
sS'gotto '
p324
I2
sS'can '
p325
I12
sS'press '
p326
I1
sS'find '
p327
I1
sS'owe '
p328
I1
sS'be '
p329
I1
sS'like- '
p330
I1
sS'it '
p331
I1
sS'musthelp '
p332
I1
sS'don '
p333
I4
sS'violet '
p334
I1
sS'ought '
p335
I5
sS'i '
p336
I1
sS'due '
p337
I1
sS'mustn '
p338
I3
sS'also '
p339
I1
sS'expect '
p340
I1
sS"'ve "
p341
I36
sS"'d "
p342
I2
sS'cleared '
p343
I1
sS'stevens '
p344
I1
sS'are '
p345
I31
sS'through '
p346
I1
sS'get '
p347
I13
sS'hurry '
p348
I1
sS'lothario '
p349
I1
sS'go '
p350
I12
sS'job '
p351
I2
sS"'s "
p352
I18
sS'needs '
p353
I7
sS'must '
p354
I1105
sS'not '
p355
I1
sS'choice '
p356
I1
sS'havto '
p357
I1
sS'to '
p358
I167
sS'oughta '
p359
I1
sS'bouncing '
p360
I1
sS'yeah '
p361
I1
stp362
a((lp363
S'n\xc3\xb6tigen'
p364
aS'N\xc3\xb6tigen'
p365
a(dp366
S'manpower '
p367
I1
sS'resct, '
p368
I1
sS'necessary '
p369
I3
sS'due '
p370
I4
sS'proper '
p371
I2
sS'articles '
p372
I1
sS'requisite '
p373
I1
sS'minimum '
p374
I1
sS'disgust '
p375
I1
sS'some '
p376
I1
stp377
a((lp378
S'notwendiger'
p379
aS'Notwendiger'
p380
a(dp381
S'necessary '
p382
I3
stp383
a((lp384
S'undzeigenwollen'
p385
aS'Undzeigenwollen'
p386
a(dp387
S'necessary '
p388
I2
stp389
a((lp390
S'muss'
p391
aS'Muss'
p392
a(dp393
S'better '
p394
I11
sS'am '
p395
I42
sS'would '
p396
I1
sS'uncle '
p397
I1
sS'cannot '
p398
I1
sS'may '
p399
I4
sS'important '
p400
I1
sS'did '
p401
I1
sS'work '
p402
I4
sS'duty '
p403
I1
sS'gotta '
p404
I1301
sS'really '
p405
I2
sS'if '
p406
I4
sS'natural '
p407
I1
sS'makes '
p408
I3
sS'factory '
p409
I1
sS"'ve "
p410
I41
sS'had '
p411
I47
sS'winger '
p412
I1
sS'mustbe '
p413
I1
sS've '
p414
I3
sS'got '
p415
I1239
sS'has '
p416
I699
sS"'ll "
p417
I68
sS'forced '
p418
I1
sS'needs '
p419
I400
sS'hasto '
p420
I1
sS'should '
p421
I73
sS'sapelli '
p422
I1
sS'just '
p423
I8
sS'hissy '
p424
I1
sS'want '
p425
I43
sS'necessary '
p426
I2
sS'make '
p427
I11
sS'goes '
p428
I1
sS'is '
p429
I61
sS'might '
p430
I1
sS'think '
p431
I3
sS'gets '
p432
I3
sS'big '
p433
I1
sS'go '
p434
I8
sS"'s "
p435
I183
sS'must '
p436
I2089
sS'um '
p437
I1
sS'precedent '
p438
I1
sS'whole '
p439
I1
sS'wanna '
p440
I5
sS'treating '
p441
I1
sS'have '
p442
I3145
sS'hey '
p443
I1
sS'know '
p444
I1
sS'jeter '
p445
I1
sS'm '
p446
I3
sS'be '
p447
I5
sS'due '
p448
I3
sS'mistakes '
p449
I1
sS'toofer '
p450
I1
sS'bound '
p451
I3
sS'insist '
p452
I1
sS'needed '
p453
I23
sS'takes '
p454
I11
sS'doesn '
p455
I7
sS'go- '
p456
I1
sS'don '
p457
I14
sS'ought '
p458
I2
sS'was '
p459
I1
sS'same '
p460
I1
sS'basket '
p461
I1
sS'means '
p462
I2
sS'whispers '
p463
I1
sS'wait '
p464
I1
sS'put '
p465
I1
sS'take '
p466
I2
sS'chocolate '
p467
I1
sS'will '
p468
I9
sS'to '
p469
I229
sS'gottaget '
p470
I1
sS'gonna '
p471
I8
sS'needn '
p472
I2
sS"'d "
p473
I14
sS'uld '
p474
I1
sS'research '
p475
I1
sS"'t "
p476
I2
sS'wish '
p477
I1
sS'keep '
p478
I1
sS', '
p479
I9
sS'do '
p480
I184
sS"'m "
p481
I195
sS'does '
p482
I50
sS'owe '
p483
I1
sS'can '
p484
I37
sS'see '
p485
I1
sS'ggot '
p486
I1
sS'itas '
p487
I1
sS'leaves '
p488
I1
sS'get '
p489
I5
sS'need '
p490
I2122
sS'not '
p491
I1
sS'jules '
p492
I1
sS'something '
p493
I3
stp494
a((lp495
S'erforderliche'
p496
aS'Erforderliche'
p497
a(dp498
S'required '
p499
I2
sS'necessary '
p500
I2
stp501
a((lp502
S'preis'
p503
aS'Preis'
p504
a(dp505
S'prize '
p506
I62
sS'award '
p507
I39
sS'price '
p508
I290
sS'no '
p509
I2
sS'reward '
p510
I2
sS'forthat '
p511
I1
sS'faciai '
p512
I1
sS'numbers '
p513
I1
sS'cost '
p514
I40
sS'boop '
p515
I1
sS'deal '
p516
I2
sS'via '
p517
I1
sS'necessary '
p518
I2
sS'away '
p519
I1
sS'prrice '
p520
I1
sS'place '
p521
I1
sS'charge '
p522
I1
sS'banter '
p523
I1
sS'costs '
p524
I16
sS'takes '
p525
I1
sS'sucky '
p526
I1
sS'awards '
p527
I1
sS'revealed '
p528
I1
sS'important '
p529
I1
sS'winner '
p530
I1
sS'anything '
p531
I1
sS'price, '
p532
I2
sS'rate '
p533
I5
sS'tip '
p534
I1
sS'odds '
p535
I1
sS'veronica '
p536
I1
sS'free '
p537
I3
stp538
a((lp539
S'n\xc3\xb6ten'
p540
aS'N\xc3\xb6ten'
p541
a(dp542
S'advanced '
p543
I1
sS'distress- '
p544
I1
sS'specifications '
p545
I1
sS'distress '
p546
I4
sS'necessary '
p547
I2
stp548
a((lp549
S'ausweisnummer'
p550
aS'Ausweisnummer'
p551
a(dp552
S'necessary '
p553
I2
stp554
a((lp555
S'diskussion'
p556
aS'Diskussion'
p557
a(dp558
S'course '
p559
I1
sS'talk '
p560
I1
sS'bargain '
p561
I1
sS'argument '
p562
I4
sS'discussing '
p563
I1
sS'yep '
p564
I1
sS'discussion '
p565
I63
sS'necessary '
p566
I1
sS'discussions '
p567
I1
sS'william '
p568
I1
sS'consideration '
p569
I4
sS'more '
p570
I1
sS'nowhere '
p571
I1
sS'debate '
p572
I4
sS'i '
p573
I1
sS'conversation '
p574
I6
sS'forum '
p575
I3
sS'argue '
p576
I2
sS'negociating '
p577
I2
sS'arguing '
p578
I1
stp579
a((lp580
S'musst'
p581
aS'Musst'
p582
a(dp583
S'but '
p584
I1
sS'better '
p585
I2
sS'wakefield '
p586
I1
sS'gonna '
p587
I2
sS'needn '
p588
I2
sS'got '
p589
I412
sS'no '
p590
I2
sS'shan '
p591
I1
sS'jane '
p592
I1
sS'have '
p593
I1757
sS'takes '
p594
I1
sS'shouldn '
p595
I7
sS'measure '
p596
I2
sS'weird '
p597
I2
sS'should '
p598
I22
sS'-- '
p599
I1
sS'firing '
p600
I1
sS'course '
p601
I1
sS'just '
p602
I5
sS'keep '
p603
I3
sS'name '
p604
I1
sS', '
p605
I2
sS'ttell '
p606
I1
sS'want '
p607
I4
sS'do '
p608
I42
sS'gotta '
p609
I491
sS'necessary '
p610
I1
sS'neverhave '
p611
I1
sS'make '
p612
I5
sS'vomits '
p613
I1
sS'salim '
p614
I1
sS'won '
p615
I2
sS'treat '
p616
I1
sS'tom '
p617
I1
sS"'re "
p618
I42
sS'cr\xc3\xa8me '
p619
I1
sS'is '
p620
I2
sS'pick '
p621
I1
sS'belong '
p622
I2
sS'needed '
p623
I6
sS'can '
p624
I5
sS'listen '
p625
I1
sS'might '
p626
I2
sS'hurts '
p627
I1
sS'don '
p628
I31
sS"'t "
p629
I1
sS"'ight "
p630
I1
sS'tilly '
p631
I1
sS'please '
p632
I1
sS'ought '
p633
I1
sS'tires '
p634
I1
sS'mustn '
p635
I2
sS'declan '
p636
I1
sS'win '
p637
I1
sS'lie '
p638
I1
sS'bop '
p639
I3
sS"'ve "
p640
I6
sS'unless '
p641
I2
sS'know, '
p642
I1
sS'perrier '
p643
I1
sS'could '
p644
I2
sS'are '
p645
I3
sS"'ll "
p646
I3
sS'get '
p647
I6
sS'mr '
p648
I1
sS'possessions '
p649
I1
sS'jeff '
p650
I1
sS'go '
p651
I2
sS'mustbe '
p652
I1
sS'learn '
p653
I3
sS'need '
p654
I1172
sS'springfield '
p655
I1
sS'must '
p656
I564
sS'put '
p657
I3
sS'camera '
p658
I1
sS'will '
p659
I5
sS'to '
p660
I87
sS'yourself '
p661
I1
stp662
a((lp663
S'unerl\xc3\xa4sslisch'
p664
aS'Unerl\xc3\xa4sslisch'
p665
a(dp666
S'necessary '
p667
I1
stp668
a((lp669
S'\xc3\xbcberfl\xc3\xbcssig'
p670
aS'\xc3\xbcberfl\xc3\xbcssig'
p671
a(dp672
S'elephants '
p673
I2
sS'face '
p674
I2
sS'raj '
p675
I2
sS'necessary '
p676
I2
sS'surplus '
p677
I2
sS'need '
p678
I2
sS'futile '
p679
I2
sS'superfluous '
p680
I6
sS'disposable '
p681
I2
sS'unnecessary '
p682
I2
sS'redundant '
p683
I6
stp684
a((lp685
S'dringender'
p686
aS'Dringender'
p687
a(dp688
S'priority '
p689
I1
sS'urgent '
p690
I4
sS'more '
p691
I7
sS'necessary '
p692
I1
stp693
a((lp694
S'besuch'
p695
aS'Besuch'
p696
a(dp697
S'visitor '
p698
I36
sS'today '
p699
I1
sS'house '
p700
I1
sS'company '
p701
I28
sS'coming '
p702
I8
sS'invite '
p703
I1
sS'visit '
p704
I161
sS'delivering '
p705
I1
sS'look '
p706
I1
sS'visita '
p707
I3
sS"'m "
p708
I1
sS'giving '
p709
I1
sS'trip '
p710
I1
sS'come '
p711
I2
sS'malian '
p712
I1
sS'call '
p713
I1
sS'24 '
p714
I1
sS'guest '
p715
I2
sS'check '
p716
I1
sS'it '
p717
I1
sS'excalibur '
p718
I1
sS'necessary '
p719
I1
sS'see '
p720
I7
sS'someone '
p721
I3
sS'fun '
p722
I1
sS'over '
p723
I4
sS'guests '
p724
I2
sS'door '
p725
I1
sS'visitors '
p726
I25
sS'visiting '
p727
I30
sS'okay '
p728
I1
sS'visitation '
p729
I2
sS'hallie '
p730
I1
sS'attire '
p731
I1
sS'friends '
p732
I1
sS'visits '
p733
I1
stp734
a((lp735
S'brauchst'
p736
aS'Brauchst'
p737
a(dp738
S'but '
p739
I1
sS'istaking '
p740
I1
sS'got '
p741
I1
sS'use '
p742
I6
sS'give '
p743
I1
sS'new '
p744
I1
sS'for '
p745
I1
sS'diversity '
p746
I1
sS'until '
p747
I1
sS'??? '
p748
I1
sS'besoin '
p749
I1
sS"'ll "
p750
I5
sS'have '
p751
I15
sS'takes '
p752
I3
sS'shouldn '
p753
I2
sS'allowed '
p754
I1
sS'walt '
p755
I1
sS'should '
p756
I2
sS'chels '
p757
I1
sS'nah '
p758
I1
sS'recon '
p759
I1
sS'needs '
p760
I3
sS'must '
p761
I2
sS', '
p762
I1
sS'do '
p763
I8
sS'gotta '
p764
I9
sS'suave '
p765
I1
sS'necessary '
p766
I1
sS'redheaded '
p767
I1
sS'using '
p768
I1
sS'won '
p769
I5
sS'roger '
p770
I1
sS'you '
p771
I1
sS'flowing '
p772
I1
sS"'re "
p773
I3
sS'rest '
p774
I1
sS'don\\u2019 '
p775
I1
sS'mind '
p776
I1
sS'needed '
p777
I22
sS'nees '
p778
I1
sS'owe '
p779
I1
sS'can '
p780
I6
sS'fancy '
p781
I2
sS'backup '
p782
I3
sS'is '
p783
I1
sS'might '
p784
I1
sS'need, '
p785
I2
sS'need- '
p786
I1
sS'inspiration '
p787
I1
sS'don '
p788
I57
sS'discard '
p789
I1
sS'hung '
p790
I1
sS'bagel '
p791
I1
sS'withthat '
p792
I1
sS'mustn '
p793
I1
sS'billion '
p794
I1
sS'fascination '
p795
I2
sS'let '
p796
I1
sS'20 '
p797
I1
sS'taking '
p798
I3
sS'are '
p799
I7
sS'all '
p800
I1
sS'get '
p801
I9
sS'careful '
p802
I1
sS'needing '
p803
I5
sS'yo '
p804
I1
sS'need '
p805
I1029
sS'want '
p806
I30
sS'without '
p807
I1
sS'take '
p808
I3
sS'needa '
p809
I1
sS'to '
p810
I1
sS'pieces '
p811
I1
sS'striped '
p812
I1
stp813
a((lp814
S'unbedingt'
p815
aS'Unbedingt'
p816
a(dp817
S'definitely '
p818
I5
sS'determined '
p819
I3
sS'too '
p820
I1
sS'wanna '
p821
I1
sS'dying '
p822
I4
sS'insisted '
p823
I1
sS'imperative '
p824
I2
sS'desperately '
p825
I1
sS'beers '
p826
I1
sS'meet '
p827
I1
sS'actually '
p828
I1
sS'begged '
p829
I2
sS'because '
p830
I3
sS'must '
p831
I1
sS'at '
p832
I1
sS'insists '
p833
I1
sS'really '
p834
I30
sS'absolutely '
p835
I18
sS'strongly '
p836
I1
sS'come '
p837
I2
sS'forcing '
p838
I1
sS'particularly '
p839
I2
sS'technically '
p840
I1
sS'desperate '
p841
I6
sS'gasping '
p842
I1
sS'keen '
p843
I1
sS'baffles '
p844
I1
sS'smited '
p845
I1
sS'much '
p846
I7
sS'so '
p847
I1
sS'she '
p848
I1
sS'uh '
p849
I1
sS'bad '
p850
I10
sS'exactly '
p851
I17
sS'cool '
p852
I5
sS'minus '
p853
I1
sS'anxious '
p854
I1
sS'necessary '
p855
I1
sS'should '
p856
I2
sS'necessarily '
p857
I51
sS'please '
p858
I1
sS'in '
p859
I1
sS'eager '
p860
I2
sS'important '
p861
I1
sS'means '
p862
I5
sS'let '
p863
I1
sS'reaily '
p864
I1
sS'badly '
p865
I5
sS'fine '
p866
I1
sS'need '
p867
I2
sS'wait '
p868
I1
sS'basement '
p869
I1
sS'amazing '
p870
I1
sS'quite '
p871
I1
sS'andy '
p872
I1
sS'to '
p873
I23
sS'insist '
p874
I2
sS'fuck '
p875
I1
sS'entirely '
p876
I1
stp877
a((lp878
S'auslauf'
p879
aS'Auslauf'
p880
a(dp881
S'run '
p882
I1
sS'backyard '
p883
I1
sS'walk '
p884
I1
sS'necessary '
p885
I1
stp886
a((lp887
S'vonn\xc3\xb6ten'
p888
aS'Vonn\xc3\xb6ten'
p889
a(dp890
S'needed '
p891
I2
sS'necessary '
p892
I1
stp893
a((lp894
S'gerne'
p895
aS'Gerne'
p896
a(dp897
S'glad '
p898
I11
sS'happy '
p899
I49
sS'would '
p900
I7
sS'kinda '
p901
I1
sS'course '
p902
I6
sS'smashing '
p903
I1
sS'delighted '
p904
I2
sS'breathlng '
p905
I1
sS'really '
p906
I2
sS'ready '
p907
I1
sS'pleasure '
p908
I10
sS'try '
p909
I1
sS'lo- '
p910
I1
sS'thank '
p911
I3
sS'iikes '
p912
I1
sS'talk '
p913
I1
sS'welcome '
p914
I40
sS'center '
p915
I2
sS'advertise '
p916
I1
sS'please '
p917
I7
sS'offer '
p918
I2
sS'all '
p919
I1
sS'badly '
p920
I2
sS'fine '
p921
I1
sS'have '
p922
I3
sS'totally '
p923
I1
sS'by '
p924
I1
sS'trouble '
p925
I1
sS'hate '
p926
I1
sS"'ll "
p927
I4
sS'desire '
p928
I1
sS'liketo '
p929
I2
sS'mention '
p930
I1
sS'could '
p931
I2
sS'necessary '
p932
I1
sS'barking '
p933
I1
sS'yes '
p934
I2
sS'good '
p935
I3
sS'mind '
p936
I2
sS'younger '
p937
I1
sS'surmising '
p938
I1
sS'thanks '
p939
I1
sS'midnight '
p940
I1
sS'enjoyed '
p941
I3
sS'enjoy '
p942
I11
sS'go '
p943
I1
sS'liked '
p944
I26
sS'free '
p945
I1
sS'be '
p946
I5
sS'agreed '
p947
I1
sS'attached '
p948
I1
sS'loved '
p949
I6
sS'wanna '
p950
I11
sS'want '
p951
I46
sS'likes '
p952
I43
sS'appreciate '
p953
I2
sS'love '
p954
I163
sS'wants '
p955
I2
sS'always '
p956
I3
sS'sure '
p957
I15
sS'rather '
p958
I1
sS'loves '
p959
I1
sS'interested '
p960
I3
sS'like '
p961
I909
sS'round '
p962
I1
sS'ahead '
p963
I3
sS'wondering '
p964
I2
sS'nucky '
p965
I1
sS'eagles '
p966
I1
sS'keen '
p967
I2
sS'means '
p968
I1
sS'certainly '
p969
I2
sS'care '
p970
I1
sS'nothing '
p971
I1
sS'take '
p972
I3
sS'will '
p973
I2
sS'to '
p974
I75
sS'fain '
p975
I1
sS'much '
p976
I15
sS'happily '
p977
I4
sS'working '
p978
I1
sS'carrots '
p979
I1
sS'dying '
p980
I1
sS"'d "
p981
I5
sS'bet '
p982
I1
sS'problem '
p983
I2
sS'wish '
p984
I6
sS'do '
p985
I6
sS'willing '
p986
I4
sS'prefer '
p987
I1
sS'oh '
p988
I1
sS'spend '
p989
I1
sS'anytime '
p990
I1
sS'nice '
p991
I1
sS'chooses '
p992
I2
sS'thing '
p993
I1
sS'get '
p994
I1
sS'wanted '
p995
I4
sS'need '
p996
I2
sS'great '
p997
I1
sS'not '
p998
I7
sS'gladly '
p999
I13
sS'yeah '
p1000
I2
stp1001
a((lp1002
S'brauchen'
p1003
aS'Brauchen'
p1004
a(dp1005
S'ain '
p1006
I1
sS'must '
p1007
I5
sS'may '
p1008
I1
sS'uh '
p1009
I1
sS'use '
p1010
I69
sS'needn '
p1011
I2
sS'emme '
p1012
I1
sS'got '
p1013
I5
sS'jemaine '
p1014
I1
sS'needsome '
p1015
I1
sS"'ll "
p1016
I1
sS'have '
p1017
I41
sS'bring '
p1018
I2
sS'should '
p1019
I7
sS'doorbell '
p1020
I1
sS'opera '
p1021
I1
sS'needs '
p1022
I11
sS'takes '
p1023
I5
sS'thank '
p1024
I1
sS'need '
p1025
I2711
sS'do '
p1026
I11
sS'gotta '
p1027
I4
sS'there '
p1028
I1
sS'necessary '
p1029
I1
sS'find '
p1030
I1
sS'require '
p1031
I7
sS'using '
p1032
I1
sS'worry '
p1033
I2
sS'without '
p1034
I1
sS'is '
p1035
I3
sS'it '
p1036
I1
sS'why '
p1037
I1
sS'neeed '
p1038
I1
sS'does '
p1039
I1
sS'needed '
p1040
I27
sS'requesting '
p1041
I2
sS'can '
p1042
I9
sS'requiring '
p1043
I1
sS'need, '
p1044
I1
sS'don '
p1045
I18
sS'anything '
p1046
I1
sS'network '
p1047
I1
sS'tomorrow '
p1048
I1
sS'what '
p1049
I1
sS'case '
p1050
I1
sS'air '
p1051
I1
sS'ordered '
p1052
I1
sS'taking '
p1053
I3
sS'help '
p1054
I2
sS'are '
p1055
I3
sS'get '
p1056
I10
sS"'s "
p1057
I9
sS'needing '
p1058
I23
sS'wanted '
p1059
I2
sS'sara '
p1060
I1
sS'want '
p1061
I14
sS"'re "
p1062
I12
sS'put '
p1063
I2
sS'take '
p1064
I49
sS'yorker '
p1065
I1
sS'to '
p1066
I1
sS'morgana '
p1067
I1
sS'be '
p1068
I2
stp1069
a((lp1070
S'wahrscheinlich'
p1071
aS'Wahrscheinlich'
p1072
a(dp1073
S'probablyjust '
p1074
I1
sS'oppenheimer '
p1075
I1
sS'js '
p1076
I1
sS'may '
p1077
I15
sS'frogs '
p1078
I1
sS'wintersgill '
p1079
I1
sS'sister '
p1080
I1
sS': '
p1081
I1
sS'reckon '
p1082
I2
sS'convince '
p1083
I1
sS'guess '
p1084
I12
sS'probabhy '
p1085
I2
sS'obviously '
p1086
I2
sS'likely '
p1087
I68
sS'tombstone '
p1088
I1
sS'uglies '
p1089
I1
sS'chance '
p1090
I1
sS'already '
p1091
I2
sS'shot '
p1092
I1
sS'possible '
p1093
I2
sS'racist '
p1094
I1
sS'be '
p1095
I2
sS'approximately '
p1096
I1
sS'that '
p1097
I4
sS'necessary '
p1098
I1
sS'lines '
p1099
I1
sS'sure '
p1100
I3
sS'suppose '
p1101
I3
sS'watches '
p1102
I1
sS'fill '
p1103
I1
sS'mm '
p1104
I1
sS'stupid '
p1105
I1
sS'propably '
p1106
I1
sS'eventually '
p1107
I3
sS'truth '
p1108
I1
sS'doing '
p1109
I1
sS'pony '
p1110
I1
sS'yes '
p1111
I1
sS'chances '
p1112
I7
sS'maybe '
p1113
I12
sS'it '
p1114
I5
sS'might '
p1115
I24
sS'supposedly '
p1116
I1
sS'they '
p1117
I1
sS'think '
p1118
I9
sS'i '
p1119
I2
sS'white '
p1120
I1
sS'when '
p1121
I1
sS'- '
p1122
I1
sS'wasprobably '
p1123
I1
sS'possibly '
p1124
I10
sS'perhaps '
p1125
I1
sS'apparently '
p1126
I1
sS'gone '
p1127
I1
sS'probable '
p1128
I3
sS'odds '
p1129
I1
sS'wanted '
p1130
I1
sS'awful '
p1131
I1
sS'odds- '
p1132
I1
sS'must '
p1133
I9
sS'possibility '
p1134
I1
sS'probably '
p1135
I1050
sS'wamapoke '
p1136
I1
sS'yeah '
p1137
I1
stp1138
a((lp1139
S'unabwendbar'
p1140
aS'Unabwendbar'
p1141
a(dp1142
S'necessary '
p1143
I1
sS'inevitable '
p1144
I1
stp1145
a((lp1146
S'so'
p1147
aS'So'
p1148
a(dp1149
S'son '
p1150
I2
sS'feel '
p1151
I8
sS'matter '
p1152
I2
sS'dare '
p1153
I1
sS'going '
p1154
I2
sS'its '
p1155
I2
sS'only '
p1156
I1
sS'happy '
p1157
I2
sS'hardly '
p1158
I4
sS'violent '
p1159
I1
sS'no '
p1160
I16
sS'ever '
p1161
I3
sS'the '
p1162
I90
sS'hi '
p1163
I1
sS'ok '
p1164
I12
sS'honey '
p1165
I3
sS'style '
p1166
I1
sS'mean '
p1167
I4
sS'your '
p1168
I7
sS'looks '
p1169
I4
sS'procedure '
p1170
I1
sS'down '
p1171
I5
sS'rule '
p1172
I1
sS'perfect '
p1173
I1
sS'wow '
p1174
I1
sS'man '
p1175
I2
sS'reason '
p1176
I14
sS'did '
p1177
I4
sS'uh '
p1178
I1
sS'something '
p1179
I340
sS'then '
p1180
I29
sS'ladies '
p1181
I1
sS'really '
p1182
I72
sS'true '
p1183
I19
sS'up '
p1184
I8
sS'full '
p1185
I2
sS'housing '
p1186
I1
sS'seen '
p1187
I3
sS'iike '
p1188
I4
sS'if '
p1189
I9
sS'george '
p1190
I1
sS'things '
p1191
I7
sS'varies '
p1192
I1
sS'listen '
p1193
I2
sS'either '
p1194
I2
sS'pretending '
p1195
I24
sS'lacy '
p1196
I1
sS'spectacular '
p1197
I1
sS'nothin '
p1198
I1
sS'look '
p1199
I7
sS'sorta '
p1200
I1
sS'sometimes '
p1201
I1
sS'fact '
p1202
I2
sS'happened '
p1203
I4
sS'cock '
p1204
I1
sS'it '
p1205
I454
sS'almost '
p1206
I2
sS'anything '
p1207
I49
sS'more '
p1208
I12
sS'iooks '
p1209
I1
sS'geujase '
p1210
I1
sS'nothing '
p1211
I3
sS"'bout "
p1212
I1
sS'( '
p1213
I2
sS'seem '
p1214
I3
sS'sage, '
p1215
I1
sS'taels '
p1216
I1
sS"'ve "
p1217
I1
sS'we '
p1218
I8
sS'mark '
p1219
I1
sS'- '
p1220
I17
sS'all '
p1221
I184
sS'had '
p1222
I2
sS'our '
p1223
I1
sS'best '
p1224
I1
sS'enter '
p1225
I1
sS'\\u041e\\u0442\\u043b\\u0438\\u0447\\u043d\\u043e '
p1226
I1
sS'guess '
p1227
I2
sS"'re "
p1228
I2
sS'them '
p1229
I2
sS'kinda '
p1230
I1
sS'totally '
p1231
I5
sS'along '
p1232
I5
sS'never '
p1233
I1
sS'oh, '
p1234
I1
sS'by '
p1235
I1
sS'fun '
p1236
I1
sS'grunt '
p1237
I1
sS'other '
p1238
I1
sS'me '
p1239
I2
sS'correct '
p1240
I4
sS'a '
p1241
I64
sS'getting '
p1242
I2
sS'somewhere '
p1243
I1
sS'new '
p1244
I1
sS'arrghh '
p1245
I1
sS'hermannstadt '
p1246
I1
sS'forbid '
p1247
I1
sS'thuus '
p1248
I1
sS'small '
p1249
I2
sS'as '
p1250
I1754
sS'sood '
p1251
I1
sS'similar '
p1252
I2
sS'type '
p1253
I1
sS'an '
p1254
I2
sS'rhythm '
p1255
I1
sS'or '
p1256
I1
sS'lf '
p1257
I1
sS'dressed '
p1258
I1
sS'just '
p1259
I249
sS'because '
p1260
I4
sS'anyway '
p1261
I10
sS'at '
p1262
I13
sS'heavensh '
p1263
I1
sS'that '
p1264
I3207
sS'come '
p1265
I10
sS'motherfucker '
p1266
I1
sS'yes '
p1267
I11
sS'good '
p1268
I11
sS'goes '
p1269
I1
sS'pretty '
p1270
I2
sS'weshouldput '
p1271
I1
sS'is '
p1272
I2
sS'time '
p1273
I1
sS'thus '
p1274
I14
sS'dove '
p1275
I2
sS'even '
p1276
I10
sS'gaby '
p1277
I1
sS'doing '
p1278
I16
sS'stuff '
p1279
I61
sS'hooray '
p1280
I1
sS'she '
p1281
I10
sS'skyler '
p1282
I1
sS'brilliant '
p1283
I1
sS'exactly '
p1284
I18
sS'cal '
p1285
I1
sS'deal '
p1286
I1
sS'say '
p1287
I6
sS'everything '
p1288
I27
sS'big '
p1289
I5
sS'dead '
p1290
I2
sS'sort '
p1291
I42
sS'j\xc3\x84ger '
p1292
I1
sS'less '
p1293
I4
sS'go '
p1294
I30
sS'happening '
p1295
I1
sS'gig '
p1296
I1
sS'there '
p1297
I134
sS'such '
p1298
I953
sS'happen '
p1299
I6
sS't '
p1300
I1
sS'however '
p1301
I6
sS'those '
p1302
I31
sS'quite '
p1303
I8
sS'seems '
p1304
I1
sS'way '
p1305
I626
sS'always '
p1306
I4
sS'alcoholic '
p1307
I1
sS'boy '
p1308
I2
sS'but '
p1309
I2
sS'too '
p1310
I137
sS'case '
p1311
I4
sS'for '
p1312
I6
sS'makes '
p1313
I2
sS'with '
p1314
I7
sS'that\\u2019 '
p1315
I3
sS'have '
p1316
I2
sS'sun '
p1317
I4
sS'done '
p1318
I2
sS'know '
p1319
I1
sS'my '
p1320
I7
sS'else '
p1321
I1
sS'become '
p1322
I1
sS'sorry '
p1323
I2
sS'someth '
p1324
I1
sS'obvious '
p1325
I1
sS'. '
p1326
I1
sS'be '
p1327
I99
sS'now '
p1328
I60
sS'hey '
p1329
I3
sS'sure '
p1330
I3
sS'safe '
p1331
I1
sS'easy '
p1332
I5
sS'right '
p1333
I76
sS'incongruous '
p1334
I1
sS'enough '
p1335
I5
sS'careful '
p1336
I1
sS'... '
p1337
I1
sS'why '
p1338
I3
sS"' "
p1339
I3
sS'much '
p1340
I34
sS'so '
p1341
I9823
sS'ah '
p1342
I3
sS'from '
p1343
I4
sS'like '
p1344
I2316
sS'thats '
p1345
I4
sS'sound '
p1346
I3
sS'on '
p1347
I11
sS'keep '
p1348
I1
sS'so, '
p1349
I8
sS'you '
p1350
I120
sS'don '
p1351
I2
sS'grlta '
p1352
I1
sS'they '
p1353
I9
sS'necessarily '
p1354
I1
sS'whatever '
p1355
I7
sS'what '
p1356
I131
sS'was '
p1357
I1
sS'eventually '
p1358
I3
sS'another '
p1359
I18
sS'feeling '
p1360
I1
sS'fell '
p1361
I1
sS'this '
p1362
I1039
sS'abrasion '
p1363
I1
sS'acting '
p1364
I11
sS'okay '
p1365
I34
sS'shit '
p1366
I10
sS'give '
p1367
I4
sS'and '
p1368
I8
sS'bit '
p1369
I1
sS'old '
p1370
I1
sS'[ '
p1371
I2
sS'he '
p1372
I17
sS'amnesia '
p1373
I1
sS'asking '
p1374
I2
sS'to '
p1375
I7
sS'who '
p1376
I2
sS'shushlng '
p1377
I1
sS'dumb '
p1378
I1
sS'preventing '
p1379
I1
sS'being '
p1380
I18
sS'huh '
p1381
I6
sS'yup '
p1382
I1
sS'working '
p1383
I2
sS'awful '
p1384
I2
sS'where '
p1385
I3
sS'dying '
p1386
I1
sS'passable '
p1387
I1
sS'living '
p1388
I1
sS'crazy '
p1389
I2
sS'after '
p1390
I1
sS'alright '
p1391
I9
sS'kind '
p1392
I69
sS'high '
p1393
I1
sS'age '
p1394
I1
sS'half '
p1395
I2
sS'well '
p1396
I73
sS'nearly '
p1397
I1
sS'fucking '
p1398
I8
sS"'t "
p1399
I6
sS'these '
p1400
I50
sS'of '
p1401
I3
sS'though '
p1402
I3
sS'playing '
p1403
I1
sS'bends '
p1404
I1
sS"'s "
p1405
I28
sS'countless '
p1406
I1
sS'do '
p1407
I19
sS"'m "
p1408
I2
sS'seeing '
p1409
I1
sS'around '
p1410
I6
sS'girls '
p1411
I1
sS'excellent '
p1412
I1
sS'how '
p1413
I183
sS'damn '
p1414
I1
sS'bad '
p1415
I1
sS'benjamln '
p1416
I1
sS'ugly '
p1417
I1
sS'top '
p1418
I1
sS'way, '
p1419
I1
sS'some '
p1420
I7
sS'th '
p1421
I3
sS'does '
p1422
I1
sS'very '
p1423
I38
sS'" '
p1424
I3
sS'terrible '
p1425
I2
sS"'as "
p1426
I1
sS'indeed '
p1427
I1
sS'play '
p1428
I1
sS'oh '
p1429
I18
sS'looking '
p1430
I1
sS'necessary '
p1431
I1
sS'somethin '
p1432
I10
sS'completely '
p1433
I1
sS'nice '
p1434
I2
sS'hear '
p1435
I1
sS'see '
p1436
I39
sS'i '
p1437
I40
sS'been '
p1438
I25
sS'in '
p1439
I2
sS'? '
p1440
I1
sS'shall '
p1441
I1
sS'here '
p1442
I61
sS'people '
p1443
I1
sS'hold '
p1444
I1
sS'one '
p1445
I7
sS'get '
p1446
I3
sS'real '
p1447
I3
sS'same '
p1448
I32
sS'serious '
p1449
I2
sS'isn '
p1450
I1
sS'stop '
p1451
I1
sS'about '
p1452
I8
sS'cool '
p1453
I1
sS'not '
p1454
I10
sS'act '
p1455
I10
sS'thing '
p1456
I17
sS'rain '
p1457
I1
sS'still '
p1458
I1
sS'yeah '
p1459
I32
sS'which '
p1460
I1
stp1461
a((lp1462
S'noetiges'
p1463
aS'Noetiges'
p1464
a(dp1465
S'necessary '
p1466
I1
stp1467
a((lp1468
S'bedarf'
p1469
aS'Bedarf'
p1470
a(dp1471
S'deserves '
p1472
I1
sS'repopulate '
p1473
I2
sS'require '
p1474
I2
sS'takes '
p1475
I5
sS'demands '
p1476
I2
sS'dick '
p1477
I1
sS'jeff '
p1478
I1
sS'necessary '
p1479
I1
sS'would '
p1480
I2
sS'pasteur '
p1481
I2
sS'need '
p1482
I20
sS'needs '
p1483
I3
sS'demand '
p1484
I3
sS'requires '
p1485
I2
sS'requirea '
p1486
I1
sS'particular '
p1487
I1
sS'um '
p1488
I1
stp1489
a((lp1490
S'veneers'
p1491
aS'Veneers'
p1492
a(dp1493
S'necessary '
p1494
I1
sS'lic\xc3\xb3wek '
p1495
I1
stp1496
a((lp1497
S'geschossenwerden'
p1498
aS'Geschossenwerden'
p1499
a(dp1500
S'necessary '
p1501
I1
stp1502
a((lp1503
S'schwerste'
p1504
aS'Schwerste'
p1505
a(dp1506
S'heaviest '
p1507
I3
sS'difficult '
p1508
I1
sS'necessary '
p1509
I1
sS'hardest '
p1510
I6
stp1511
a((lp1512
S'n\xc3\xbctzlich'
p1513
aS'N\xc3\xbctzlich'
p1514
a(dp1515
S'useful '
p1516
I77
sS'service '
p1517
I1
sS'apply '
p1518
I1
sS'help '
p1519
I2
sS'use '
p1520
I5
sS'interesting '
p1521
I1
sS'value '
p1522
I1
sS'necessary '
p1523
I1
sS'handy '
p1524
I19
sS'chimps '
p1525
I1
sS'beneficial '
p1526
I1
sS'lottery '
p1527
I1
sS'helpful '
p1528
I6
sS'pitching '
p1529
I1
sS'fewabilitythe '
p1530
I1
sS'valuable '
p1531
I4
sS'details '
p1532
I1
sS'proven '
p1533
I2
stp1534
a((lp1535
S'mitteln'
p1536
aS'Mitteln'
p1537
a(dp1538
S'means '
p1539
I9
sS'slower '
p1540
I1
sS'necessary '
p1541
I1
sS'ability '
p1542
I4
sS'resources '
p1543
I1
sS'remedies '
p1544
I1
stp1545
a((lp1546
S'notwenig'
p1547
aS'Notwenig'
p1548
a(dp1549
S'necessary '
p1550
I1
stp1551
a((lp1552
S'notwendigerweise'
p1553
aS'Notwendigerweise'
p1554
a(dp1555
S'arousal '
p1556
I1
sS'necessarily '
p1557
I6
sS'necessary '
p1558
I1
sS'wheaton '
p1559
I1
sS'necessitated '
p1560
I2
stp1561
a((lp1562
S'wichtig'
p1563
aS'Wichtig'
p1564
a(dp1565
S'much '
p1566
I9
sS'matter '
p1567
I81
sS'vital '
p1568
I8
sS'wieners '
p1569
I1
sS'sue '
p1570
I1
sS'imperative '
p1571
I1
sS'that '
p1572
I2
sS'huge '
p1573
I1
sS'rita '
p1574
I1
sS'essential '
p1575
I5
sS'ok '
p1576
I2
sS'needs '
p1577
I1
sS'high '
p1578
I1
sS'difference '
p1579
I2
sS'singular '
p1580
I1
sS'key '
p1581
I1
sS'bed '
p1582
I1
sS'well '
p1583
I2
sS'wow '
p1584
I1
sS'point '
p1585
I1
sS'urgent '
p1586
I6
sS'deal '
p1587
I9
sS'important '
p1588
I852
sS'shot '
p1589
I1
sS'value '
p1590
I4
sS'irrelevant '
p1591
I2
sS'matters '
p1592
I52
sS'gay '
p1593
I1
sS'wether '
p1594
I1
sS'necessary '
p1595
I1
sS'really '
p1596
I1
sS'good '
p1597
I6
sS'valued '
p1598
I1
sS'everyonei '
p1599
I1
sS'caramel- '
p1600
I2
sS'bottom '
p1601
I1
sS'worry '
p1602
I1
sS'brakes '
p1603
I1
sS'valuable '
p1604
I2
sS'immportant '
p1605
I1
sS'mind '
p1606
I9
sS'overimportant '
p1607
I1
sS'nothing '
p1608
I1
sS'cares '
p1609
I3
sS'concern '
p1610
I1
sS'apology '
p1611
I1
sS'does '
p1612
I2
sS'mattered '
p1613
I9
sS'primed '
p1614
I1
sS'account '
p1615
I1
sS'relevant '
p1616
I9
sS'even '
p1617
I4
sS'compromises '
p1618
I1
sS'serious '
p1619
I3
sS'special '
p1620
I1
sS'critical '
p1621
I3
sS'pregnant '
p1622
I1
sS'riding '
p1623
I1
sS'seriously '
p1624
I2
sS'street '
p1625
I1
sS'thing '
p1626
I1
sS'precious '
p1627
I3
sS'means '
p1628
I2
sS'dear '
p1629
I1
sS'whatever '
p1630
I2
sS'hangs '
p1631
I1
sS'sensing '
p1632
I1
sS'crucial '
p1633
I2
sS'sam '
p1634
I1
sS'behind '
p1635
I1
sS'importance '
p1636
I5
sS'forget '
p1637
I1
sS'importantto '
p1638
I1
sS'night '
p1639
I1
sS'need '
p1640
I10
sS'counts '
p1641
I2
sS'care '
p1642
I30
sS'rest '
p1643
I1
sS'take '
p1644
I1
sS'importantthat '
p1645
I1
sS'cared '
p1646
I5
sS'big '
p1647
I3
sS'significant '
p1648
I3
sS'mission '
p1649
I1
sS'back '
p1650
I1
stp1651
a.