(lp0
((lp1
S'erfolgreich'
p2
aS'Erfolgreich'
p3
a(dp4
S'one '
p5
I1
sS'correctly '
p6
I1
sS'sucessfully '
p7
I1
sS'job '
p8
I1
sS'fruitful '
p9
I1
sS'well '
p10
I3
sS'succeeded '
p11
I13
sS'succeeding '
p12
I1
sS'success '
p13
I8
sS'succeeds '
p14
I1
sS'talk '
p15
I1
sS'successfully '
p16
I20
sS'successfull '
p17
I1
sS'gangbusters '
p18
I2
sS'succeed '
p19
I22
sS'accomplished '
p20
I4
sS'works '
p21
I1
sS'wassuccessful '
p22
I1
sS'effectively '
p23
I2
sS'taking '
p24
I2
sS'successful '
p25
I57
sS'cool '
p26
I1
sS'glowing '
p27
I1
sS'splash '
p28
I1
sS'thriving '
p29
I1
stp30
a((lp31
S'erfolgreiche'
p32
aS'Erfolgreiche'
p33
a(dp34
S'enjoyable '
p35
I1
sS'successful '
p36
I22
stp37
a((lp38
S'erfolgreicher'
p39
aS'Erfolgreicher'
p40
a(dp41
S'solid '
p42
I1
sS'hallway '
p43
I1
sS'sucessful '
p44
I1
sS'successful '
p45
I18
sS'effective '
p46
I1
stp47
a((lp48
S'erfolgreichen'
p49
aS'Erfolgreichen'
p50
a(dp51
S'triumphant '
p52
I2
sS'count '
p53
I1
sS'super '
p54
I1
sS'successful '
p55
I11
sS'winning '
p56
I1
sS'successfully '
p57
I1
stp58
a((lp59
S'erfolg'
p60
aS'Erfolg'
p61
a(dp62
S'triumph '
p63
I3
sS'anyone '
p64
I1
sS'working '
p65
I1
sS'go '
p66
I1
sS'accomplish '
p67
I2
sS'achievement '
p68
I2
sS'luck '
p69
I20
sS'succeeding '
p70
I3
sS'making '
p71
I2
sS'well '
p72
I1
sS'halliburton '
p73
I1
sS'succeeded '
p74
I9
sS'work '
p75
I3
sS'hit '
p76
I5
sS'unsuccessful '
p77
I1
sS'annie '
p78
I1
sS'accomplishment '
p79
I2
sS'succeeds '
p80
I3
sS'unsuccessfully '
p81
I2
sS'look '
p82
I2
sS'successes '
p83
I1
sS'success '
p84
I118
sS'made '
p85
I4
sS'moving '
p86
I1
sS'great '
p87
I1
sS'succeed '
p88
I19
sS'outcome '
p89
I1
sS'days '
p90
I1
sS'famous '
p91
I1
sS'prosperity '
p92
I1
sS'successful '
p93
I10
sS'godspeed '
p94
I3
sS'successfully '
p95
I1
sS'pack '
p96
I1
sS'here '
p97
I1
sS'victory '
p98
I5
stp99
a((lp100
S'erfolgreichste'
p101
aS'Erfolgreichste'
p102
a(dp103
S'successful '
p104
I7
sS'class '
p105
I1
stp106
a((lp107
S'erfolgreichsten'
p108
aS'Erfolgreichsten'
p109
a(dp110
S'successful '
p111
I5
stp112
a((lp113
S'erfolgreiches'
p114
aS'Erfolgreiches'
p115
a(dp116
S'winning '
p117
I2
sS'banner '
p118
I1
sS'successful '
p119
I4
sS'successfully '
p120
I1
stp121
a((lp122
S'dr\xc3\xa4ngten'
p123
aS'Dr\xc3\xa4ngten'
p124
a(dp125
S'push '
p126
I1
sS'rosko '
p127
I1
sS'successful '
p128
I2
sS'overpowered '
p129
I4
stp130
a((lp131
S'bekommen'
p132
aS'Bekommen'
p133
a(dp134
S'one '
p135
I3
sS'agreed '
p136
I2
sS'going '
p137
I1
sS'me '
p138
I1
sS'lucas '
p139
I1
sS'gonna '
p140
I2
sS'getting '
p141
I139
sS'got '
p142
I67
sS'for '
p143
I1
sS"'ll "
p144
I8
sS'have '
p145
I128
sS'having '
p146
I26
sS'earn '
p147
I1
sS'mmm- '
p148
I1
sS'served '
p149
I1
sS'together '
p150
I1
sS'hm '
p151
I1
sS'list '
p152
I1
sS'birth '
p153
I3
sS'gettin '
p154
I1
sS'receive '
p155
I9
sS'pay '
p156
I1
sS'flag '
p157
I1
sS'do '
p158
I4
sS'gotta '
p159
I2
sS'find '
p160
I7
sS'make '
p161
I2
sS'sure '
p162
I1
sS'magnet '
p163
I1
sS'moose '
p164
I1
sS'won '
p165
I1
sS'mansion '
p166
I2
sS'sights '
p167
I2
sS'realise '
p168
I1
sS'ofhese '
p169
I1
sS'onr '
p170
I1
sS'mate '
p171
I1
sS'mnh '
p172
I1
sS'lead '
p173
I1
sS'owe '
p174
I2
sS'can '
p175
I11
sS'acquire '
p176
I3
sS'be '
p177
I1
sS'may '
p178
I1
sS'excuse '
p179
I1
sS'minus '
p180
I2
sS'received '
p181
I16
sS'gave '
p182
I4
sS'see '
p183
I1
sS'raped '
p184
I1
sS'hook '
p185
I2
sS'able '
p186
I1
sS'courtrooms '
p187
I1
sS'return '
p188
I1
sS'quitter '
p189
I1
sS'taking '
p190
I1
sS'provide '
p191
I1
sS'are '
p192
I2
sS'get '
p193
I1123
sS'had '
p194
I1
sS'give '
p195
I5
sS'successful '
p196
I1
sS'demeaning '
p197
I1
sS'catch '
p198
I5
sS'given '
p199
I10
sS'take '
p200
I1
sS'life '
p201
I4
sS'relationship '
p202
I1
sS'will '
p203
I2
sS'probably '
p204
I1
sS'messages '
p205
I2
sS'recover '
p206
I3
sS'gotten '
p207
I14
sS'by '
p208
I4
sS'ahh '
p209
I1
stp210
a((lp211
S'fall'
p212
aS'Fall'
p213
a(dp214
S'definitely '
p215
I85
sS'one '
p216
I17
sS'matter '
p217
I15
sS'going '
p218
I1
sS'am '
p219
I1
sS'ever '
p220
I3
sS'amagansett '
p221
I1
sS'manuscript '
p222
I1
sS'covered '
p223
I1
sS'thrown '
p224
I2
sS'down '
p225
I20
sS'fringe '
p226
I2
sS'course '
p227
I3
sS'deal '
p228
I3
sS'did '
p229
I5
sS'then '
p230
I1
sS'absolutely '
p231
I109
sS'leaders '
p232
I1
sS'if '
p233
I7
sS'occasion '
p234
I1
sS'process '
p235
I1
sS'complimentary '
p236
I1
sS'cause '
p237
I1
sS'it '
p238
I1
sS'chance '
p239
I7
sS'budging '
p240
I1
sS'we '
p241
I1
sS'puo '
p242
I1
sS'least '
p243
I3
sS'all '
p244
I2
sS'successful '
p245
I1
sS'story '
p246
I1
sS'totally '
p247
I18
sS'clarity '
p248
I1
sS'certainly '
p249
I19
sS'has '
p250
I1
sS'straight '
p251
I1
sS'deserve '
p252
I1
sS'casesomehow '
p253
I1
sS'want '
p254
I1
sS'ground '
p255
I1
sS'option '
p256
I1
sS'chucking '
p257
I1
sS'time '
p258
I3
sS'anyway '
p259
I27
sS'default '
p260
I1
sS'mansions '
p261
I1
sS'worse '
p262
I1
sS'go '
p263
I1
sS'happening '
p264
I1
sS'fail '
p265
I1
sS'happen '
p266
I2
sS'way '
p267
I207
sS'agreed '
p268
I1
sS'case '
p269
I1524
sS'sense '
p270
I2
sS'file '
p271
I5
sS'minutes '
p272
I1
sS'patient '
p273
I1
sS'case, '
p274
I4
sS'family '
p275
I1
sS'drop '
p276
I4
sS'sure '
p277
I18
sS'right '
p278
I4
sS'babies '
p279
I1
sS'so '
p280
I3
sS'instance '
p281
I4
sS'alley '
p282
I1
sS'cup '
p283
I1
sS'safely '
p284
I1
sS'don '
p285
I2
sS'reason '
p286
I2
sS'outcome '
p287
I1
sS'falling '
p288
I2
sS'means '
p289
I8
sS'this '
p290
I1
sS'possibly '
p291
I1
sS'scenario '
p292
I2
sS'clearly '
p293
I2
sS'rate '
p294
I2
sS'shit '
p295
I1
sS'give '
p296
I1
sS'emphatically '
p297
I1
sS'gonna '
p298
I1
sS'lame '
p299
I1
sS'ah '
p300
I1
sS'bet '
p301
I1
sS'investigation '
p302
I6
sS'fall '
p303
I35
sS'supposed '
p304
I1
sS'problem '
p305
I1
sS'point '
p306
I2
sS'do '
p307
I5
sS'hell '
p308
I7
sS'way, '
p309
I1
sS'does '
p310
I1
sS'never '
p311
I2
sS'issue '
p312
I1
sS'anytime '
p313
I1
sS'guaranteed '
p314
I1
sS'cent '
p315
I1
sS'trial '
p316
I1
sS'sale '
p317
I1
sS'narrows '
p318
I1
sS'event '
p319
I11
sS'birmingham '
p320
I1
sS'grateful '
p321
I1
sS'not '
p322
I1
sS'falls '
p323
I1
sS'thing '
p324
I5
sS'cases '
p325
I6
sS'peek '
p326
I1
stp327
a((lp328
S'elvis'
p329
aS'Elvis'
p330
a(dp331
S'elvis '
p332
I40
sS'successful '
p333
I1
stp334
a((lp335
S'ertolgreich'
p336
aS'Ertolgreich'
p337
a(dp338
S'successful '
p339
I1
stp340
a((lp341
S'successful'
p342
aS'Successful'
p343
a(dp344
S'successful '
p345
I1
stp346
a((lp347
S'zahnarztpraxis'
p348
aS'Zahnarztpraxis'
p349
a(dp350
S'tooth '
p351
I2
sS'successful '
p352
I1
sS'dentist '
p353
I1
stp354
a((lp355
S'erntedank-'
p356
aS'Erntedank-'
p357
a(dp358
S'astrophysicist '
p359
I1
sS'successful '
p360
I1
stp361
a((lp362
S'geschafft'
p363
aS'Geschafft'
p364
a(dp365
S'messed '
p366
I1
sS'down '
p367
I2
sS'making '
p368
I2
sS'$20 '
p369
I1
sS'ugh '
p370
I1
sS'did '
p371
I27
sS'gotten '
p372
I2
sS'solve '
p373
I1
sS'manage '
p374
I12
sS'pulled '
p375
I3
sS'it '
p376
I5
sS'accomplished '
p377
I7
sS'god '
p378
I1
sS'fine '
p379
I1
sS'ha '
p380
I1
sS'cherry '
p381
I1
sS'successful '
p382
I1
sS'ouch '
p383
I1
sS'house '
p384
I1
sS'got '
p385
I8
sS'afro '
p386
I1
sS'impressions '
p387
I1
sS'exam '
p388
I1
sS'finished '
p389
I6
sS'could '
p390
I1
sS'make '
p391
I71
sS'good '
p392
I3
sS'time '
p393
I1
sS'doing '
p394
I1
sS'taken '
p395
I1
sS'volcano '
p396
I1
sS'way '
p397
I3
sS'able '
p398
I3
sS'managed '
p399
I49
sS'through '
p400
I11
sS'tip '
p401
I1
sS'crewman '
p402
I1
sS'out '
p403
I3
sS'here '
p404
I1
sS'fred '
p405
I1
sS'sprung '
p406
I1
sS'carried '
p407
I1
sS'survive '
p408
I1
sS'done '
p409
I56
sS'oughta '
p410
I1
sS'goob '
p411
I1
sS'there '
p412
I1
sS'home '
p413
I1
sS'worked '
p414
I1
sS'juggling '
p415
I1
sS'needed '
p416
I1
sS'achieved '
p417
I1
sS'visuals '
p418
I1
sS'couldn '
p419
I2
sS'off '
p420
I3
sS'forward '
p421
I1
sS'smart '
p422
I1
sS'held '
p423
I1
sS'bandage '
p424
I1
sS'charlie '
p425
I1
sS'okay '
p426
I3
sS'cardiac '
p427
I1
sS'chimp '
p428
I1
sS'tapped '
p429
I1
sS'snap '
p430
I1
sS'well '
p431
I1
sS'knackered '
p432
I1
sS'endured '
p433
I1
sS'colin '
p434
I1
sS'succeeded '
p435
I2
sS'invest '
p436
I1
sS'clear '
p437
I1
sS'away '
p438
I3
sS'worry '
p439
I1
sS'brad '
p440
I1
sS'does, '
p441
I1
sS'beat '
p442
I3
sS'made '
p443
I162
sS'longer '
p444
I1
sS'long '
p445
I1
sS'verge '
p446
I1
sS'free '
p447
I1
sS'get '
p448
I5
sS'nailed '
p449
I1
sS'weight '
p450
I1
sS'finally '
p451
I3
sS'hold '
p452
I1
sS'do '
p453
I6
sS'yeah '
p454
I1
stp455
a((lp456
S'zurecht'
p457
aS'Zurecht'
p458
a(dp459
S'successful '
p460
I1
sS'getting '
p461
I1
sS'myself '
p462
I1
sS'over '
p463
I2
sS'ok '
p464
I3
sS'manages '
p465
I1
sS'hillary '
p466
I1
sS'dressed '
p467
I3
sS'deal '
p468
I1
sS'own '
p469
I2
sS'work '
p470
I1
sS'do '
p471
I1
sS'cope '
p472
I4
sS'ready '
p473
I1
sS'right '
p474
I8
sS'place '
p475
I1
sS'secret '
p476
I1
sS'clean '
p477
I1
sS'manage '
p478
I8
sS'she '
p479
I1
sS'rightly '
p480
I1
sS'managing '
p481
I2
sS'roll '
p482
I1
sS'nice '
p483
I1
sS'pouk\\u00b3ada '
p484
I1
sS'way '
p485
I2
sS'entertain '
p486
I1
sS'moment '
p487
I1
sS'considering '
p488
I1
sS'handle '
p489
I9
sS'along '
p490
I6
sS'okay '
p491
I6
sS'comic '
p492
I1
sS'fine '
p493
I15
sS'care '
p494
I2
sS'herself '
p495
I1
sS'sorted '
p496
I1
sS'holding '
p497
I3
sS'by '
p498
I5
stp499
a((lp500
S'physics'
p501
aS'Physics'
p502
a(dp503
S'beavers '
p504
I1
sS'preposterous '
p505
I1
sS'sixty- '
p506
I1
sS'rashly '
p507
I1
sS'successful '
p508
I1
sS'p- '
p509
I1
stp510
a((lp511
S'job'
p512
aS'Job'
p513
a(dp514
S'one '
p515
I1
sS'money '
p516
I1
sS'373 '
p517
I1
sS'having '
p518
I1
sS'dance '
p519
I1
sS'clalre '
p520
I1
sS'working '
p521
I1
sS'career '
p522
I1
sS'jo '
p523
I1
sS'living '
p524
I3
sS'jobor '
p525
I1
sS'know '
p526
I1
sS'job '
p527
I2209
sS'sighs '
p528
I1
sS'mom '
p529
I1
sS'actually '
p530
I1
sS'everything '
p531
I1
sS'mediocre '
p532
I1
sS'course '
p533
I1
sS'joband '
p534
I1
sS'hired '
p535
I1
sS'fired '
p536
I1
sS'game '
p537
I3
sS'work '
p538
I30
sS'hundred '
p539
I1
sS'do '
p540
I16
sS'36 '
p541
I1
sS'hell '
p542
I1
sS'right '
p543
I1
sS'florist '
p544
I1
sS'job, '
p545
I11
sS'laughs '
p546
I1
sS'position '
p547
I1
sS'territory '
p548
I1
sS'why '
p549
I1
sS'drill '
p550
I1
sS'doing '
p551
I1
sS'almighty '
p552
I1
sS'business '
p553
I6
sS"'dance "
p554
I1
sS'assignment '
p555
I2
sS'it '
p556
I2
sS'worry, '
p557
I1
sS'ofit '
p558
I1
sS'what '
p559
I3
sS'hook '
p560
I1
sS'same '
p561
I1
sS'ajob '
p562
I2
sS'part '
p563
I1
sS'zack '
p564
I1
sS'time '
p565
I2
sS'jobs '
p566
I18
sS'theirjob '
p567
I1
sS'leg '
p568
I1
sS'week '
p569
I1
sS'talking '
p570
I2
sS'shit '
p571
I1
sS'successful '
p572
I1
sS'out '
p573
I1
sS'myjob '
p574
I1
sS'holden '
p575
I1
sS'employment '
p576
I2
sS'yourjob '
p577
I3
sS'here '
p578
I2
sS'trust '
p579
I1
sS'gig '
p580
I14
sS'back '
p581
I1
stp582
a.