(lp0
((lp1
S'wagen'
p2
aS'Wagen'
p3
a(dp4
S'cars '
p5
I24
sS'trailer '
p6
I2
sS'limo '
p7
I1
sS'trucks '
p8
I2
sS'ute '
p9
I1
sS'8 '
p10
I1
sS'caravan '
p11
I1
sS'packard '
p12
I2
sS'mobile '
p13
I7
sS'van '
p14
I35
sS'blake '
p15
I1
sS'up '
p16
I1
sS'brother '
p17
I1
sS'car '
p18
I633
sS'posture '
p19
I1
sS'out '
p20
I4
sS'chariot '
p21
I2
sS'caddy '
p22
I1
sS'dare '
p23
I75
sS'lend '
p24
I1
sS'hey '
p25
I1
sS'carts '
p26
I2
sS'foot '
p27
I1
sS'suv '
p28
I1
sS'coach '
p29
I2
sS'truck '
p30
I42
sS'vehicle '
p31
I25
sS'call '
p32
I1
sS'venture '
p33
I1
sS'wagon '
p34
I22
sS'line '
p35
I1
sS'doing '
p36
I1
sS'rv '
p37
I1
sS'seat '
p38
I1
sS'sedans '
p39
I1
sS'this '
p40
I1
sS'cab '
p41
I1
sS'road '
p42
I2
sS'carright '
p43
I1
sS'it '
p44
I2
sS'ambulance '
p45
I5
sS'don '
p46
I3
sS'wheels '
p47
I3
sS'irresistible '
p48
I1
sS'stick '
p49
I6
sS'john '
p50
I1
sS'henry '
p51
I1
sS'hood '
p52
I1
sS'carriage '
p53
I6
sS'jeep '
p54
I3
sS'whispers '
p55
I1
sS'here '
p56
I1
sS'door '
p57
I1
sS'cruiser '
p58
I1
sS'go '
p59
I2
sS'aah '
p60
I1
sS'ride '
p61
I11
sS'checks '
p62
I1
sS'car, '
p63
I2
sS'engine '
p64
I1
sS'take '
p65
I1
sS'vans '
p66
I1
sS'wagons '
p67
I4
sS'cart '
p68
I19
sS'drove '
p69
I2
sS'ja '
p70
I1
stp71
a((lp72
S'wage'
p73
aS'Wage'
p74
a(dp75
S'doing '
p76
I1
sS'you '
p77
I1
sS'chance '
p78
I1
sS'obey '
p79
I1
sS'limb '
p80
I1
sS'conceived '
p81
I1
sS'dare '
p82
I27
sS'initial '
p83
I1
sS'make '
p84
I2
sS'defy '
p85
I1
sS'don '
p86
I2
sS'great '
p87
I1
sS'jump '
p88
I1
sS'daresay '
p89
I3
sS'venture '
p90
I1
sS'whispering '
p91
I1
stp92
a((lp93
S'wagst'
p94
aS'Wagst'
p95
a(dp96
S'imagine '
p97
I1
sS'dare '
p98
I22
sS'venture '
p99
I1
stp100
a((lp101
S'wagt'
p102
aS'Wagt'
p103
a(dp104
S'threats '
p105
I1
sS'middle '
p106
I1
sS'afraid '
p107
I1
sS'ventures '
p108
I1
sS'dare '
p109
I17
sS'ventured '
p110
I2
sS'matter '
p111
I1
sS'dares '
p112
I5
sS'youcan '
p113
I1
sS'dared '
p114
I1
sS'heard '
p115
I1
sS'try '
p116
I2
stp117
a((lp118
S'traust'
p119
aS'Traust'
p120
a(dp121
S'can '
p122
I1
sS'afraid '
p123
I1
sS'dare '
p124
I15
sS'trusting '
p125
I1
sS'don '
p126
I2
sS'trust '
p127
I36
sS'try '
p128
I1
sS'chicken '
p129
I1
stp130
a((lp131
S'wag'
p132
aS'Wag'
p133
a(dp134
S'wag '
p135
I2
sS'dare '
p136
I13
sS'don '
p137
I4
sS'car '
p138
I1
sS'way '
p139
I2
sS'don\\u2019 '
p140
I1
stp141
a((lp142
S'f\xc3\xa4llt'
p143
aS'F\xc3\xa4llt'
p144
a(dp145
S'person '
p146
I1
sS'dare '
p147
I12
sS'herfall '
p148
I1
sS'flows '
p149
I1
sS'got '
p150
I1
sS'noticing '
p151
I1
sS'ones '
p152
I1
sS"'ll "
p153
I3
sS'realizing '
p154
I1
sS'remade '
p155
I1
sS'knocked '
p156
I1
sS'having '
p157
I4
sS'comes '
p158
I8
sS'down '
p159
I2
sS'fall '
p160
I34
sS'whispering '
p161
I1
sS'philou '
p162
I1
sS'hearing '
p163
I1
sS'of '
p164
I1
sS'did '
p165
I1
sS'occurred '
p166
I1
sS'figure '
p167
I3
sS'cuts '
p168
I1
sS'do '
p169
I5
sS'could '
p170
I3
sS'come '
p171
I3
sS'remember '
p172
I4
sS'bowlin '
p173
I1
sS'goes '
p174
I8
sS'mentioned '
p175
I1
sS'dropped '
p176
I1
sS'hde '
p177
I1
sS'is '
p178
I14
sS'mind '
p179
I1
sS'unimaginative '
p180
I2
sS'insist '
p181
I1
sS'does '
p182
I2
sS'doing '
p183
I1
sS'can '
p184
I30
sS'slipping '
p185
I1
sS'hard '
p186
I3
sS'thinking '
p187
I2
sS'think '
p188
I7
sS'thought '
p189
I1
sS'don '
p190
I1
sS'hrena '
p191
I1
sS'andie, '
p192
I1
sS'notices '
p193
I3
sS'depends '
p194
I1
sS'dropping '
p195
I10
sS'leads '
p196
I1
sS'drops '
p197
I7
sS'falling '
p198
I27
sS'fell '
p199
I1
sS'serve '
p200
I1
sS'are '
p201
I9
sS'notice '
p202
I20
sS'remembered '
p203
I3
sS'reminds '
p204
I8
sS"'s "
p205
I25
sS'springs '
p206
I1
sS'recognise '
p207
I1
sS'falls '
p208
I56
sS'will '
p209
I1
sS'way '
p210
I1
sS'upon '
p211
I1
sS'any '
p212
I1
sS'laughlng '
p213
I1
stp214
a((lp215
S'wagte'
p216
aS'Wagte'
p217
a(dp218
S'dared '
p219
I6
sS'didn '
p220
I1
sS'dare '
p221
I6
sS'ventured '
p222
I1
sS'daren '
p223
I1
stp224
a((lp225
S'trauen'
p226
aS'Trauen'
p227
a(dp228
S'credit '
p229
I1
sS'trusted '
p230
I37
sS'risk '
p231
I1
sS'gives '
p232
I1
sS'trust '
p233
I234
sS'intimidated '
p234
I1
sS'dare '
p235
I5
sS'married '
p236
I1
sS'trusting '
p237
I2
sS'past '
p238
I1
sS'what '
p239
I1
sS'witnessing '
p240
I2
sS'grieve '
p241
I2
sS'meid\xc3\xa4t '
p242
I1
sS'my '
p243
I1
sS'believe '
p244
I3
sS'sneak '
p245
I1
stp246
a((lp247
S'untersteh'
p248
aS'Untersteh'
p249
a(dp250
S'don '
p251
I2
sS'button '
p252
I1
sS'absolutely '
p253
I1
sS'dare '
p254
I4
stp255
a((lp256
S'getraut'
p257
aS'Getraut'
p258
a(dp259
S'unbutton '
p260
I1
sS'trusted '
p261
I5
sS'leap '
p262
I2
sS'guts '
p263
I3
sS'brilliant '
p264
I1
sS'dare '
p265
I4
sS'climbed '
p266
I2
sS'wed '
p267
I1
sS'ask '
p268
I1
sS'dared '
p269
I2
sS'trust '
p270
I1
sS'merry '
p271
I1
stp272
a((lp273
S'mutprobe'
p274
aS'Mutprobe'
p275
a(dp276
S'orgy '
p277
I1
sS'dare '
p278
I3
sS'chicken '
p279
I4
stp280
a((lp281
S'!'
p282
aS'!'
p283
a(dp284
S'one '
p285
I2
sS'going '
p286
I2
sS'shoutlng '
p287
I2
sS'am '
p288
I14
sS': '
p289
I296
sS'the '
p290
I2
sS'down '
p291
I8
sS'.... '
p292
I14
sS'doorl '
p293
I2
sS'did '
p294
I2
sS'work '
p295
I2
sS'true '
p296
I2
sS'up '
p297
I46
sS'singing '
p298
I2
sS'took '
p299
I2
sS'it '
p300
I18
sS'.. '
p301
I28
sS'yesl '
p302
I2
sS'more '
p303
I4
sS'??? '
p304
I2
sS'shilo '
p305
I4
sS'nephrologist '
p306
I2
sS'b. '
p307
I2
sS'- '
p308
I26
sS'help '
p309
I2
sS'doll '
p310
I2
sS'??????????? '
p311
I2
sS'\\u2026 '
p312
I4
sS'day '
p313
I2
sS'them '
p314
I4
sS'me '
p315
I42
sS'doing '
p316
I6
sS'o. '
p317
I2
sS'# '
p318
I16
sS'!!! '
p319
I36
sS'???? '
p320
I2
sS'i. '
p321
I4
sS'face '
p322
I2
sS'bold '
p323
I2
sS'debauchery '
p324
I2
sS'yes '
p325
I2
sS'man '
p326
I4
sS"'em "
p327
I2
sS'\\u00a1 '
p328
I2
sS'time '
p329
I2
sS'\\u2048 '
p330
I2
sS'him '
p331
I10
sS'fire '
p332
I2
sS'mommy '
p333
I2
sS'mitakattanda '
p334
I2
sS'; '
p335
I4
sS'say '
p336
I2
sS'go '
p337
I12
sS'out '
p338
I12
sS"'s "
p339
I2
sS'\\u00e2\\u0099\\u00aa '
p340
I2
sS'] '
p341
I262
sS'here '
p342
I10
sS'yourself '
p343
I2
sS'stop '
p344
I2
sS'fuck '
p345
I2
sS'! '
p346
I153374
sS'altheon '
p347
I2
sS'herl '
p348
I2
sS'torch '
p349
I2
sS'bitch '
p350
I2
sS') '
p351
I114
sS'\xc2\xad '
p352
I8
sS'love '
p353
I4
sS'. '
p354
I43206
sS'* '
p355
I26
sS'now '
p356
I8
sS'two '
p357
I2
sS'place '
p358
I6
sS'her '
p359
I6
sS'fucking '
p360
I10
sS'namjahantyeteukhyoji '
p361
I2
sS'on '
p362
I2
sS'you '
p363
I10
sS'quickly '
p364
I2
sS'off '
p365
I2
sS'this '
p366
I4
sS'... '
p367
I1380
sS'are '
p368
I8
sS'quick '
p369
I2
sS'swing '
p370
I2
sS'dad '
p371
I4
sS'??????? '
p372
I2
sS'wrangler '
p373
I2
sS'over '
p374
I2
sS"' "
p375
I8
sS'studies '
p376
I2
sS'die '
p377
I2
sS'-- '
p378
I62
sS"'t "
p379
I12
sS'sec '
p380
I2
sS'!! '
p381
I76
sS', '
p382
I3230
sS'do '
p383
I4
sS'dare '
p384
I6
sS'guys '
p385
I4
sS'damn '
p386
I2
sS'charge '
p387
I2
sS'" '
p388
I38
sS'can '
p389
I2
sS'closet '
p390
I2
sS'move '
p391
I2
sS'again '
p392
I2
sS'oh '
p393
I2
sS'rabbit '
p394
I2
sS'my '
p395
I2
sS'in '
p396
I2
sS'? '
p397
I3782
sS'way '
p398
I2
sS'get '
p399
I2
sS'jommalryeobwa '
p400
I2
sS'yeah '
p401
I2
stp402
a((lp403
S'd\xc3\xbcrfen'
p404
aS'D\xc3\xbcrfen'
p405
a(dp406
S'could '
p407
I2
sS'may '
p408
I32
sS'use '
p409
I1
sS'hope '
p410
I1
sS'permission '
p411
I2
sS'nurses '
p412
I1
sS'allowed '
p413
I52
sS'have '
p414
I9
sS'shouldn '
p415
I6
sS'cannot '
p416
I24
sS'ride '
p417
I2
sS'should '
p418
I5
sS'supposed '
p419
I12
sS', '
p420
I1
sS'do '
p421
I7
sS'gotta '
p422
I1
sS'dare '
p423
I3
sS'sure '
p424
I1
sS'right '
p425
I1
sS"'re "
p426
I13
sS'cleared '
p427
I4
sS'watch '
p428
I1
sS'allow '
p429
I2
sS'can '
p430
I271
sS'admittance '
p431
I1
sS'diplomats '
p432
I1
sS'couldn '
p433
I2
sS'don '
p434
I3
sS'permitted '
p435
I1
sS'see '
p436
I1
sS'mustn '
p437
I5
sS'able '
p438
I2
sS'ridiculous '
p439
I1
sS'let '
p440
I16
sS'... '
p441
I1
sS'are '
p442
I4
sS'cant '
p443
I1
sS'get '
p444
I2
sS'go '
p445
I1
sS'mind '
p446
I5
sS'need '
p447
I6
sS'coverts '
p448
I1
sS'must '
p449
I17
sS'to '
p450
I2
sS'free '
p451
I4
stp452
a((lp453
S'wehe'
p454
aS'Wehe'
p455
a(dp456
S'alas '
p457
I2
sS'better '
p458
I13
sS'push '
p459
I1
sS'blow '
p460
I1
sS'dare '
p461
I3
sS'almost '
p462
I1
sS'contraction '
p463
I1
sS'don '
p464
I9
sS'woe '
p465
I10
sS'teach '
p466
I1
sS'pussying '
p467
I1
stp468
a((lp469
S'kannst'
p470
aS'Kannst'
p471
a(dp472
S"'m "
p473
I2
sS'stay '
p474
I1
sS'better '
p475
I4
sS'claire '
p476
I1
sS'am '
p477
I1
sS'spat '
p478
I1
sS'would '
p479
I13
sS'albinos '
p480
I1
sS'but '
p481
I1
sS'cannot '
p482
I112
sS'bea '
p483
I1
sS'may '
p484
I26
sS'course '
p485
I1
sS'got, '
p486
I1
sS'already '
p487
I1
sS'did '
p488
I2
sS'then '
p489
I3
sS'run '
p490
I1
sS'if '
p491
I5
sS'truck '
p492
I1
sS'damn '
p493
I1
sS'look '
p494
I1
sS'usual '
p495
I1
sS'save '
p496
I1
sS'chance '
p497
I3
sS'mm- '
p498
I1
sS"'ve "
p499
I2
sS'let '
p500
I4
sS'whatever '
p501
I1
sS'- '
p502
I2
sS'cant '
p503
I14
sS'mind '
p504
I2
sS'what '
p505
I1
sS'want '
p506
I12
sS"'re "
p507
I92
sS'morgan '
p508
I1
sS'got '
p509
I43
sS"'ll "
p510
I15
sS'should '
p511
I7
sS'just '
p512
I7
sS'could '
p513
I378
sS'good '
p514
I2
sS'ain '
p515
I1
sS'is '
p516
I12
sS'iswhat '
p517
I1
sS'might '
p518
I15
sS'think '
p519
I1
sS'can, '
p520
I1
sS'way '
p521
I2
sS'grandmother '
p522
I1
sS'shot '
p523
I1
sS'go '
p524
I13
sS'out '
p525
I1
sS"'s "
p526
I8
sS'um '
p527
I1
sS'rick '
p528
I1
sS'can\\u2019 '
p529
I4
sS'yourself '
p530
I1
sS'speakeasy '
p531
I1
sS'fuck '
p532
I12
sS'gimme '
p533
I1
sS'live '
p534
I1
sS'for '
p535
I1
sS'have '
p536
I18
sS'short '
p537
I1
sS'two '
p538
I1
sS'know '
p539
I12
sS'remove '
p540
I1
sS'use '
p541
I1
sS'now '
p542
I2
sS'hey '
p543
I3
sS'able '
p544
I18
sS'sure '
p545
I1
sS'right '
p546
I1
sS'won '
p547
I3
sS'wil '
p548
I1
sS'watch '
p549
I1
sS'why '
p550
I2
sS'so '
p551
I1
sS'on '
p552
I1
sS'c '
p553
I2
sS'couldn '
p554
I29
sS'you '
p555
I2
sS'don '
p556
I44
sS'kiss '
p557
I1
sS'ought '
p558
I3
sS'cat '
p559
I1
sS'handle '
p560
I1
sS'books '
p561
I1
sS'okay '
p562
I3
sS'are '
p563
I37
sS'give '
p564
I4
sS'and '
p565
I1
sS'take '
p566
I6
sS'will '
p567
I44
sS'difficulty '
p568
I1
sS'bundle '
p569
I1
sS'gonna '
p570
I3
sS"'d "
p571
I2
sS'bet '
p572
I1
sS'-- '
p573
I1
sS'drive '
p574
I1
sS'keep '
p575
I1
sS'do '
p576
I136
sS'dare '
p577
I3
sS'away '
p578
I1
sS'how '
p579
I7
sS'call '
p580
I2
sS'here '
p581
I1
sS'potter '
p582
I1
sS'eat '
p583
I1
sS'does '
p584
I2
sS'a '
p585
I1
sS'can '
p586
I5975
sS'screw '
p587
I1
sS'oh '
p588
I1
sS'yours '
p589
I2
sS'jack- '
p590
I1
sS'honey '
p591
I1
sS'crazy- '
p592
I1
sS'free '
p593
I3
sS'get '
p594
I9
sS'trust '
p595
I2
sS'stop '
p596
I1
sS'need '
p597
I4
sS'shut '
p598
I1
sS'yeah '
p599
I2
stp600
a((lp601
S'k\xc3\xb6nnt'
p602
aS'K\xc3\xb6nnt'
p603
a(dp604
S'! '
p605
I1
sS'could '
p606
I41
sS'word '
p607
I1
sS'safe '
p608
I1
sS'got '
p609
I3
sS'go '
p610
I1
sS"'ll "
p611
I2
sS'depth '
p612
I1
sS'know '
p613
I1
sS'cannot '
p614
I24
sS'well '
p615
I2
sS'may '
p616
I8
sS'aren '
p617
I2
sS'bullshitting '
p618
I1
sS'just '
p619
I2
sS'do '
p620
I12
sS'dare '
p621
I3
sS'guys '
p622
I5
sS'hotate '
p623
I1
sS'after- '
p624
I1
sS'must '
p625
I3
sS'either '
p626
I1
sS'so '
p627
I3
sS'shower '
p628
I2
sS'can '
p629
I533
sS'gathering '
p630
I1
sS'might '
p631
I3
sS'couldn '
p632
I3
sS'rent '
p633
I1
sS'gets '
p634
I1
sS'would '
p635
I2
sS'able '
p636
I1
sS'bear '
p637
I1
sS'help '
p638
I1
sS'cant '
p639
I2
sS'get '
p640
I3
sS'won\\u2019 '
p641
I1
sS'peanut '
p642
I1
sS'give '
p643
I1
sS'mightn '
p644
I2
sS'195 '
p645
I1
sS"'s "
p646
I1
sS"'re "
p647
I8
sS'disperse '
p648
I1
sS'will '
p649
I5
sS'free '
p650
I5
sS'arog '
p651
I1
sS'fuck '
p652
I4
stp653
a((lp654
S'kommt'
p655
aS'Kommt'
p656
a(dp657
S'feel '
p658
I11
sS"'m "
p659
I1
sS'going '
p660
I6
sS'may '
p661
I1
sS'y '
p662
I2
sS'huddle '
p663
I1
sS'sometimes '
p664
I3
sS'd '
p665
I1
sS'would '
p666
I3
sS'slow '
p667
I1
sS'arrived '
p668
I2
sS'hey '
p669
I3
sS'comen '
p670
I1
sS'looks '
p671
I3
sS'bedroom '
p672
I1
sS'down '
p673
I1
sS'mom '
p674
I1
sS'join '
p675
I1
sS'appeals '
p676
I1
sS'did '
p677
I23
sS'step '
p678
I2
sS'visit '
p679
I1
sS'it\\u2019 '
p680
I1
sS'then '
p681
I1
sS'with '
p682
I1
sS'up '
p683
I5
sS'comes, '
p684
I2
sS'vihi '
p685
I1
sS'won '
p686
I31
sS'follow '
p687
I2
sS'|| '
p688
I1
sS'either '
p689
I1
sS'cut '
p690
I1
sS'ls '
p691
I6
sS'let '
p692
I2
sS'everyone '
p693
I1
sS'no '
p694
I2
sS'came '
p695
I44
sS'it '
p696
I5
sS'calls '
p697
I1
sS'kids '
p698
I2
sS'radio '
p699
I1
sS'please '
p700
I1
sS"'ve "
p701
I3
sS'woot '
p702
I1
sS'turns '
p703
I1
sS'we '
p704
I9
sS'arrives '
p705
I25
sS'- '
p706
I7
sS'help '
p707
I1
sS'ok '
p708
I1
sS'comng '
p709
I1
sS'all '
p710
I1
sS'fine '
p711
I1
sS'approaching '
p712
I1
sS'imagining '
p713
I1
sS'sounds '
p714
I1
sS'ain '
p715
I6
sS'kinda '
p716
I1
sS'probably '
p717
I1
sS'joining '
p718
I1
sS'vanessa '
p719
I1
sS'shows '
p720
I9
sS'got '
p721
I8
sS'has '
p722
I3
sS'shake '
p723
I1
sS"'ll "
p724
I92
sS'arrive '
p725
I2
sS'better '
p726
I1
sS'seems '
p727
I24
sS'depending '
p728
I1
sS'enter '
p729
I1
sS'comesright '
p730
I1
sS'just '
p731
I3
sS'matters '
p732
I2
sS'could '
p733
I3
sS'come '
p734
I1753
sS'yes '
p735
I2
sS'alliance '
p736
I1
sS'goes '
p737
I48
sS"'re "
p738
I16
sS'safe '
p739
I1
sS'is '
p740
I249
sS'time '
p741
I1
sS'whoohahooa '
p742
I1
sS'comei '
p743
I2
sS'robln '
p744
I2
sS'guess '
p745
I1
sS'might '
p746
I1
sS'occurs '
p747
I1
sS'depends '
p748
I65
sS'gets '
p749
I111
sS'father '
p750
I2
sS'when '
p751
I1
sS'whether '
p752
I1
sS'feels '
p753
I9
sS"'mon, "
p754
I1
sS'well '
p755
I1
sS'things '
p756
I1
sS'nlzar '
p757
I1
sS'show '
p758
I1
sS'go '
p759
I10
sS'ahways '
p760
I1
sS'out '
p761
I2
sS"'s "
p762
I560
sS'happen '
p763
I8
sS'without '
p764
I1
sS'returns '
p765
I3
sS'here '
p766
I6
sS'trav '
p767
I1
sS'glad '
p768
I1
sS'mlchael '
p769
I1
sS'there '
p770
I1
sS'makes '
p771
I3
sS'walks '
p772
I7
sS'okey '
p773
I1
sS'have '
p774
I5
sS'done '
p775
I1
sS'arriving '
p776
I1
sS'pops '
p777
I5
sS'bring '
p778
I1
sS'gather '
p779
I12
sS'teacher '
p780
I1
sS'. '
p781
I1
sS'be '
p782
I8
sS'now '
p783
I6
sS'brought '
p784
I1
sS'two '
p785
I1
sS'crack '
p786
I1
sS'getting '
p787
I2
sS'shaun '
p788
I1
sS'right '
p789
I2
sS'if '
p790
I1
sS'boys '
p791
I1
sS'watch '
p792
I1
sS'sweep '
p793
I1
sS'demanding '
p794
I1
sS'becomes '
p795
I1
sS'from '
p796
I2
sS'takes '
p797
I6
sS'doesn '
p798
I18
sS'on '
p799
I4
sS'c '
p800
I2
sS'ooh '
p801
I1
sS'you '
p802
I7
sS'stays '
p803
I1
sS'don '
p804
I8
sS'leaves '
p805
I1
sS'poof '
p806
I1
sS'what '
p807
I1
sS'was '
p808
I1
sS'wiii '
p809
I1
sS'turn '
p810
I1
sS'comin '
p811
I15
sS'are '
p812
I15
sS'putting '
p813
I2
sS'oome '
p814
I3
sS'wait '
p815
I4
sS'flooding '
p816
I2
sS'take '
p817
I1
sS'will '
p818
I69
sS'ya '
p819
I1
sS'ahh '
p820
I1
sS'friday '
p821
I1
sS'gonna '
p822
I4
sS'enters '
p823
I1
sS'where '
p824
I1
sS'over '
p825
I4
sS"'d "
p826
I13
sS'everybody '
p827
I4
sS'coming '
p828
I909
sS'plan '
p829
I1
sS'comes '
p830
I741
sS'unencumbered '
p831
I1
sS'happens '
p832
I25
sS'strikes '
p833
I1
sS'due '
p834
I1
sS'thank '
p835
I3
sS', '
p836
I12
sS'acquired '
p837
I1
sS'do '
p838
I19
sS'dare '
p839
I3
sS'guys '
p840
I6
sS'away '
p841
I1
sS'steps '
p842
I1
sS'late '
p843
I2
sS'hurry '
p844
I1
sS'pull '
p845
I1
sS'does '
p846
I80
sS'breaks '
p847
I2
sS'walk '
p848
I3
sS'can '
p849
I36
sS'move '
p850
I3
sS'both '
p851
I1
sS'listen '
p852
I1
sS'whoa '
p853
I1
sS'moving '
p854
I1
sS'museum '
p855
I1
sS'approaches '
p856
I1
sS'bringing '
p857
I1
sS'stick '
p858
I1
sS'i '
p859
I1
sS'drops '
p860
I1
sS'way '
p861
I4
sS'get '
p862
I83
sS'won\\u2019 '
p863
I1
sS'keeps '
p864
I1
sS'incoming '
p865
I3
sS'isn '
p866
I5
sS'yo '
p867
I1
sS'ray '
p868
I1
sS'cometh '
p869
I1
sS'hold '
p870
I1
sS'back '
p871
I1
sS'paul '
p872
I1
stp873
a((lp874
S'kommen'
p875
aS'Kommen'
p876
a(dp877
S'going '
p878
I4
sS'join '
p879
I5
sS'venir '
p880
I2
sS'before '
p881
I1
sS'escape '
p882
I1
sS'let\\u2019 '
p883
I1
sS'would '
p884
I6
sS'arrived '
p885
I2
sS'down '
p886
I2
sS'advance '
p887
I2
sS'may '
p888
I1
sS'good '
p889
I2
sS'sorry '
p890
I1
sS'did '
p891
I1
sS'step '
p892
I10
sS'then '
p893
I1
sS'with '
p894
I3
sS'up '
p895
I8
sS'>> '
p896
I2
sS'few '
p897
I1
sS'won '
p898
I4
sS'follow '
p899
I9
sS'pop '
p900
I1
sS'thank '
p901
I4
sS'showing '
p902
I1
sS'came '
p903
I26
sS'wanna '
p904
I2
sS"'d "
p905
I2
sS'about '
p906
I1
sS'today '
p907
I1
sS'dropping '
p908
I1
sS'please '
p909
I1
sS'seem '
p910
I1
sS'pass '
p911
I1
sS'begun '
p912
I1
sS"'ve "
p913
I2
sS'let '
p914
I14
sS'yesterday '
p915
I1
sS'help '
p916
I4
sS'all '
p917
I2
sS'iast '
p918
I1
sS'enter '
p919
I2
sS'inaudibly '
p920
I1
sS"'re "
p921
I198
sS'trouble '
p922
I1
sS'house '
p923
I4
sS'me '
p924
I1
sS'getting '
p925
I48
sS'somewhere '
p926
I1
sS'got '
p927
I10
sS"'ll "
p928
I52
sS'telford '
p929
I1
sS'others '
p930
I1
sS'pour '
p931
I2
sS'should '
p932
I1
sS'aren '
p933
I4
sS'just '
p934
I4
sS'can '
p935
I44
sS'il '
p936
I1
sS'medic '
p937
I1
sS'come '
p938
I3128
sS'find '
p939
I4
sS'make '
p940
I14
sS'comming '
p941
I1
sS'alliance '
p942
I1
sS'coming, '
p943
I1
sS'tourniquet '
p944
I1
sS'leave '
p945
I1
sS'is '
p946
I11
sS'stay '
p947
I1
sS'drlver '
p948
I1
sS'think '
p949
I1
sS'through '
p950
I2
sS'received '
p951
I1
sS'travel '
p952
I1
sS'30 '
p953
I1
sS'arriving '
p954
I3
sS'chlckle '
p955
I1
sS'entered '
p956
I1
sS'office '
p957
I1
sS'show '
p958
I12
sS'go '
p959
I72
sS'happening '
p960
I6
sS'out '
p961
I7
sS"'s "
p962
I1
sS'happen '
p963
I10
sS'spirit '
p964
I1
sS'\\u266a '
p965
I1
sS're '
p966
I1
sS'here '
p967
I13
sS'stop '
p968
I2
sS'! '
p969
I1
sS'cheering '
p970
I2
sS'lemon '
p971
I1
sS'live '
p972
I1
sS'now '
p973
I6
sS'makes '
p974
I10
sS'want '
p975
I1
sS'bring '
p976
I1
sS'arablc '
p977
I1
sS'inbound '
p978
I1
sS'gather '
p979
I1
sS'spy '
p980
I1
sS'drop '
p981
I3
sS'eureka '
p982
I2
sS'be '
p983
I82
sS'there '
p984
I10
sS'hey '
p985
I1
sS'right '
p986
I2
sS'place '
p987
I7
sS'comeon '
p988
I1
sS'approaching '
p989
I1
sS'someday '
p990
I1
sS'enough '
p991
I4
sS'were '
p992
I3
sS'why '
p993
I4
sS'being '
p994
I1
sS'from '
p995
I2
sS'comer '
p996
I1
sS'leary '
p997
I2
sS'pull '
p998
I1
sS'c '
p999
I6
sS'you '
p1000
I1
sS'stays '
p1001
I1
sS'don '
p1002
I5
sS'turn '
p1003
I2
sS'arrive '
p1004
I7
sS'okay '
p1005
I3
sS'are '
p1006
I118
sS'us '
p1007
I4
sS'comings '
p1008
I3
sS'weep '
p1009
I1
sS'will '
p1010
I23
sS'papa '
p1011
I1
sS'access '
p1012
I1
sS'brings '
p1013
I6
sS'dolphin '
p1014
I1
sS'over '
p1015
I6
sS'comin '
p1016
I18
sS'meet '
p1017
I3
sS'scrambling '
p1018
I1
sS'coming '
p1019
I1028
sS'comes '
p1020
I26
sS'copenhagen '
p1021
I1
sS'visit '
p1022
I7
sS'aw '
p1023
I1
sS'look '
p1024
I2
sS', '
p1025
I4
sS'graduate '
p1026
I1
sS'do '
p1027
I55
sS'dare '
p1028
I3
sS'if '
p1029
I2
sS'stead '
p1030
I1
sS'reach '
p1031
I1
sS'wank '
p1032
I1
sS'walk '
p1033
I13
sS'heading '
p1034
I3
sS'move '
p1035
I7
sS'again '
p1036
I2
sS'hello '
p1037
I1
sS'made '
p1038
I1
sS'simon '
p1039
I1
sS'sudden '
p1040
I1
sS'esau '
p1041
I1
sS'believes '
p1042
I1
sS'shall '
p1043
I1
sS'way '
p1044
I15
sS'people '
p1045
I1
sS'get '
p1046
I515
sS'abductions '
p1047
I1
sS'incoming '
p1048
I1
sS'cyndy '
p1049
I1
sS'need '
p1050
I3
sS'back '
p1051
I3
sS'calm '
p1052
I2
sS'copy '
p1053
I6
sS'idea '
p1054
I1
stp1055
a((lp1056
S'bildet'
p1057
aS'Bildet'
p1058
a(dp1059
S'does '
p1060
I2
sS'setup '
p1061
I1
sS'form '
p1062
I2
sS'smug '
p1063
I1
sS'everyone '
p1064
I1
sS'dare '
p1065
I2
sS'queenle '
p1066
I1
sS'make '
p1067
I1
sS'imagining '
p1068
I1
sS'split '
p1069
I1
sS'forms '
p1070
I3
sS'prides '
p1071
I1
sS'imagines '
p1072
I1
stp1073
a((lp1074
S'w\xc3\xbcrde'
p1075
aS'W\xc3\xbcrde'
p1076
a(dp1077
S'dare '
p1078
I2
sS'going '
p1079
I8
sS'am '
p1080
I2
sS'honour '
p1081
I2
sS'ever '
p1082
I1
sS'd '
p1083
I14
sS'would '
p1084
I3598
sS'style '
p1085
I2
sS'mean '
p1086
I1
sS'21185 '
p1087
I1
sS'course '
p1088
I1
sS'did '
p1089
I5
sS'really '
p1090
I3
sS'won '
p1091
I66
sS'became '
p1092
I1
sS'counted '
p1093
I1
sS'came '
p1094
I2
sS'it '
p1095
I2
sS'hmm '
p1096
I1
sS'imagine '
p1097
I1
sS"'ve "
p1098
I2
sS'had '
p1099
I5
sS'birds '
p1100
I1
sS"'ii "
p1101
I1
sS"'ll "
p1102
I154
sS'dignity '
p1103
I52
sS'should '
p1104
I5
sS'seems '
p1105
I1
sS'just '
p1106
I5
sS'could '
p1107
I80
sS'that '
p1108
I3
sS'make '
p1109
I2
sS'wouldn '
p1110
I815
sS'stupid '
p1111
I2
sS'is '
p1112
I8
sS'message '
p1113
I1
sS'guess '
p1114
I3
sS'might '
p1115
I65
sS'think '
p1116
I9
sS'across '
p1117
I1
sS'contained '
p1118
I1
sS'maybe '
p1119
I1
sS"'ld "
p1120
I1
sS'ourfame '
p1121
I1
sS"'s "
p1122
I7
sS'woulda '
p1123
I1
sS'anyone '
p1124
I1
sS'knew '
p1125
I2
sS'woud '
p1126
I1
sS'hope '
p1127
I1
sS'wanna '
p1128
I6
sS'sawhow '
p1129
I1
sS'want '
p1130
I28
sS'wantsyou '
p1131
I1
sS'. '
p1132
I1
sS'wants '
p1133
I1
sS'now '
p1134
I1
sS'dress '
p1135
I1
sS'cognoscendi '
p1136
I1
sS'if '
p1137
I80
sS'were '
p1138
I26
sS'like '
p1139
I17
sS'doesn '
p1140
I1
sS'nobility '
p1141
I1
sS'ow '
p1142
I1
sS'couldn '
p1143
I10
sS'you '
p1144
I1
sS'dating '
p1145
I1
sS'partaking '
p1146
I1
sS'integrity '
p1147
I1
sS'what '
p1148
I1
sS'was '
p1149
I344
sS'said '
p1150
I1
sS'possibly '
p1151
I1
sS'later '
p1152
I1
sS'chloe '
p1153
I1
sS'ask '
p1154
I1
sS'take '
p1155
I1
sS'will '
p1156
I103
sS'distinction '
p1157
I1
sS'person '
p1158
I1
sS'gonna '
p1159
I44
sS'thought '
p1160
I4
sS"'d "
p1161
I2169
sS'******* '
p1162
I1
sS"'t "
p1163
I1
sS'wish '
p1164
I3
sS'though '
p1165
I3
sS'playing '
p1166
I1
sS', '
p1167
I10
sS'do '
p1168
I21
sS"'m "
p1169
I37
sS'willing '
p1170
I6
sS'emerson '
p1171
I1
sS'future '
p1172
I1
sS'does '
p1173
I16
sS'can '
p1174
I11
sS'never '
p1175
I3
sS'i '
p1176
I1
sS'wasn '
p1177
I21
sS'wanted '
p1178
I3
sS'allowable '
p1179
I1
sS'yeah '
p1180
I1
stp1181
a((lp1182
S'herausforderung'
p1183
aS'Herausforderung'
p1184
a(dp1185
S'prove '
p1186
I1
sS'challenge '
p1187
I105
sS'challenging '
p1188
I3
sS'goal '
p1189
I1
sS'achallenge '
p1190
I1
sS'dare '
p1191
I2
sS'dad '
p1192
I1
sS'where '
p1193
I1
sS'mick '
p1194
I1
sS'match '
p1195
I3
sS'interview '
p1196
I1
sS'skill '
p1197
I1
sS'challenges '
p1198
I3
stp1199
a((lp1200
S'pflicht'
p1201
aS'Pflicht'
p1202
a(dp1203
S'responsibility '
p1204
I5
sS'obliged '
p1205
I1
sS'had '
p1206
I2
sS'obligationto '
p1207
I1
sS'priority '
p1208
I2
sS'duty '
p1209
I128
sS'dare '
p1210
I2
sS'mandatory '
p1211
I1
sS'compulsory '
p1212
I1
sS'chore '
p1213
I1
sS'dares '
p1214
I1
sS'have '
p1215
I1
sS'duties '
p1216
I2
sS'job '
p1217
I8
sS'position '
p1218
I1
sS'obligation '
p1219
I7
sS'commandment '
p1220
I1
sS'supposed '
p1221
I3
stp1222
a((lp1223
S'erlauben'
p1224
aS'Erlauben'
p1225
a(dp1226
S'consent '
p1227
I1
sS'may '
p1228
I2
sS'permission '
p1229
I4
sS'ok '
p1230
I1
sS'have '
p1231
I2
sS'approve '
p1232
I2
sS'allowed '
p1233
I4
sS'break '
p1234
I1
sS'pardon '
p1235
I1
sS'do '
p1236
I9
sS'dare '
p1237
I2
sS'hump '
p1238
I1
sS'permit '
p1239
I11
sS'watch '
p1240
I1
sS'allow '
p1241
I104
sS'slipping '
p1242
I1
sS'afford '
p1243
I15
sS'i '
p1244
I1
sS'let '
p1245
I14
sS'excuse '
p1246
I2
sS'mind '
p1247
I6
sS'authorize '
p1248
I1
sS'allows '
p1249
I2
sS'allowing '
p1250
I2
stp1251
a((lp1252
S'trau'
p1253
aS'Trau'
p1254
a(dp1255
S'nerve '
p1256
I2
sS'dare '
p1257
I2
sS'go '
p1258
I6
sS'ask '
p1259
I1
sS'trau '
p1260
I1
sS'trust '
p1261
I5
stp1262
a((lp1263
S'konnten'
p1264
aS'Konnten'
p1265
a(dp1266
S'dare '
p1267
I2
sS'stood '
p1268
I1
sS'got '
p1269
I10
sS'hadn '
p1270
I6
sS'thought '
p1271
I2
sS"'d "
p1272
I5
sS'having '
p1273
I1
sS'eddie '
p1274
I1
sS'did '
p1275
I27
sS'didn '
p1276
I3
sS'could '
p1277
I178
sS'haven '
p1278
I2
sS'wouldn '
p1279
I3
sS'were '
p1280
I8
sS'religion '
p1281
I1
sS'can '
p1282
I18
sS'pulled '
p1283
I1
sS'might '
p1284
I1
sS'couldn '
p1285
I186
sS'able '
p1286
I19
sS"'ve "
p1287
I1
sS'managed '
p1288
I8
sS'get '
p1289
I2
sS'had '
p1290
I10
sS'notice '
p1291
I1
sS'go '
p1292
I1
sS'couldn\\u2019 '
p1293
I2
sS'unable '
p1294
I1
sS'to '
p1295
I1
stp1296
a((lp1297
S'unterstehen'
p1298
aS'Unterstehen'
p1299
a(dp1300
S'dare '
p1301
I2
sS'answer '
p1302
I2
sS'obey '
p1303
I4
sS'commissioned '
p1304
I1
stp1305
a((lp1306
S'traut'
p1307
aS'Traut'
p1308
a(dp1309
S'screams '
p1310
I1
sS'c '
p1311
I1
sS'oppose '
p1312
I1
sS'afraid '
p1313
I1
sS'wants '
p1314
I1
sS'dare '
p1315
I2
sS'oh '
p1316
I1
sS'trusts '
p1317
I4
sS'moving '
p1318
I1
sS'kent '
p1319
I1
sS'cool '
p1320
I1
sS'loose, '
p1321
I1
sS'trust '
p1322
I10
stp1323
a((lp1324
S'aktion'
p1325
aS'Aktion'
p1326
a(dp1327
S'one '
p1328
I1
sS'campaign '
p1329
I4
sS'actions '
p1330
I3
sS'move '
p1331
I1
sS'pulled '
p1332
I1
sS'poster, '
p1333
I1
sS'dare '
p1334
I2
sS'stunt '
p1335
I1
sS'operation '
p1336
I7
sS'body '
p1337
I1
sS'act '
p1338
I3
sS'down '
p1339
I1
sS'thing '
p1340
I1
sS'performance '
p1341
I1
sS'action '
p1342
I53
sS'or '
p1343
I1
stp1344
a((lp1345
S'darf'
p1346
aS'Darf'
p1347
a(dp1348
S'mayl '
p1349
I1
sS'dare '
p1350
I2
sS'may '
p1351
I364
sS'am '
p1352
I1
sS'permission '
p1353
I2
sS'would '
p1354
I8
sS'liberty '
p1355
I3
sS'cannot '
p1356
I52
sS'letting '
p1357
I3
sS'join '
p1358
I1
sS'possible '
p1359
I1
sS'gotta '
p1360
I4
sS'anjadodwaeyo '
p1361
I1
sS'crab '
p1362
I1
sS'if '
p1363
I10
sS'asposed '
p1364
I1
sS'isn '
p1365
I3
sS'heaven '
p1366
I2
sS'no '
p1367
I3
sS'mademoiselle '
p1368
I2
sS'senator '
p1369
I1
sS'nailing '
p1370
I1
sS'please '
p1371
I1
sS'let '
p1372
I47
sS'- '
p1373
I7
sS'sympathetic '
p1374
I1
sS'have '
p1375
I4
sS'the" '
p1376
I1
sS'sandstorm '
p1377
I1
sS'me '
p1378
I1
sS'has '
p1379
I4
sS"'ll "
p1380
I16
sS'having '
p1381
I1
sS'allowed '
p1382
I84
sS'daresay '
p1383
I1
sS'should '
p1384
I10
sS'or '
p1385
I2
sS'could '
p1386
I17
sS'come '
p1387
I3
sS'hancock '
p1388
I1
sS'is '
p1389
I8
sS'mind '
p1390
I74
sS'allow '
p1391
I11
sS'might '
p1392
I12
sS'say '
p1393
I1
sS'gets '
p1394
I17
sS'forbidden '
p1395
I1
sS'perhaps '
p1396
I1
sS'show '
p1397
I1
sS'joel '
p1398
I1
sS"'s "
p1399
I10
sS'cass '
p1400
I1
sS'must '
p1401
I27
sS'can\\u2019 '
p1402
I2
sS'myself '
p1403
I8
sS'want '
p1404
I21
sS'my '
p1405
I3
sS'right '
p1406
I1
sS'permit '
p1407
I2
sS'tofu '
p1408
I1
sS'endure '
p1409
I1
sS'flossing '
p1410
I3
sS'takes '
p1411
I2
sS'doesn '
p1412
I1
sS'million '
p1413
I1
sS'couldn '
p1414
I6
sS'don '
p1415
I1
sS'permitted '
p1416
I1
sS'what '
p1417
I3
sS'manner '
p1418
I1
sS'said '
p1419
I1
sS'storybook '
p1420
I2
sS'okay '
p1421
I1
sS'lion '
p1422
I1
sS'why '
p1423
I1
sS'take '
p1424
I3
sS'will '
p1425
I10
sS'to '
p1426
I6
sS'??????? '
p1427
I1
sS"' "
p1428
I1
sS"'d "
p1429
I2
sS'meet '
p1430
I5
sS'coming '
p1431
I4
sS'shouldn '
p1432
I5
sS'supposed '
p1433
I13
sS'keep '
p1434
I3
sS'do '
p1435
I21
sS"'m "
p1436
I1
sS'tung '
p1437
I1
sS'does '
p1438
I3
sS'can '
p1439
I693
sS'tali '
p1440
I1
sS'hello '
p1441
I1
sS'i '
p1442
I1
sS'mustn '
p1443
I10
sS'abalone '
p1444
I1
sS'shall '
p1445
I3
sS'excuse '
p1446
I3
sS'free '
p1447
I1
sS'get '
p1448
I20
sS'warschau '
p1449
I1
sS'need '
p1450
I5
sS'claim '
p1451
I4
sS'yeah '
p1452
I1
stp1453
a((lp1454
S'fordere'
p1455
aS'Fordere'
p1456
a(dp1457
S'hereby '
p1458
I1
sS'slack '
p1459
I1
sS'calling '
p1460
I6
sS'demand '
p1461
I3
sS'drag '
p1462
I1
sS'request '
p1463
I6
sS'claim '
p1464
I1
sS'dare '
p1465
I2
sS'require '
p1466
I3
sS'call '
p1467
I1
sS'try '
p1468
I1
sS'proven '
p1469
I1
sS'challenge '
p1470
I11
sS'requesting '
p1471
I1
sS'ordering '
p1472
I1
sS'tempt '
p1473
I2
sS'don '
p1474
I2
sS'encourage '
p1475
I2
sS'provide '
p1476
I1
sS'are '
p1477
I1
sS'ask '
p1478
I7
sS'asking '
p1479
I1
sS'micah '
p1480
I1
stp1481
a((lp1482
S'ja'
p1483
aS'Ja'
p1484
a(dp1485
S'lenny '
p1486
I1
sS'definitely '
p1487
I8
sS'stay '
p1488
I3
sS'united '
p1489
I1
sS'huge '
p1490
I1
sS'almost '
p1491
I1
sS'uhh '
p1492
I1
sS'wehh '
p1493
I2
sS'crezski '
p1494
I1
sS'tyler '
p1495
I1
sS'ouais '
p1496
I1
sS'geureomlgeo '
p1497
I1
sS'really '
p1498
I74
sS'absolutely '
p1499
I6
sS'up '
p1500
I1
sS'happy '
p1501
I1
sS'although '
p1502
I1
sS'mother '
p1503
I4
sS'turn '
p1504
I3
sS'uh- '
p1505
I2
sS'saltwater '
p1506
I1
sS'tote '
p1507
I1
sS'shall '
p1508
I3
sS'buddy '
p1509
I1
sS'everyone '
p1510
I1
sS'talk '
p1511
I1
sS'earlier '
p1512
I1
sS'child '
p1513
I1
sS'hmm '
p1514
I16
sS'phew '
p1515
I1
sS'tomorrow '
p1516
I1
sS'hat '
p1517
I1
sS'weil '
p1518
I4
sS'holy '
p1519
I2
sS'- '
p1520
I156
sS'help '
p1521
I1
sS'married '
p1522
I1
sS'sounds '
p1523
I4
sS'icon '
p1524
I1
sS'cal, '
p1525
I1
sS'suitcase '
p1526
I1
sS'letterhead '
p1527
I1
sS'sex '
p1528
I1
sS'shit '
p1529
I2
sS'else '
p1530
I2
sS'me '
p1531
I15
sS'remission '
p1532
I1
sS'pants '
p1533
I1
sS'somewhere '
p1534
I2
sS'her '
p1535
I2
sS'exact '
p1536
I1
sS'mama '
p1537
I2
sS'roy '
p1538
I1
sS'ha- '
p1539
I1
sS'weird '
p1540
I1
sS'should '
p1541
I1
sS'quiet '
p1542
I1
sS'aren '
p1543
I3
sS'desserts '
p1544
I1
sS'room '
p1545
I1
sS'warrant '
p1546
I1
sS'that '
p1547
I130
sS'make '
p1548
I1
sS'dust '
p1549
I1
sS'****** '
p1550
I1
sS'condom '
p1551
I1
sS'bo '
p1552
I1
sS'thompson '
p1553
I1
sS'understood '
p1554
I2
sS'him '
p1555
I2
sS'ask '
p1556
I1
sS'tigers '
p1557
I1
sS'propyltech '
p1558
I1
sS'wooooh '
p1559
I1
sS'lovely '
p1560
I1
sS'say '
p1561
I3
sS'everything '
p1562
I4
sS'harold '
p1563
I1
sS'madame '
p1564
I1
sS'when '
p1565
I1
sS'maybe '
p1566
I9
sS'reviewing '
p1567
I1
sS'likewise '
p1568
I1
sS'exports '
p1569
I1
sS'celebrate '
p1570
I1
sS'chris '
p1571
I1
sS'assistants '
p1572
I1
sS'must '
p1573
I2
sS'atoms '
p1574
I2
sS'cheerier '
p1575
I1
sS'here '
p1576
I17
sS'share '
p1577
I1
sS'fuck '
p1578
I1
sS'557 '
p1579
I1
sS'cheering '
p1580
I1
sS'yah '
p1581
I8
sS'butterflies '
p1582
I1
sS'bush '
p1583
I1
sS'plney '
p1584
I1
sS's\xc3\xad '
p1585
I3
sS'guess '
p1586
I3
sS'know '
p1587
I83
sS'bring '
p1588
I2
sS'incident '
p1589
I2
sS'logo '
p1590
I1
sS'right '
p1591
I437
sS'debate '
p1592
I1
sS'gosh '
p1593
I2
sS'janine '
p1594
I1
sS'watch '
p1595
I1
sS'sir '
p1596
I2
sS'hard '
p1597
I1
sS'ahye '
p1598
I1
sS'tanya '
p1599
I2
sS'ahead '
p1600
I1
sS'lisbeth '
p1601
I1
sS'beautiful '
p1602
I1
sS'gorgeous '
p1603
I2
sS'mops '
p1604
I1
sS'kurt '
p1605
I1
sS'means '
p1606
I1
sS'wire '
p1607
I3
sS'cute '
p1608
I1
sS'certainly '
p1609
I8
sS'and '
p1610
I2
sS'laughter '
p1611
I1
sS'take '
p1612
I3
sS'mr. '
p1613
I1
sS'big '
p1614
I1
sS'ahh '
p1615
I1
sS'she/ '
p1616
I1
sS'far '
p1617
I3
sS'gas '
p1618
I1
sS'scary '
p1619
I1
sS'zetas '
p1620
I1
sS'guy '
p1621
I1
sS'snap '
p1622
I2
sS'mouth '
p1623
I1
sS'bret '
p1624
I1
sS'precisely '
p1625
I2
sS'trustworthy '
p1626
I1
sS"'t "
p1627
I4
sS'keep '
p1628
I1
sS', '
p1629
I1
sS'bartender '
p1630
I1
sS'around '
p1631
I1
sS'serge '
p1632
I1
sS'axis '
p1633
I1
sS'soviet '
p1634
I1
sS's '
p1635
I3
sS'crumples '
p1636
I1
sS'black '
p1637
I1
sS'waits '
p1638
I1
sS'junior '
p1639
I4
sS'funny '
p1640
I2
sS'listen '
p1641
I4
sS'doublepuke '
p1642
I1
sS'moving '
p1643
I1
sS'mirror '
p1644
I1
sS'hear '
p1645
I7
sS'verona '
p1646
I1
sS'bosses '
p1647
I1
sS'sugarman '
p1648
I1
sS'writer '
p1649
I1
sS'ho '
p1650
I1
sS'oui '
p1651
I3
sS'speak '
p1652
I1
sS'won\\u2019 '
p1653
I1
sS'bentley '
p1654
I1
sS'need '
p1655
I2
sS'si '
p1656
I28
sS'mugging '
p1657
I1
sS'mine '
p1658
I1
sS'still '
p1659
I2
sS'ok, '
p1660
I1
sS'sweet '
p1661
I1
sS'dare '
p1662
I2
sS'da '
p1663
I1
sS'zoe '
p1664
I1
sS'uh '
p1665
I29
sS'y '
p1666
I3
sS'no '
p1667
I93
sS'would '
p1668
I6
sS'ok '
p1669
I61
sS'curfew '
p1670
I1
sS'jeez '
p1671
I1
sS'doc '
p1672
I2
sS'mom '
p1673
I4
sS'broach '
p1674
I1
sS'rings '
p1675
I1
sS'wow '
p1676
I9
sS'zane '
p1677
I1
sS'course '
p1678
I16
sS'already '
p1679
I4
sS'did '
p1680
I43
sS'michael '
p1681
I1
sS'then '
p1682
I12
sS'ready '
p1683
I6
sS'world '
p1684
I2
sS'if '
p1685
I7
sS'martin '
p1686
I1
sS'rock '
p1687
I1
sS'ferrls '
p1688
I3
sS'tahdon '
p1689
I1
sS'look '
p1690
I10
sS'owen '
p1691
I2
sS'fella '
p1692
I1
sS'reddish '
p1693
I1
sS'it '
p1694
I198
sS'operation '
p1695
I2
sS'383 '
p1696
I1
sS'extortion '
p1697
I1
sS'debra '
p1698
I1
sS'moses '
p1699
I1
sS'year '
p1700
I1
sS'mm- '
p1701
I1
sS'dizzy '
p1702
I1
sS'jason '
p1703
I1
sS'all '
p1704
I61
sS'hank '
p1705
I1
sS'our '
p1706
I1
sS'fine '
p1707
I32
sS"'re "
p1708
I4
sS'ledgers '
p1709
I1
sS'house '
p1710
I1
sS'roman '
p1711
I1
sS'correct '
p1712
I3
sS'ldpe '
p1713
I1
sS'got '
p1714
I8
sS'small '
p1715
I1
sS'as '
p1716
I2
sS'denholm '
p1717
I1
sS'jaaa '
p1718
I1
sS'mm '
p1719
I2
sS'aye, '
p1720
I1
sS'finished '
p1721
I1
sS'could '
p1722
I1
sS'bury '
p1723
I1
sS'yes '
p1724
I10458
sS'ye- '
p1725
I3
sS'jimmy '
p1726
I3
sS'is '
p1727
I41
sS'time '
p1728
I6
sS'nine '
p1729
I1
sS'yea '
p1730
I59
sS'even '
p1731
I1
sS'reaction '
p1732
I1
sS'senior '
p1733
I1
sS'mum '
p1734
I1
sS'fruit '
p1735
I1
sS'clink '
p1736
I1
sS'bella '
p1737
I1
sS'ken '
p1738
I3
sS'tricks '
p1739
I1
sS'shepard '
p1740
I1
sS'go '
p1741
I22
sS'hammersmark '
p1742
I1
sS'bags, '
p1743
I1
sS'dear '
p1744
I1
sS'ja '
p1745
I53
sS'veriyor '
p1746
I1
sS'warning '
p1747
I1
sS'orderlng '
p1748
I1
sS'but '
p1749
I13
sS'carson '
p1750
I1
sS'too '
p1751
I5
sS'bob '
p1752
I1
sS'have '
p1753
I6
sS'weeks, '
p1754
I1
sS'twist '
p1755
I1
sS'mmm '
p1756
I1
sS'nah '
p1757
I1
sS'st '
p1758
I1
sS'love '
p1759
I4
sS'idea '
p1760
I3
sS'be '
p1761
I1
sS'marry '
p1762
I3
sS'remember '
p1763
I2
sS'sure '
p1764
I106
sS'baby '
p1765
I3
sS'splashes '
p1766
I1
sS'laughs '
p1767
I6
sS'enough '
p1768
I1
sS'miller '
p1769
I1
sS'ooh '
p1770
I3
sS'don '
p1771
I4
sS'serious '
p1772
I1
sS'evan '
p1773
I1
sS'heh '
p1774
I2
sS'hoo '
p1775
I1
sS'sorta '
p1776
I1
sS'give '
p1777
I1
sS'bit '
p1778
I1
sS'twelve '
p1779
I1
sS'melody '
p1780
I1
sS'you- '
p1781
I1
sS'truly '
p1782
I1
sS'reggie '
p1783
I1
sS'hang '
p1784
I5
sS'maerlon '
p1785
I1
sS'girl '
p1786
I3
sS'avoid '
p1787
I1
sS'wh '
p1788
I1
sS'sheet '
p1789
I1
sS'huh '
p1790
I120
sS'german '
p1791
I1
sS'bet '
p1792
I4
sS'coming '
p1793
I2
sS'wrist '
p1794
I1
sS'hasselhoff '
p1795
I1
sS'fall '
p1796
I1
sS'well '
p1797
I302
sS'aw '
p1798
I1
sS'point '
p1799
I13
sS'397 '
p1800
I1
sS'i, '
p1801
I1
sS'boyfriend '
p1802
I1
sS'do '
p1803
I73
sS'guys '
p1804
I1
sS'understand '
p1805
I7
sS'damn '
p1806
I1
sS'bad '
p1807
I2
sS'window '
p1808
I1
sS'mr '
p1809
I1
sS'on '
p1810
I7
sS'very '
p1811
I9
sS'stall '
p1812
I1
sS'delectable '
p1813
I1
sS'screw '
p1814
I1
sS'tell '
p1815
I2
sS'ow '
p1816
I1
sS'moss '
p1817
I1
sS'nice '
p1818
I4
sS'clicks '
p1819
I1
sS'see '
p1820
I17
sS'honey '
p1821
I2
sS'fast '
p1822
I1
sS'real '
p1823
I2
sS'ride '
p1824
I1
sS'night '
p1825
I1
sS'saying '
p1826
I43
sS'russian '
p1827
I1
sS'paul '
p1828
I1
sS'yeah '
p1829
I18391
sS'one '
p1830
I2
sS'weren '
p1831
I1
sS'wonderful '
p1832
I5
sS'word '
p1833
I1
sS'knock '
p1834
I1
sS'nope '
p1835
I1
sS'hi '
p1836
I5
sS'dipshit '
p1837
I1
sS'mean '
p1838
I7
sS'was '
p1839
I4
sS'wayne '
p1840
I1
sS'mandy '
p1841
I1
sS'nervous '
p1842
I1
sS'white '
p1843
I1
sS'encrypted '
p1844
I1
sS'gotta '
p1845
I1
sS'true '
p1846
I7
sS'officiant '
p1847
I1
sS"'ello "
p1848
I1
sS'truck '
p1849
I2
sS'troopers '
p1850
I1
sS'pooping '
p1851
I1
sS'\\u1ea1 '
p1852
I1
sS'pretty '
p1853
I4
sS'agree '
p1854
I1
sS'z '
p1855
I1
sS'739 '
p1856
I1
sS'please '
p1857
I16
sS'the '
p1858
I6
sS'pass '
p1859
I1
sS'chairman '
p1860
I1
sS'disabled '
p1861
I1
sS'salami '
p1862
I1
sS'anything '
p1863
I1
sS'aye '
p1864
I33
sS'yeahdo '
p1865
I1
sS'apparently '
p1866
I1
sS'cherry '
p1867
I1
sS'mayor '
p1868
I1
sS'tempo '
p1869
I1
sS'crazy '
p1870
I2
sS'probably '
p1871
I3
sS'reaily '
p1872
I1
sS'punch '
p1873
I1
sS'heck '
p1874
I1
sS'# '
p1875
I1
sS'bye '
p1876
I2
sS'ireon '
p1877
I1
sS'job '
p1878
I2
sS'******** '
p1879
I1
sS'elllson '
p1880
I1
sS'conversation '
p1881
I1
sS'laughing '
p1882
I1
sS'because '
p1883
I4
sS'come '
p1884
I18
sS'2 '
p1885
I1
sS'man '
p1886
I7
sS'date '
p1887
I1
sS"'yes "
p1888
I4
sS'he '
p1889
I34
sS'rhode '
p1890
I1
sS'whatever '
p1891
I1
sS'mind '
p1892
I1
sS'anyway '
p1893
I6
sS'drink '
p1894
I2
sS'gross '
p1895
I1
sS'exactly '
p1896
I6
sS'asked '
p1897
I1
sS'si, '
p1898
I4
sS'oohing '
p1899
I1
sS'seriously '
p1900
I2
sS'honestly '
p1901
I1
sS'thanks '
p1902
I3
sS'epsteln '
p1903
I1
sS'huh, '
p1904
I1
sS'tolerance '
p1905
I1
sS'talked '
p1906
I1
sS'sort '
p1907
I1
sS'yep '
p1908
I187
sS'super '
p1909
I1
sS'check '
p1910
I1
sS"'s "
p1911
I19
sS'knee '
p1912
I1
sS'ish '
p1913
I1
sS'draw '
p1914
I1
sS'475 '
p1915
I1
sS'feud '
p1916
I1
sS'picture '
p1917
I1
sS'way '
p1918
I5
sS'armour '
p1919
I1
sS'knew '
p1920
I1
sS"'yeah "
p1921
I1
sS'squirrel '
p1922
I1
sS'sense '
p1923
I1
sS'axl '
p1924
I1
sS'lingo '
p1925
I1
sS'375 '
p1926
I1
sS"'magic "
p1927
I1
sS'hm '
p1928
I3
sS'zeah '
p1929
I1
sS'networker '
p1930
I1
sS'aha '
p1931
I3
sS'there '
p1932
I44
sS'hey '
p1933
I39
sS'won '
p1934
I2
sS'were '
p1935
I1
sS'yeah- '
p1936
I2
sS'fucking '
p1937
I1
sS'like '
p1938
I21
sS'thats '
p1939
I1
sS'rogova '
p1940
I1
sS'tray '
p1941
I1
sS'vampires '
p1942
I1
sS'raphael '
p1943
I1
sS'standing '
p1944
I1
sS'feds '
p1945
I1
sS'yes- '
p1946
I1
sS'dude '
p1947
I1
sS'okay '
p1948
I170
sS'clearly '
p1949
I1
sS'engine '
p1950
I1
sS'enjoy '
p1951
I1
sS'will '
p1952
I41
sS'who '
p1953
I3
sS'ya '
p1954
I33
sS'chart '
p1955
I1
sS'unh '
p1956
I1
sS'\\u00bf '
p1957
I9
sS'positive '
p1958
I2
sS"' "
p1959
I1
sS'no, '
p1960
I1
sS'said '
p1961
I1
sS'cellphone '
p1962
I1
sS'alright '
p1963
I8
sS'386 '
p1964
I1
sS'donaghy '
p1965
I2
sS'evet '
p1966
I2
sS'of '
p1967
I1
sS'though '
p1968
I3
sS'ls '
p1969
I3
sS'nice, '
p1970
I1
sS'moody '
p1971
I1
sS"'m "
p1972
I9
sS'484 '
p1973
I1
sS'dad '
p1974
I4
sS'your '
p1975
I1
sS'away '
p1976
I1
sS'baylin '
p1977
I1
sS'how '
p1978
I12
sS'eyesight '
p1979
I1
sS'some '
p1980
I3
sS'read '
p1981
I1
sS'bands '
p1982
I1
sS'little '
p1983
I4
sS'can '
p1984
I7
sS'sit '
p1985
I1
sS'queenle '
p1986
I1
sS'hello '
p1987
I9
sS'\\u0422\\u0430\\u0443\\u0440\\u0435\\u0442\\u0442\\u0430 '
p1988
I1
sS'chatter '
p1989
I1
sS'i '
p1990
I344
sS'been '
p1991
I1
sS'fake '
p1992
I1
sS'joy '
p1993
I1
sS'neil '
p1994
I1
sS'get '
p1995
I6
sS'sam '
p1996
I1
sS'great '
p1997
I6
sS'cool '
p1998
I6
sS'thing '
p1999
I17
sS'which '
p2000
I1
sS'going '
p2001
I1
sS'seconds '
p2002
I1
sS'only '
p2003
I4
sS'am '
p2004
I12
sS'memories '
p2005
I1
sS'penny '
p2006
I1
sS'250 '
p2007
I1
sS'actually '
p2008
I15
sS'perfect '
p2009
I1
sS'emmanuelle '
p2010
I1
sS'work '
p2011
I1
sS'thousand- '
p2012
I1
sS'oh, '
p2013
I1
sS'cellophane '
p2014
I1
sS'robber '
p2015
I1
sS'themto '
p2016
I1
sS'vd '
p2017
I1
sS'mensches '
p2018
I1
sS"'hare "
p2019
I1
sS'follow '
p2020
I1
sS'freshen '
p2021
I1
sS'mistake '
p2022
I1
sS'question '
p2023
I2
sS'thank '
p2024
I11
sS'ye '
p2025
I8
sS'fact '
p2026
I3
sS'lily '
p2027
I1
sS"'d "
p2028
I1
sS'sim '
p2029
I2
sS'native '
p2030
I1
sS'god '
p2031
I5
sS'sorry '
p2032
I4
sS'grey '
p2033
I1
sS'boelcke '
p2034
I1
sS'let '
p2035
I6
sS'we '
p2036
I27
sS'ha '
p2037
I4
sS'thinkin '
p2038
I1
sS'keeps '
p2039
I2
sS'ohh '
p2040
I2
sS'toilet '
p2041
I1
sS'illusion '
p2042
I1
sS'totally '
p2043
I4
sS'seem '
p2044
I1
sS'999 '
p2045
I1
sS'residence '
p2046
I1
sS'sheriff '
p2047
I1
sS"'ll "
p2048
I1
sS'jump '
p2049
I1
sS'second '
p2050
I1
sS'delinquency '
p2051
I1
sS'gentle '
p2052
I1
sS'just '
p2053
I40
sS'tony '
p2054
I1
sS'women '
p2055
I2
sS'glad '
p2056
I1
sS'badger '
p2057
I1
sS'flammable '
p2058
I1
sS'tara '
p2059
I2
sS'good '
p2060
I33
sS'wouldn '
p2061
I1
sS'crying '
p2062
I1
sS'indeed '
p2063
I13
sS'aldous '
p2064
I1
sS'yeahl '
p2065
I1
sS'castillion '
p2066
I1
sS'she '
p2067
I23
sS'oh '
p2068
I126
sS'512 '
p2069
I1
sS'fuckin '
p2070
I1
sS'marcus '
p2071
I1
sS'hej '
p2072
I1
sS'told '
p2073
I1
sS'yours '
p2074
I1
sS'briefing '
p2075
I1
sS'january '
p2076
I1
sS'snacks '
p2077
I1
sS'promise '
p2078
I1
sS'you/ '
p2079
I1
sS'kenneth '
p2080
I1
sS'mooing '
p2081
I1
sS'such '
p2082
I1
sS'um '
p2083
I8
sS'es '
p2084
I3
sS'quite '
p2085
I8
sS'r\xc3\xa9sum '
p2086
I1
sS'exclalms '
p2087
I1
sS'( '
p2088
I12
sS'now '
p2089
I25
sS'yay '
p2090
I9
sS'eagerly '
p2091
I1
sS'goggles '
p2092
I1
sS'allright '
p2093
I2
sS'my '
p2094
I6
sS'obviously '
p2095
I1
sS'knowso '
p2096
I1
sS'yup '
p2097
I42
sS'heilo '
p2098
I1
sS'long '
p2099
I1
sS'shaun '
p2100
I1
sS'maggie '
p2101
I1
sS'sarah '
p2102
I3
sS'cell '
p2103
I1
sS'8 '
p2104
I1
sS'why '
p2105
I17
sS'drill '
p2106
I2
sS'newton '
p2107
I1
sS'so '
p2108
I168
sS'ah '
p2109
I27
sS'agrees '
p2110
I1
sS'dunlop '
p2111
I1
sS'yesh '
p2112
I4
sS'smell '
p2113
I1
sS'460 '
p2114
I1
sS'you '
p2115
I167
sS'they '
p2116
I14
sS'objects '
p2117
I1
sS'what '
p2118
I70
sS'leads '
p2119
I1
sS'same '
p2120
I2
sS'this '
p2121
I2
sS'terminate '
p2122
I1
sS'are '
p2123
I40
sS'miss '
p2124
I1
sS'trying '
p2125
I5
sS'[ '
p2126
I10
sS'wait '
p2127
I7
sS'eh '
p2128
I16
sS'serbian '
p2129
I1
sS'goanna '
p2130
I1
sS'peter '
p2131
I1
sS'yeah, '
p2132
I473
sS'prepare '
p2133
I1
sS'apricots '
p2134
I1
sS'yes, '
p2135
I139
sS'everybody '
p2136
I1
sS'kind '
p2137
I6
sS'well, '
p2138
I3
sS'ho- '
p2139
I1
sS'424 '
p2140
I1
sS'problem '
p2141
I1
sS'phil '
p2142
I1
sS'ahem '
p2143
I1
sS'unprotected '
p2144
I1
sS'siell\xc3\xa4h\xc3\xa4n '
p2145
I1
sS'excellent '
p2146
I1
sS'jesus '
p2147
I1
sS'mistaking '
p2148
I1
sS'w- '
p2149
I1
sS'hurry '
p2150
I2
sS'not '
p2151
I10
sS'does '
p2152
I11
sS'a '
p2153
I20
sS'again '
p2154
I1
sS'isn '
p2155
I3
sS'whoa '
p2156
I2
sS'snlffles '
p2157
I1
sS'michelle '
p2158
I1
sS'congratulations '
p2159
I1
sS"'hh "
p2160
I1
sS'tequila '
p2161
I1
sS'in '
p2162
I2
sS'lutely '
p2163
I1
sS'unless '
p2164
I1
sS'excuse '
p2165
I4
sS'someone '
p2166
I1
sS'coffee '
p2167
I1
sS'yo '
p2168
I19
sS'stepping '
p2169
I1
sS'something '
p2170
I3
sS'finally '
p2171
I1
sS'foster '
p2172
I1
sS'driver '
p2173
I1
sS'seriously, '
p2174
I1
stp2175
a((lp2176
S'reise'
p2177
aS'Reise'
p2178
a(dp2179
S'dare '
p2180
I1
sS'going '
p2181
I1
sS'vacation '
p2182
I3
sS'housekeeper '
p2183
I1
sS'travels '
p2184
I1
sS'come '
p2185
I1
sS'leaving '
p2186
I8
sS'???????? '
p2187
I1
sS'voyage '
p2188
I15
sS'trek '
p2189
I1
sS'arrive '
p2190
I1
sS'fruitful '
p2191
I1
sS'travel '
p2192
I25
sS'musical '
p2193
I2
sS'holiday '
p2194
I3
sS"'m "
p2195
I3
sS'tripback '
p2196
I2
sS'trip '
p2197
I150
sS'away '
p2198
I2
sS'leave '
p2199
I1
sS'travelling '
p2200
I9
sS'time '
p2201
I1
sS'translatlng '
p2202
I1
sS'journeys '
p2203
I3
sS'heading '
p2204
I1
sS'tour '
p2205
I2
sS'trails '
p2206
I1
sS'road '
p2207
I2
sS'transit '
p2208
I1
sS'passage '
p2209
I2
sS'serious '
p2210
I1
sS'yeohaengwaseo '
p2211
I1
sS'journey '
p2212
I157
sS'journey, '
p2213
I1
sS'love '
p2214
I1
sS'flight '
p2215
I2
sS"'ll "
p2216
I2
sS'go '
p2217
I1
sS'departure '
p2218
I2
sS'ride '
p2219
I4
sS'yourjourney '
p2220
I1
sS'progress '
p2221
I2
sS'way '
p2222
I5
sS'gaza '
p2223
I1
sS'chimp '
p2224
I1
sS'traveling '
p2225
I4
stp2226
a((lp2227
S'gewagt'
p2228
aS'Gewagt'
p2229
a(dp2230
S'reckless '
p2231
I2
sS'bold '
p2232
I3
sS'fancy '
p2233
I1
sS'risky '
p2234
I1
sS'dare '
p2235
I1
sS'go '
p2236
I1
sS'daring '
p2237
I1
sS'ambitious '
p2238
I1
sS'dared '
p2239
I3
sS'bastards '
p2240
I1
stp2241
a((lp2242
S'anbieten'
p2243
aS'Anbieten'
p2244
a(dp2245
S'offer '
p2246
I105
sS'tooffer '
p2247
I1
sS'something, '
p2248
I1
sS'selling '
p2249
I1
sS'provide '
p2250
I7
sS'give '
p2251
I1
sS'sell '
p2252
I2
sS'got '
p2253
I1
sS'dare '
p2254
I1
sS'lend '
p2255
I1
sS'recently '
p2256
I1
sS'fetch '
p2257
I2
sS'offered '
p2258
I2
sS'get '
p2259
I2
sS'offering '
p2260
I3
sS'drink '
p2261
I1
sS'god '
p2262
I1
sS'lessons '
p2263
I1
sS'ring '
p2264
I1
stp2265
a((lp2266
S'staples'
p2267
aS'Staples'
p2268
a(dp2269
S'dare '
p2270
I1
stp2271
a((lp2272
S'jade'
p2273
aS'Jade'
p2274
a(dp2275
S'dare '
p2276
I1
sS'lose '
p2277
I1
sS'jade '
p2278
I24
stp2279
a((lp2280
S'erlaubst'
p2281
aS'Erlaubst'
p2282
a(dp2283
S'let '
p2284
I3
sS'do '
p2285
I3
sS'dare '
p2286
I1
sS'overlap '
p2287
I3
sS'permit '
p2288
I2
sS'allow '
p2289
I9
sS'oregon '
p2290
I1
stp2291
a((lp2292
S'eier'
p2293
aS'Eier'
p2294
a(dp2295
S'roo- '
p2296
I1
sS'pants '
p2297
I1
sS'balls '
p2298
I127
sS'outright '
p2299
I1
sS'egg '
p2300
I5
sS"'huevos "
p2301
I1
sS'dare '
p2302
I1
sS'bahhs '
p2303
I3
sS'ball '
p2304
I1
sS'nads '
p2305
I2
sS'stones '
p2306
I3
sS'cobblers '
p2307
I2
sS'farm- '
p2308
I1
sS'dirac '
p2309
I1
sS'cock '
p2310
I1
sS'eggs '
p2311
I122
sS'bails '
p2312
I1
sS'junk, '
p2313
I1
sS'nuts '
p2314
I19
sS'guts '
p2315
I4
sS'pills '
p2316
I1
sS'dick '
p2317
I2
sS'gut '
p2318
I2
sS'bollocks '
p2319
I4
sS'brass '
p2320
I1
stp2321
a((lp2322
S'aversion'
p2323
aS'Aversion'
p2324
a(dp2325
S'dare '
p2326
I1
sS'aversion '
p2327
I2
stp2328
a((lp2329
S'redest'
p2330
aS'Redest'
p2331
a(dp2332
S'bulimic '
p2333
I1
sS'speaking '
p2334
I2
sS'steal '
p2335
I1
sS'language '
p2336
I1
sS'said '
p2337
I1
sS'mean '
p2338
I1
sS'mouth '
p2339
I1
sS'redest '
p2340
I1
sS'did '
p2341
I2
sS'zack '
p2342
I2
sS'meant '
p2343
I1
sS'do '
p2344
I8
sS'dare '
p2345
I1
sS'estabas '
p2346
I1
sS'full '
p2347
I2
sS'interrupting '
p2348
I1
sS'singing '
p2349
I1
sS'flowers '
p2350
I1
sS'bothering '
p2351
I1
sS'being '
p2352
I1
sS'fucking '
p2353
I1
sS'talk '
p2354
I114
sS'loose '
p2355
I1
sS'noticed '
p2356
I1
sS'don '
p2357
I2
sS'about '
p2358
I1
sS'hear '
p2359
I1
sS'talkin '
p2360
I13
sS'say '
p2361
I1
sS'prisoner '
p2362
I1
sS'rude '
p2363
I1
sS'lil '
p2364
I1
sS'are '
p2365
I176
sS'speak '
p2366
I14
sS'ialking '
p2367
I1
sS'talking '
p2368
I547
sS'saying '
p2369
I1
sS"'re "
p2370
I3
sS'telling '
p2371
I1
sS'liv '
p2372
I1
sS'waegeurae '
p2373
I1
sS'fuck '
p2374
I1
stp2375
a((lp2376
S'nennst'
p2377
aS'Nennst'
p2378
a(dp2379
S'going '
p2380
I3
sS'313 '
p2381
I1
sS'name '
p2382
I5
sS'dare '
p2383
I1
sS'give '
p2384
I1
sS'calling '
p2385
I29
sS'snap '
p2386
I1
sS'call '
p2387
I102
sS'called '
p2388
I4
sS'say '
p2389
I1
sS'shrine '
p2390
I1
sS'jules '
p2391
I1
sS'is '
p2392
I6
sS"'handled "
p2393
I1
sS'brainwashed '
p2394
I1
stp2395
a((lp2396
S'verdreht'
p2397
aS'Verdreht'
p2398
a(dp2399
S'twisting '
p2400
I4
sS'twists '
p2401
I4
sS'spun '
p2402
I1
sS'dare '
p2403
I1
sS'show '
p2404
I1
sS'mixed '
p2405
I1
sS'backwards '
p2406
I2
sS'things\\u00b2all '
p2407
I1
sS'twisted '
p2408
I12
sS'fuck '
p2409
I1
sS'melissa '
p2410
I1
stp2411
a((lp2412
S'wow'
p2413
aS'Wow'
p2414
a(dp2415
S'uh '
p2416
I3
sS'rex '
p2417
I1
sS'what '
p2418
I5
sS'no '
p2419
I1
sS'messed '
p2420
I1
sS'perfect '
p2421
I1
sS'wow '
p2422
I879
sS'wow, '
p2423
I15
sS'did '
p2424
I1
sS'todd '
p2425
I1
sS'really '
p2426
I3
sS'absolutely '
p2427
I1
sS'article '
p2428
I1
sS'foxy '
p2429
I1
sS'rachel '
p2430
I1
sS'thank '
p2431
I1
sS'heaven '
p2432
I1
sS'mewow '
p2433
I1
sS'hmm '
p2434
I4
sS'liz '
p2435
I1
sS'cabernet '
p2436
I1
sS'wowed '
p2437
I2
sS'** '
p2438
I1
sS'holy '
p2439
I1
sS'- '
p2440
I3
sS'incredible '
p2441
I1
sS'personable '
p2442
I1
sS'keeps '
p2443
I1
sS'ohh '
p2444
I1
sS'accidents '
p2445
I1
sS'complications '
p2446
I1
sS'whatevs '
p2447
I1
sS'because '
p2448
I1
sS'at '
p2449
I1
sS'starts '
p2450
I1
sS'whew '
p2451
I2
sS'walter '
p2452
I1
sS'knees '
p2453
I1
sS'hello '
p2454
I1
sS'say '
p2455
I1
sS'feels '
p2456
I1
sS'caspita '
p2457
I1
sS'check '
p2458
I2
sS'aaaaa '
p2459
I1
sS'um '
p2460
I1
sS'theafre '
p2461
I1
sS'wo '
p2462
I1
sS'who\\u2019 '
p2463
I1
sS'excited '
p2464
I1
sS'fun '
p2465
I1
sS'minutes '
p2466
I1
sS'tights '
p2467
I1
sS'gosh '
p2468
I1
sS'enough '
p2469
I1
sS'watch '
p2470
I2
sS'why '
p2471
I1
sS'whoo '
p2472
I3
sS'so '
p2473
I3
sS'crap '
p2474
I1
sS'carly '
p2475
I1
sS'buggy '
p2476
I1
sS'ow '
p2477
I2
sS'you '
p2478
I2
sS'hearty '
p2479
I1
sS'wooh '
p2480
I2
sS'letter '
p2481
I1
sS'steve '
p2482
I1
sS'dude '
p2483
I1
sS'okay '
p2484
I2
sS'proud '
p2485
I1
sS'take '
p2486
I1
sS'ahh '
p2487
I1
sS'huh '
p2488
I1
sS'cahooted '
p2489
I1
sS'wooo '
p2490
I1
sS'well '
p2491
I12
sS'words '
p2492
I1
sS'smarts '
p2493
I1
sS'do '
p2494
I1
sS'dare '
p2495
I1
sS'guys '
p2496
I1
sS'damn '
p2497
I2
sS'maneuvering '
p2498
I1
sS'calvert '
p2499
I1
sS'rip '
p2500
I1
sS'funny '
p2501
I1
sS'back '
p2502
I1
sS'oh '
p2503
I8
sS'whoa '
p2504
I52
sS'awesome '
p2505
I2
sS'i '
p2506
I4
sS'woah '
p2507
I2
sS'don '
p2508
I2
sS'get '
p2509
I1
sS'elevators '
p2510
I1
sS'climbed '
p2511
I1
sS'creaking '
p2512
I1
sS'panda '
p2513
I1
sS'stingers '
p2514
I1
sS'great '
p2515
I1
sS'jail '
p2516
I1
sS'yeah '
p2517
I4
stp2518
a((lp2519
S'kommst'
p2520
aS'Kommst'
p2521
a(dp2522
S'weren '
p2523
I1
sS'going '
p2524
I2
sS'join '
p2525
I4
sS'gives '
p2526
I1
sS'would '
p2527
I8
sS'arrived '
p2528
I1
sS"'ii "
p2529
I1
sS'hanging '
p2530
I1
sS'good '
p2531
I1
sS'did '
p2532
I29
sS'joined '
p2533
I4
sS'orlando '
p2534
I1
sS'run '
p2535
I1
sS'won '
p2536
I2
sS'tux '
p2537
I1
sS'follow '
p2538
I2
sS'hail '
p2539
I1
sS'buddy '
p2540
I2
sS'raj '
p2541
I1
sS'came '
p2542
I18
sS'accompany '
p2543
I1
sS'wanna '
p2544
I7
sS'- '
p2545
I2
sS'have '
p2546
I2
sS"'re "
p2547
I132
sS'along '
p2548
I1
sS'dice '
p2549
I1
sS'getting '
p2550
I4
sS'mow '
p2551
I1
sS'sheldon '
p2552
I1
sS'bye '
p2553
I2
sS"'ll "
p2554
I32
sS'running '
p2555
I2
sS'tommy '
p2556
I1
sS'aren '
p2557
I3
sS'could '
p2558
I3
sS'come '
p2559
I335
sS'comming '
p2560
I2
sS'coming, '
p2561
I1
sS'is '
p2562
I1
sS'america '
p2563
I1
sS'segued '
p2564
I1
sS'areyou '
p2565
I1
sS'show '
p2566
I6
sS'go '
p2567
I9
sS'meudon '
p2568
I1
sS're '
p2569
I1
sS'way '
p2570
I1
sS'beer '
p2571
I1
sS'makes '
p2572
I21
sS'company '
p2573
I1
sS'want '
p2574
I3
sS'bring '
p2575
I1
sS'fiona '
p2576
I2
sS'drop '
p2577
I1
sS'luokseni '
p2578
I1
sS'be '
p2579
I2
sS'brought '
p2580
I1
sS'kod '
p2581
I1
sS'home '
p2582
I1
sS'adorable '
p2583
I1
sS'were '
p2584
I2
sS'why '
p2585
I4
sS'so '
p2586
I2
sS'ming '
p2587
I2
sS'from '
p2588
I3
sS'takes '
p2589
I1
sS'llncoln '
p2590
I1
sS'you '
p2591
I2
sS'don '
p2592
I12
sS'fleet '
p2593
I1
sS'gave '
p2594
I1
sS'what '
p2595
I2
sS'arrive '
p2596
I1
sS'are '
p2597
I124
sS'comin '
p2598
I2
sS'will '
p2599
I37
sS'holding '
p2600
I1
sS'back, '
p2601
I1
sS'gonna '
p2602
I1
sS'where '
p2603
I1
sS'wiii '
p2604
I2
sS"'d "
p2605
I18
sS'coming '
p2606
I245
sS'amy '
p2607
I2
sS'drive '
p2608
I1
sS'look '
p2609
I1
sS'do '
p2610
I54
sS'dare '
p2611
I1
sS'how '
p2612
I1
sS'here '
p2613
I3
sS'beat '
p2614
I2
sS'walk '
p2615
I4
sS'can '
p2616
I43
sS'made '
p2617
I4
sS'void '
p2618
I1
sS'taking '
p2619
I2
sS'get '
p2620
I60
sS'ride '
p2621
I1
sS'back '
p2622
I2
stp2623
a((lp2624
S'ladies'
p2625
aS'Ladies'
p2626
a(dp2627
S'ladies, '
p2628
I3
sS'ladies '
p2629
I205
sS'fugly '
p2630
I1
sS'dare '
p2631
I1
sS'all '
p2632
I1
stp2633
a((lp2634
S'warne'
p2635
aS'Warne'
p2636
a(dp2637
S'going '
p2638
I1
sS'better '
p2639
I1
sS'warned '
p2640
I1
sS'dare '
p2641
I1
sS'heads- '
p2642
I1
sS'warnin '
p2643
I1
sS'warn '
p2644
I18
sS'alert '
p2645
I1
sS'warning '
p2646
I27
sS'try '
p2647
I1
sS'heads '
p2648
I1
stp2649
a((lp2650
S'hofstadter'
p2651
aS'Hofstadter'
p2652
a(dp2653
S'dare '
p2654
I1
sS'hofstadter '
p2655
I4
sS'betrayal '
p2656
I1
stp2657
a((lp2658
S'opas'
p2659
aS'Opas'
p2660
a(dp2661
S'grandpa '
p2662
I3
sS'granddad '
p2663
I1
sS'dare '
p2664
I1
stp2665
a((lp2666
S'konntest'
p2667
aS'Konntest'
p2668
a(dp2669
S'dare '
p2670
I1
sS'ahold '
p2671
I1
sS'would '
p2672
I2
sS"'d "
p2673
I6
sS'have '
p2674
I1
sS'honey, '
p2675
I1
sS'practice '
p2676
I1
sS'did '
p2677
I51
sS'didn '
p2678
I5
sS'do '
p2679
I1
sS'could '
p2680
I164
sS'oh, '
p2681
I1
sS'able '
p2682
I1
sS'how '
p2683
I2
sS'stub '
p2684
I1
sS'were '
p2685
I3
sS'pathetic '
p2686
I1
sS'slams '
p2687
I1
sS'sac '
p2688
I1
sS'can '
p2689
I8
sS'couldn '
p2690
I88
sS'found '
p2691
I2
sS'unfortunate '
p2692
I1
sS'josh '
p2693
I1
sS'ones '
p2694
I1
sS'are '
p2695
I1
sS'had '
p2696
I1
sS'coulyou '
p2697
I1
sS'lovin '
p2698
I1
sS'lucky '
p2699
I1
stp2700
a((lp2701
S'dumm'
p2702
aS'Dumm'
p2703
a(dp2704
S'tease '
p2705
I1
sS'flatter '
p2706
I1
sS'dare '
p2707
I1
sS'deludedor '
p2708
I1
sS'too '
p2709
I3
sS'stupdid '
p2710
I1
sS'grown '
p2711
I1
sS'match '
p2712
I1
sS'no '
p2713
I1
sS'simple '
p2714
I2
sS'the '
p2715
I1
sS'egg '
p2716
I1
sS'court '
p2717
I1
sS'dumb '
p2718
I98
sS'unfortunately '
p2719
I1
sS'cry, '
p2720
I1
sS'chef '
p2721
I1
sS'shame '
p2722
I1
sS'dense '
p2723
I3
sS'flute '
p2724
I1
sS'dumbness '
p2725
I2
sS'bachelor '
p2726
I1
sS'parasite '
p2727
I1
sS'jammer '
p2728
I1
sS'sure '
p2729
I1
sS'eyebrows '
p2730
I1
sS'stupiddo '
p2731
I1
sS'stealing '
p2732
I1
sS'silly '
p2733
I35
sS'thickheaded '
p2734
I3
sS'bad '
p2735
I5
sS'stupid '
p2736
I412
sS'won '
p2737
I2
sS'thick '
p2738
I1
sS'americans '
p2739
I1
sS'smarter '
p2740
I2
sS'pathetic '
p2741
I1
sS'shouldn '
p2742
I1
sS'hide '
p2743
I1
sS'panda '
p2744
I1
sS'even '
p2745
I6
sS'bummer '
p2746
I2
sS'oh '
p2747
I1
sS'think '
p2748
I1
sS'noticed '
p2749
I1
sS'horrifying '
p2750
I1
sS'idiotic '
p2751
I1
sS'leave '
p2752
I2
sS'smart '
p2753
I2
sS'robotic '
p2754
I1
sS'somehow '
p2755
I1
sS'stupidity '
p2756
I1
sS'foolish '
p2757
I19
sS'nuts '
p2758
I1
sS'dashboard '
p2759
I1
sS'idiot '
p2760
I5
sS'idiots '
p2761
I1
sS'stupd '
p2762
I2
sS'imbecile '
p2763
I1
sS'ignorance '
p2764
I1
sS'fool '
p2765
I17
sS'no, '
p2766
I1
sS'gun '
p2767
I1
sS'stupid, '
p2768
I3
sS'gonna '
p2769
I1
sS'glowing '
p2770
I1
sS'copy '
p2771
I1
sS'dreamt '
p2772
I1
stp2773
a((lp2774
S'so'
p2775
aS'So'
p2776
a(dp2777
S'son '
p2778
I2
sS'feel '
p2779
I8
sS'matter '
p2780
I2
sS'dare '
p2781
I1
sS'going '
p2782
I2
sS'its '
p2783
I2
sS'only '
p2784
I1
sS'happy '
p2785
I2
sS'hardly '
p2786
I4
sS'violent '
p2787
I1
sS'no '
p2788
I16
sS'ever '
p2789
I3
sS'the '
p2790
I90
sS'hi '
p2791
I1
sS'ok '
p2792
I12
sS'honey '
p2793
I3
sS'style '
p2794
I1
sS'mean '
p2795
I4
sS'your '
p2796
I7
sS'looks '
p2797
I4
sS'procedure '
p2798
I1
sS'down '
p2799
I5
sS'rule '
p2800
I1
sS'perfect '
p2801
I1
sS'wow '
p2802
I1
sS'man '
p2803
I2
sS'reason '
p2804
I14
sS'did '
p2805
I4
sS'uh '
p2806
I1
sS'something '
p2807
I340
sS'then '
p2808
I29
sS'ladies '
p2809
I1
sS'really '
p2810
I72
sS'true '
p2811
I19
sS'up '
p2812
I8
sS'full '
p2813
I2
sS'housing '
p2814
I1
sS'seen '
p2815
I3
sS'iike '
p2816
I4
sS'if '
p2817
I9
sS'george '
p2818
I1
sS'things '
p2819
I7
sS'varies '
p2820
I1
sS'listen '
p2821
I2
sS'either '
p2822
I2
sS'pretending '
p2823
I24
sS'lacy '
p2824
I1
sS'spectacular '
p2825
I1
sS'nothin '
p2826
I1
sS'look '
p2827
I7
sS'sorta '
p2828
I1
sS'sometimes '
p2829
I1
sS'fact '
p2830
I2
sS'happened '
p2831
I4
sS'cock '
p2832
I1
sS'it '
p2833
I454
sS'almost '
p2834
I2
sS'anything '
p2835
I49
sS'more '
p2836
I12
sS'iooks '
p2837
I1
sS'geujase '
p2838
I1
sS'nothing '
p2839
I3
sS"'bout "
p2840
I1
sS'( '
p2841
I2
sS'seem '
p2842
I3
sS'sage, '
p2843
I1
sS'taels '
p2844
I1
sS"'ve "
p2845
I1
sS'we '
p2846
I8
sS'mark '
p2847
I1
sS'- '
p2848
I17
sS'all '
p2849
I184
sS'had '
p2850
I2
sS'our '
p2851
I1
sS'best '
p2852
I1
sS'enter '
p2853
I1
sS'\\u041e\\u0442\\u043b\\u0438\\u0447\\u043d\\u043e '
p2854
I1
sS'guess '
p2855
I2
sS"'re "
p2856
I2
sS'them '
p2857
I2
sS'kinda '
p2858
I1
sS'totally '
p2859
I5
sS'along '
p2860
I5
sS'never '
p2861
I1
sS'oh, '
p2862
I1
sS'by '
p2863
I1
sS'fun '
p2864
I1
sS'grunt '
p2865
I1
sS'other '
p2866
I1
sS'me '
p2867
I2
sS'correct '
p2868
I4
sS'a '
p2869
I64
sS'getting '
p2870
I2
sS'somewhere '
p2871
I1
sS'new '
p2872
I1
sS'arrghh '
p2873
I1
sS'hermannstadt '
p2874
I1
sS'forbid '
p2875
I1
sS'thuus '
p2876
I1
sS'small '
p2877
I2
sS'as '
p2878
I1754
sS'sood '
p2879
I1
sS'similar '
p2880
I2
sS'type '
p2881
I1
sS'an '
p2882
I2
sS'rhythm '
p2883
I1
sS'or '
p2884
I1
sS'lf '
p2885
I1
sS'dressed '
p2886
I1
sS'just '
p2887
I249
sS'because '
p2888
I4
sS'anyway '
p2889
I10
sS'at '
p2890
I13
sS'heavensh '
p2891
I1
sS'that '
p2892
I3207
sS'come '
p2893
I10
sS'motherfucker '
p2894
I1
sS'yes '
p2895
I11
sS'good '
p2896
I11
sS'goes '
p2897
I1
sS'pretty '
p2898
I2
sS'weshouldput '
p2899
I1
sS'is '
p2900
I2
sS'time '
p2901
I1
sS'thus '
p2902
I14
sS'dove '
p2903
I2
sS'even '
p2904
I10
sS'gaby '
p2905
I1
sS'doing '
p2906
I16
sS'stuff '
p2907
I61
sS'hooray '
p2908
I1
sS'she '
p2909
I10
sS'skyler '
p2910
I1
sS'brilliant '
p2911
I1
sS'exactly '
p2912
I18
sS'cal '
p2913
I1
sS'deal '
p2914
I1
sS'say '
p2915
I6
sS'everything '
p2916
I27
sS'big '
p2917
I5
sS'dead '
p2918
I2
sS'sort '
p2919
I42
sS'j\xc3\x84ger '
p2920
I1
sS'less '
p2921
I4
sS'go '
p2922
I30
sS'happening '
p2923
I1
sS'gig '
p2924
I1
sS'there '
p2925
I134
sS'such '
p2926
I953
sS'happen '
p2927
I6
sS't '
p2928
I1
sS'however '
p2929
I6
sS'those '
p2930
I31
sS'quite '
p2931
I8
sS'seems '
p2932
I1
sS'way '
p2933
I626
sS'always '
p2934
I4
sS'alcoholic '
p2935
I1
sS'boy '
p2936
I2
sS'but '
p2937
I2
sS'too '
p2938
I137
sS'case '
p2939
I4
sS'for '
p2940
I6
sS'makes '
p2941
I2
sS'with '
p2942
I7
sS'that\\u2019 '
p2943
I3
sS'have '
p2944
I2
sS'sun '
p2945
I4
sS'done '
p2946
I2
sS'know '
p2947
I1
sS'my '
p2948
I7
sS'else '
p2949
I1
sS'become '
p2950
I1
sS'sorry '
p2951
I2
sS'someth '
p2952
I1
sS'obvious '
p2953
I1
sS'. '
p2954
I1
sS'be '
p2955
I99
sS'now '
p2956
I60
sS'hey '
p2957
I3
sS'sure '
p2958
I3
sS'safe '
p2959
I1
sS'easy '
p2960
I5
sS'right '
p2961
I76
sS'incongruous '
p2962
I1
sS'enough '
p2963
I5
sS'careful '
p2964
I1
sS'... '
p2965
I1
sS'why '
p2966
I3
sS"' "
p2967
I3
sS'much '
p2968
I34
sS'so '
p2969
I9823
sS'ah '
p2970
I3
sS'from '
p2971
I4
sS'like '
p2972
I2316
sS'thats '
p2973
I4
sS'sound '
p2974
I3
sS'on '
p2975
I11
sS'keep '
p2976
I1
sS'so, '
p2977
I8
sS'you '
p2978
I120
sS'don '
p2979
I2
sS'grlta '
p2980
I1
sS'they '
p2981
I9
sS'necessarily '
p2982
I1
sS'whatever '
p2983
I7
sS'what '
p2984
I131
sS'was '
p2985
I1
sS'eventually '
p2986
I3
sS'another '
p2987
I18
sS'feeling '
p2988
I1
sS'fell '
p2989
I1
sS'this '
p2990
I1039
sS'abrasion '
p2991
I1
sS'acting '
p2992
I11
sS'okay '
p2993
I34
sS'shit '
p2994
I10
sS'give '
p2995
I4
sS'and '
p2996
I8
sS'bit '
p2997
I1
sS'old '
p2998
I1
sS'[ '
p2999
I2
sS'he '
p3000
I17
sS'amnesia '
p3001
I1
sS'asking '
p3002
I2
sS'to '
p3003
I7
sS'who '
p3004
I2
sS'shushlng '
p3005
I1
sS'dumb '
p3006
I1
sS'preventing '
p3007
I1
sS'being '
p3008
I18
sS'huh '
p3009
I6
sS'yup '
p3010
I1
sS'working '
p3011
I2
sS'awful '
p3012
I2
sS'where '
p3013
I3
sS'dying '
p3014
I1
sS'passable '
p3015
I1
sS'living '
p3016
I1
sS'crazy '
p3017
I2
sS'after '
p3018
I1
sS'alright '
p3019
I9
sS'kind '
p3020
I69
sS'high '
p3021
I1
sS'age '
p3022
I1
sS'half '
p3023
I2
sS'well '
p3024
I73
sS'nearly '
p3025
I1
sS'fucking '
p3026
I8
sS"'t "
p3027
I6
sS'these '
p3028
I50
sS'of '
p3029
I3
sS'though '
p3030
I3
sS'playing '
p3031
I1
sS'bends '
p3032
I1
sS"'s "
p3033
I28
sS'countless '
p3034
I1
sS'do '
p3035
I19
sS"'m "
p3036
I2
sS'seeing '
p3037
I1
sS'around '
p3038
I6
sS'girls '
p3039
I1
sS'excellent '
p3040
I1
sS'how '
p3041
I183
sS'damn '
p3042
I1
sS'bad '
p3043
I1
sS'benjamln '
p3044
I1
sS'ugly '
p3045
I1
sS'top '
p3046
I1
sS'way, '
p3047
I1
sS'some '
p3048
I7
sS'th '
p3049
I3
sS'does '
p3050
I1
sS'very '
p3051
I38
sS'" '
p3052
I3
sS'terrible '
p3053
I2
sS"'as "
p3054
I1
sS'indeed '
p3055
I1
sS'play '
p3056
I1
sS'oh '
p3057
I18
sS'looking '
p3058
I1
sS'necessary '
p3059
I1
sS'somethin '
p3060
I10
sS'completely '
p3061
I1
sS'nice '
p3062
I2
sS'hear '
p3063
I1
sS'see '
p3064
I39
sS'i '
p3065
I40
sS'been '
p3066
I25
sS'in '
p3067
I2
sS'? '
p3068
I1
sS'shall '
p3069
I1
sS'here '
p3070
I61
sS'people '
p3071
I1
sS'hold '
p3072
I1
sS'one '
p3073
I7
sS'get '
p3074
I3
sS'real '
p3075
I3
sS'same '
p3076
I32
sS'serious '
p3077
I2
sS'isn '
p3078
I1
sS'stop '
p3079
I1
sS'about '
p3080
I8
sS'cool '
p3081
I1
sS'not '
p3082
I10
sS'act '
p3083
I10
sS'thing '
p3084
I17
sS'rain '
p3085
I1
sS'still '
p3086
I1
sS'yeah '
p3087
I32
sS'which '
p3088
I1
stp3089
a((lp3090
S'tages'
p3091
aS'Tages'
p3092
a(dp3093
S'night '
p3094
I2
sS'hour '
p3095
I2
sS'am '
p3096
I1
sS'day, '
p3097
I7
sS'time '
p3098
I3
sS'eventually '
p3099
I6
sS'dare '
p3100
I1
sS'psychopaths '
p3101
I1
sS'volce '
p3102
I1
sS'tics '
p3103
I1
sS'muffled '
p3104
I1
sS'once '
p3105
I1
sS'days '
p3106
I10
sS'today '
p3107
I5
sS'someday '
p3108
I113
sS'fall '
p3109
I1
sS'also '
p3110
I1
sS'day '
p3111
I611
sS'daynwhen '
p3112
I1
stp3113
a((lp3114
S'unversch\xc3\xa4mt'
p3115
aS'Unversch\xc3\xa4mt'
p3116
a(dp3117
S'muggers '
p3118
I1
sS'rude '
p3119
I11
sS'coy '
p3120
I1
sS'bold '
p3121
I1
sS'impertinentness '
p3122
I1
sS'dare '
p3123
I1
sS'insolent '
p3124
I2
sS'unreasonable '
p3125
I2
sS'chutzpah '
p3126
I1
sS'cheekiness '
p3127
I1
sS'sassy '
p3128
I1
sS'outrageous '
p3129
I4
stp3130
a((lp3131
S'k\xc3\xb6nnen'
p3132
aS'K\xc3\xb6nnen'
p3133
a(dp3134
S"'m "
p3135
I1
sS'reporter '
p3136
I1
sS'may '
p3137
I49
sS'spells '
p3138
I1
sS'dad, '
p3139
I1
sS'what '
p3140
I1
sS'voi '
p3141
I1
sS'would '
p3142
I16
sS"'ii "
p3143
I1
sS'cannot '
p3144
I175
sS'better '
p3145
I1
sS'before '
p3146
I1
sS'did '
p3147
I3
sS'possible '
p3148
I3
sS'then '
p3149
I1
sS'gotta '
p3150
I3
sS'hell '
p3151
I1
sS'haven '
p3152
I1
sS'ready '
p3153
I6
sS'if '
p3154
I9
sS'am '
p3155
I1
sS'skill '
p3156
I7
sS'avoiding '
p3157
I1
sS'he/ '
p3158
I2
sS'it '
p3159
I1
sS'we '
p3160
I1
sS'please '
p3161
I2
sS'god '
p3162
I1
sS'chance '
p3163
I5
sS"'ve "
p3164
I14
sS'let '
p3165
I8
sS'anything '
p3166
I1
sS'help '
p3167
I1
sS'cant '
p3168
I3
sS'all '
p3169
I1
sS'keeps '
p3170
I1
sS'consequences '
p3171
I1
sS"'re "
p3172
I97
sS'them '
p3173
I1
sS'along '
p3174
I1
sS'any '
p3175
I1
sS'done '
p3176
I1
sS'me '
p3177
I1
sS'safe '
p3178
I1
sS'got '
p3179
I4
sS"'ll "
p3180
I48
sS'as '
p3181
I1
sS'should '
p3182
I14
sS'just '
p3183
I1
sS'at '
p3184
I1
sS'could '
p3185
I564
sS'stake '
p3186
I1
sS'come '
p3187
I3
sS'make '
p3188
I1
sS'leave '
p3189
I1
sS'is '
p3190
I12
sS'mind '
p3191
I2
sS'unpleasant '
p3192
I1
sS'challenge '
p3193
I1
sS'might '
p3194
I45
sS'think '
p3195
I1
sS'can, '
p3196
I2
sS'way '
p3197
I1
sS'able '
p3198
I211
sS'skills '
p3199
I3
sS'ability '
p3200
I2
sS'out '
p3201
I1
sS"'s "
p3202
I7
sS'knee '
p3203
I1
sS'must '
p3204
I4
sS'camera '
p3205
I1
sS'free '
p3206
I2
sS'fuck '
p3207
I1
sS'somethingl '
p3208
I1
sS'now '
p3209
I1
sS'saved '
p3210
I1
sS'have '
p3211
I69
sS'every '
p3212
I1
sS'know '
p3213
I7
sS'bring '
p3214
I1
sS'together '
p3215
I1
sS'patient '
p3216
I1
sS'there '
p3217
I3
sS'hey '
p3218
I2
sS'bite '
p3219
I1
sS'sure '
p3220
I1
sS'won '
p3221
I1
sS'ilmeesi '
p3222
I1
sS'c '
p3223
I1
sS'couldn '
p3224
I46
sS'you '
p3225
I1
sS'off '
p3226
I1
sS'they '
p3227
I1
sS'wondering '
p3228
I2
sS'this '
p3229
I1
sS'possibly '
p3230
I1
sS'can" '
p3231
I4
sS'are '
p3232
I37
sS'serena '
p3233
I1
sS'and '
p3234
I1
sS'put '
p3235
I1
sS'take '
p3236
I4
sS'will '
p3237
I38
sS'to '
p3238
I33
sS'use '
p3239
I1
sS'go '
p3240
I5
sS"'d "
p3241
I5
sS'spectator '
p3242
I1
sS'amy '
p3243
I1
sS'point '
p3244
I1
sS', '
p3245
I6
sS'do '
p3246
I115
sS'dare '
p3247
I1
sS'understand '
p3248
I1
sS'how '
p3249
I9
sS'can\\u2019 '
p3250
I2
sS'themselves '
p3251
I1
sS'brad '
p3252
I1
sS"'t "
p3253
I1
sS'can '
p3254
I7971
sS'welcome '
p3255
I2
sS'screw '
p3256
I2
sS'oh '
p3257
I1
sS'minimoto '
p3258
I1
sS'daddy '
p3259
I1
sS'shall '
p3260
I7
sS'here '
p3261
I2
sS'get '
p3262
I26
sS'need '
p3263
I1
sS'hold '
p3264
I1
sS'back '
p3265
I1
stp3266
a((lp3267
S'hallo'
p3268
aS'Hallo'
p3269
a(dp3270
S'samuel '
p3271
I1
sS'ahmet '
p3272
I1
sS'knock '
p3273
I1
sS'no '
p3274
I3
sS'nope '
p3275
I1
sS'dad '
p3276
I1
sS'hi '
p3277
I657
sS'ok '
p3278
I3
sS'hehho '
p3279
I2
sS'gunflre '
p3280
I1
sS'doc '
p3281
I1
sS'change '
p3282
I1
sS'lrene '
p3283
I1
sS'wow '
p3284
I1
sS'barely '
p3285
I1
sS'jake '
p3286
I1
sS'course '
p3287
I1
sS'clown '
p3288
I1
sS'dodge '
p3289
I1
sS'ta- '
p3290
I2
sS'gotta '
p3291
I1
sS'really '
p3292
I1
sS'how '
p3293
I14
sS'up '
p3294
I1
sS'ready '
p3295
I1
sS'kylie '
p3296
I2
sS'hi, '
p3297
I5
sS'pleasure '
p3298
I3
sS'equlpment '
p3299
I1
sS'team '
p3300
I1
sS'clock '
p3301
I1
sS'norm '
p3302
I2
sS'mads '
p3303
I1
sS'thank '
p3304
I2
sS'this '
p3305
I3
sS"'day "
p3306
I2
sS'hallo '
p3307
I21
sS'donovan '
p3308
I1
sS'happened '
p3309
I1
sS'it '
p3310
I1
sS'bigbro '
p3311
I2
sS'great '
p3312
I1
sS'radio '
p3313
I1
sS'octave '
p3314
I1
sS'yello '
p3315
I1
sS'blt '
p3316
I1
sS'weeks '
p3317
I1
sS'beavers '
p3318
I1
sS'we '
p3319
I1
sS'- '
p3320
I11
sS'help '
p3321
I1
sS'hank '
p3322
I1
sS'hello, '
p3323
I32
sS'fine '
p3324
I2
sS'totally '
p3325
I1
sS'rob '
p3326
I1
sS'chase, '
p3327
I1
sS'howdy '
p3328
I36
sS'mumbai '
p3329
I2
sS'buns '
p3330
I1
sS'hello\xc3\xa1 '
p3331
I2
sS'miss '
p3332
I2
sS'marion '
p3333
I1
sS'hell0 '
p3334
I1
sS'alex '
p3335
I1
sS'second '
p3336
I2
sS'quiet '
p3337
I1
sS'hola '
p3338
I5
sS'that '
p3339
I1
sS'come '
p3340
I5
sS'yes '
p3341
I8
sS'good '
p3342
I6
sS'cheers '
p3343
I1
sS'dixon '
p3344
I1
sS'sandy '
p3345
I1
sS'wermling '
p3346
I1
sS'is '
p3347
I2
sS'holla '
p3348
I2
sS'sunwoo '
p3349
I1
sS'woo- '
p3350
I1
sS'doing '
p3351
I3
sS'jaws '
p3352
I1
sS'rhys '
p3353
I1
sS'she '
p3354
I1
sS'exactly '
p3355
I1
sS'ella '
p3356
I1
sS'mum '
p3357
I2
sS'hey, '
p3358
I1
sS'becky '
p3359
I1
sS'cum '
p3360
I1
sS'bobinsky '
p3361
I1
sS'mnh '
p3362
I1
sS'thanks '
p3363
I3
sS'oraenmanlya '
p3364
I1
sS'noodling '
p3365
I1
sS'tears '
p3366
I1
sS'go '
p3367
I2
sS'r '
p3368
I1
sS'um '
p3369
I1
sS'how- '
p3370
I1
sS'here '
p3371
I2
sS'tara '
p3372
I1
sS'ciao '
p3373
I2
sS'but '
p3374
I1
sS'lemon '
p3375
I2
sS'speaking '
p3376
I1
sS'khosrow '
p3377
I1
sS'morning '
p3378
I3
sS'late '
p3379
I1
sS'scared '
p3380
I1
sS'know '
p3381
I1
sS'honey '
p3382
I1
sS'mmm '
p3383
I1
sS'doin '
p3384
I1
sS'santa '
p3385
I1
sS'heilo '
p3386
I23
sS'18 '
p3387
I1
sS'heya '
p3388
I1
sS'bianca '
p3389
I1
sS'mikael '
p3390
I1
sS'in '
p3391
I1
sS'there '
p3392
I5
sS'hey '
p3393
I283
sS'richie '
p3394
I1
sS'shaun '
p3395
I1
sS'right '
p3396
I6
sS'bars '
p3397
I1
sS'static- '
p3398
I1
sS'went '
p3399
I1
sS'dan '
p3400
I1
sS'whoo '
p3401
I1
sS'so '
p3402
I2
sS'ah '
p3403
I1
sS'fucking '
p3404
I1
sS'maybe '
p3405
I1
sS'ooh '
p3406
I4
sS'ahead '
p3407
I1
sS'what '
p3408
I10
sS'hiya '
p3409
I5
sS'jen '
p3410
I1
sS'cat '
p3411
I1
sS'tlmbre '
p3412
I2
sS'okay '
p3413
I1
sS'grasp '
p3414
I1
sS'certainly '
p3415
I1
sS'superhero '
p3416
I1
sS'[ '
p3417
I5
sS'anyone '
p3418
I3
sS'hey~ '
p3419
I1
sS'who '
p3420
I2
sS'june '
p3421
I1
sS'greetings '
p3422
I3
sS'researchers '
p3423
I1
sS'shaky '
p3424
I1
sS'frank '
p3425
I1
sS'blomkvist '
p3426
I1
sS'blank '
p3427
I1
sS'everybody '
p3428
I2
sS'meet '
p3429
I1
sS'theme '
p3430
I1
sS'brother '
p3431
I1
sS'rush '
p3432
I1
sS'parking '
p3433
I1
sS'well '
p3434
I4
sS'microwave '
p3435
I1
sS'extra '
p3436
I1
sS'look '
p3437
I1
sS'telephone '
p3438
I1
sS'muckety- '
p3439
I1
sS'abby '
p3440
I1
sS'chevy '
p3441
I1
sS'guys '
p3442
I2
sS'happens '
p3443
I2
sS'excellent '
p3444
I1
sS'gs '
p3445
I1
sS'charleston '
p3446
I1
sS'congratulations '
p3447
I1
sS'<hello '
p3448
I2
sS'dare '
p3449
I1
sS'kai '
p3450
I1
sS'talk '
p3451
I2
sS'calm '
p3452
I1
sS'can '
p3453
I3
sS'move '
p3454
I1
sS'welcome '
p3455
I13
sS'deakies '
p3456
I1
sS'mitzvah '
p3457
I1
sS'oh '
p3458
I10
sS'hello '
p3459
I3448
sS'nice '
p3460
I3
sS'sean '
p3461
I1
sS'see '
p3462
I2
sS'i '
p3463
I12
sS"'hello "
p3464
I4
sS'afternoon '
p3465
I5
sS'donahues '
p3466
I1
sS'excuse '
p3467
I9
sS'someone '
p3468
I1
sS'mia '
p3469
I1
sS'real '
p3470
I2
sS'gone '
p3471
I1
sS'yo '
p3472
I3
sS'friendly '
p3473
I1
sS'gaines '
p3474
I1
sS'hold '
p3475
I1
sS'haley '
p3476
I1
sS'yeah '
p3477
I6
stp3478
a((lp3479
S'griechisch-'
p3480
aS'Griechisch-'
p3481
a(dp3482
S'dare '
p3483
I1
sS'mirror '
p3484
I1
stp3485
a((lp3486
S'unterstehe'
p3487
aS'Unterstehe'
p3488
a(dp3489
S'dare '
p3490
I1
stp3491
a((lp3492
S'20'
p3493
aS'20'
p3494
a(dp3495
S'house '
p3496
I2
sS'twenty- '
p3497
I2
sS'8 '
p3498
I46
sS'\\u00c2\\u00a320 '
p3499
I2
sS'eight '
p3500
I8
sS'40 '
p3501
I2
sS'28 '
p3502
I2
sS'dare '
p3503
I2
sS'there '
p3504
I2
sS'owns '
p3505
I2
sS'crap '
p3506
I2
sS'20th '
p3507
I2
sS'20 '
p3508
I1860
sS'horrible '
p3509
I2
sS'cadets '
p3510
I2
sS'twenties '
p3511
I4
sS'$20 '
p3512
I42
sS'let '
p3513
I2
sS'- '
p3514
I4
sS'20s '
p3515
I8
sS'twenty '
p3516
I156
sS'80 '
p3517
I2
sS'68 '
p3518
I2
sS'\\u00e2\\u0099\\u00aa '
p3519
I2
sS'20- '
p3520
I30
sS'60 '
p3521
I2
stp3522
a((lp3523
S'd\xc3\xbcrfte'
p3524
aS'D\xc3\xbcrfte'
p3525
a(dp3526
S'could '
p3527
I21
sS'may '
p3528
I45
sS'gonna '
p3529
I2
sS'flatly '
p3530
I1
sS'worth '
p3531
I1
sS'would '
p3532
I6
sS"'d "
p3533
I3
sS"'ll "
p3534
I3
sS'chat '
p3535
I1
sS'shouldn '
p3536
I9
sS'allowed '
p3537
I1
sS'partycoming '
p3538
I1
sS'should '
p3539
I7
sS'well '
p3540
I1
sS'supposed '
p3541
I4
sS'course '
p3542
I1
sS'be '
p3543
I2
sS'ladies '
p3544
I1
sS'wouldn '
p3545
I5
sS'if '
p3546
I10
sS'won '
p3547
I1
sS'is '
p3548
I1
sS'dare '
p3549
I1
sS'can '
p3550
I11
sS'might '
p3551
I15
sS'couldn '
p3552
I3
sS'think '
p3553
I3
sS'ought '
p3554
I6
sS'lot '
p3555
I1
sS'remedial '
p3556
I1
sS'mind '
p3557
I28
sS'weighs '
p3558
I1
sS'care '
p3559
I1
sS'will '
p3560
I1
sS'probably '
p3561
I1
sS'free '
p3562
I1
stp3563
a((lp3564
S'will'
p3565
aS'Will'
p3566
a(dp3567
S'dare '
p3568
I1
sS'going '
p3569
I11
sS'am '
p3570
I31
sS'smash '
p3571
I1
sS'no '
p3572
I2
sS'd '
p3573
I1
sS'would '
p3574
I40
sS"'ii "
p3575
I1
sS'mean '
p3576
I14
sS'wishes '
p3577
I3
sS'stay '
p3578
I1
sS'hateful '
p3579
I1
sS'course '
p3580
I1
sS'll '
p3581
I1
sS'did '
p3582
I9
sS'gotta '
p3583
I9
sS'buying '
p3584
I1
sS'ready '
p3585
I1
sS'won '
p3586
I153
sS'wont '
p3587
I2
sS'try '
p3588
I13
sS'hope '
p3589
I2
sS'cut '
p3590
I1
sS'penises '
p3591
I1
sS'came '
p3592
I13
sS'welcome '
p3593
I1
sS'pairs '
p3594
I1
sS'wants, '
p3595
I1
sS'grind '
p3596
I1
sS'please '
p3597
I7
sS'the '
p3598
I1
sS"'ve "
p3599
I7
sS'let '
p3600
I8
sS'tried '
p3601
I1
sS'hermaphrodite '
p3602
I1
sS'hate '
p3603
I4
sS'have '
p3604
I10
sS'refuses '
p3605
I2
sS'will, '
p3606
I2
sS'demand '
p3607
I1
sS'by '
p3608
I1
sS'determined '
p3609
I1
sS'me '
p3610
I29
sS'know '
p3611
I3
sS'getting '
p3612
I3
sS"'want "
p3613
I1
sS'got '
p3614
I12
sS'has '
p3615
I5
sS"'ll "
p3616
I111
sS'wanting '
p3617
I22
sS'needs '
p3618
I14
sS'decided '
p3619
I2
sS'desire '
p3620
I2
sS'should '
p3621
I3
sS'just '
p3622
I8
sS'could '
p3623
I6
sS'come '
p3624
I1
sS'find '
p3625
I1
sS'make '
p3626
I1
sS'wouldn '
p3627
I5
sS'goes '
p3628
I1
sS'thinks '
p3629
I2
sS'is '
p3630
I72
sS'she '
p3631
I2
sS'recommending '
p3632
I1
sS'after '
p3633
I2
sS'asked '
p3634
I4
sS'rolled '
p3635
I1
sS'told '
p3636
I2
sS'obsession '
p3637
I1
sS'detentions '
p3638
I1
sS'say '
p3639
I2
sS'suits '
p3640
I1
sS'went '
p3641
I2
sS'maybe '
p3642
I1
sS'out '
p3643
I1
sS"'s "
p3644
I211
sS'must '
p3645
I1
sS'cannot '
p3646
I1
sS'seeker '
p3647
I1
sS'wi '
p3648
I1
sS'allowing '
p3649
I1
sS'suggests '
p3650
I2
sS'decides '
p3651
I1
sS'for '
p3652
I3
sS'wanna '
p3653
I797
sS'want '
p3654
I5931
sS'likes '
p3655
I7
sS'i '
p3656
I1
sS'bring '
p3657
I1
sS'girlfriend '
p3658
I1
sS'chuck '
p3659
I1
sS'own '
p3660
I1
sS'wants '
p3661
I1810
sS'sure '
p3662
I1
sS'baby '
p3663
I1
sS'right '
p3664
I1
sS'if '
p3665
I2
sS'epidural '
p3666
I1
sS'choice '
p3667
I1
sS'makin '
p3668
I1
sS'interested '
p3669
I3
sS'bitch '
p3670
I1
sS'like '
p3671
I28
sS'doesn '
p3672
I51
sS'allison '
p3673
I1
sS'couldn '
p3674
I1
sS'pleases '
p3675
I5
sS'don '
p3676
I353
sS'eyebrow '
p3677
I1
sS'what '
p3678
I1
sS'means '
p3679
I5
sS'said '
p3680
I6
sS'tries '
p3681
I3
sS'plans '
p3682
I4
sS'wills '
p3683
I5
sS'give '
p3684
I4
sS'william '
p3685
I6
sS'wa '
p3686
I1
sS'trying '
p3687
I153
sS'wollt '
p3688
I1
sS'ask '
p3689
I10
sS'take '
p3690
I2
sS'asking '
p3691
I7
sS'will '
p3692
I652
sS'to '
p3693
I136
sS'dreamed '
p3694
I1
sS'gonna '
p3695
I9
sS"'d "
p3696
I88
sS'mouth '
p3697
I2
sS'plan '
p3698
I1
sS'comes '
p3699
I1
sS'minuun '
p3700
I2
sS'well '
p3701
I3
sS'wish '
p3702
I18
sS'keep '
p3703
I1
sS'says '
p3704
I6
sS', '
p3705
I2
sS'wantto '
p3706
I1
sS'do '
p3707
I113
sS"'m "
p3708
I339
sS'willing '
p3709
I14
sS'call '
p3710
I1
sS'sealed '
p3711
I1
sS'eager '
p3712
I1
sS'does '
p3713
I68
sS'a '
p3714
I1
sS'asks '
p3715
I3
sS'sesame '
p3716
I1
sS'can '
p3717
I37
sS'arena '
p3718
I1
sS'both '
p3719
I1
sS'looking '
p3720
I4
sS'tell '
p3721
I1
sS'chooses '
p3722
I2
sS'my '
p3723
I1
sS'shall '
p3724
I1
sS'intend '
p3725
I2
sS'get '
p3726
I6
sS'wanted '
p3727
I136
sS'need '
p3728
I143
sS'about '
p3729
I1
sS'dread '
p3730
I2
stp3731
a((lp3732
S'erinnerung'
p3733
aS'Erinnerung'
p3734
a(dp3735
S'reminding '
p3736
I1
sS'remind '
p3737
I4
sS'fondly '
p3738
I2
sS'memories '
p3739
I12
sS'm\xc3\xa9moire '
p3740
I1
sS'remember '
p3741
I55
sS'her- '
p3742
I1
sS'memorialize '
p3743
I2
sS'rember '
p3744
I1
sS'dare '
p3745
I1
sS'up '
p3746
I1
sS'recollection '
p3747
I3
sS'cheryl '
p3748
I1
sS'souvenir '
p3749
I1
sS'mind '
p3750
I3
sS'reminder '
p3751
I24
sS'image '
p3752
I1
sS'remembering '
p3753
I1
sS'flashback '
p3754
I1
sS'memorable '
p3755
I1
sS'memento '
p3756
I1
sS'remembered '
p3757
I7
sS'memory '
p3758
I166
sS'ask '
p3759
I1
sS'subcranium '
p3760
I2
sS'thing '
p3761
I1
sS'demanding '
p3762
I2
sS'recall '
p3763
I3
stp3764
a((lp3765
S'weeks'
p3766
aS'Weeks'
p3767
a(dp3768
S'dare '
p3769
I1
stp3770
a((lp3771
S'gekauft'
p3772
aS'Gekauft'
p3773
a(dp3774
S'bobby '
p3775
I1
sS'money '
p3776
I1
sS'lemon '
p3777
I1
sS'jag '
p3778
I1
sS'for '
p3779
I2
sS'dad '
p3780
I1
sS'picked '
p3781
I2
sS'sighs '
p3782
I1
sS'ease '
p3783
I2
sS'scythe '
p3784
I1
sS'obama '
p3785
I1
sS'dare '
p3786
I1
sS'brought '
p3787
I1
sS'kn '
p3788
I1
sS'buying '
p3789
I26
sS'purchased '
p3790
I12
sS'bought '
p3791
I347
sS'\\u00e2t\\u00aa '
p3792
I2
sS'wash- '
p3793
I1
sS'purchase '
p3794
I2
sS'goodie '
p3795
I1
sS'sold '
p3796
I1
sS'buy '
p3797
I42
sS'get '
p3798
I3
sS'expressive '
p3799
I1
sS'boyfriend '
p3800
I1
sS'take '
p3801
I3
stp3802
a((lp3803
S'seminare'
p3804
aS'Seminare'
p3805
a(dp3806
S'seminars '
p3807
I7
sS'dare '
p3808
I1
sS'classes '
p3809
I1
stp3810
a((lp3811
S'wagten'
p3812
aS'Wagten'
p3813
a(dp3814
S'dare '
p3815
I1
stp3816
a((lp3817
S'dringst'
p3818
aS'Dringst'
p3819
a(dp3820
S'dare '
p3821
I1
sS'violate '
p3822
I1
stp3823
a((lp3824
S'fortpflanzung'
p3825
aS'Fortpflanzung'
p3826
a(dp3827
S'reproducing '
p3828
I1
sS'dare '
p3829
I1
sS'reproduction '
p3830
I6
sS'mind '
p3831
I1
sS'breeding '
p3832
I1
stp3833
a((lp3834
S'blo\xc3\x9f'
p3835
aS'Blo\xc3\x9f'
p3836
a(dp3837
S'anesthesiologist '
p3838
I1
sS'matter '
p3839
I1
sS'merely '
p3840
I20
sS'going '
p3841
I8
sS'better '
p3842
I2
sS'only '
p3843
I45
sS'filming '
p3844
I1
sS'ever '
p3845
I2
sS'with '
p3846
I1
sS'simply '
p3847
I2
sS'hesitate '
p3848
I2
sS'but '
p3849
I5
sS'mean '
p3850
I1
sS'bullshit '
p3851
I1
sS'nerves '
p3852
I1
sS'doa '
p3853
I1
sS"'t "
p3854
I1
sS'purely '
p3855
I1
sS'just '
p3856
I420
sS'wrestle '
p3857
I1
sS'know '
p3858
I1
sS'want '
p3859
I1
sS'do '
p3860
I6
sS'gonna '
p3861
I5
sS'wonder '
p3862
I1
sS'absolutely '
p3863
I1
sS'up '
p3864
I3
sS'dare '
p3865
I1
sS'sure '
p3866
I1
sS'baby '
p3867
I1
sS'hell '
p3868
I2
sS'right '
p3869
I1
sS'turned '
p3870
I1
sS'is '
p3871
I3
sS'huge '
p3872
I1
sS'put '
p3873
I2
sS'26, '
p3874
I1
sS'doing '
p3875
I1
sS'came '
p3876
I1
sS'wrestling '
p3877
I1
sS'be '
p3878
I1
sS'stringing '
p3879
I1
sS'it '
p3880
I2
sS'forbid '
p3881
I1
sS'don '
p3882
I11
sS'knock '
p3883
I1
sS'way '
p3884
I4
sS'was '
p3885
I1
sS'mustn '
p3886
I1
sS'young '
p3887
I1
sS'... '
p3888
I4
sS'possibly '
p3889
I4
sS'wrong '
p3890
I3
sS'could '
p3891
I1
sS'waelreonl '
p3892
I1
sS'except '
p3893
I2
sS'all '
p3894
I2
sS'get '
p3895
I2
sS'had '
p3896
I1
sS'william '
p3897
I1
sS'supposingly '
p3898
I1
sS'saying '
p3899
I1
sS'shocked '
p3900
I1
sS'experience '
p3901
I1
sS'nothing '
p3902
I5
sS'slghs '
p3903
I1
sS'notju '
p3904
I1
sS'fuck '
p3905
I1
stp3906
a((lp3907
S'eriauben'
p3908
aS'Eriauben'
p3909
a(dp3910
tp3911
a((lp3912
S'gewettet'
p3913
aS'Gewettet'
p3914
a(dp3915
S'invested '
p3916
I1
sS'money '
p3917
I1
sS'bet '
p3918
I7
sS'dare '
p3919
I1
sS'betting '
p3920
I2
stp3921
a((lp3922
S'erlaubt'
p3923
aS'Erlaubt'
p3924
a(dp3925
S'dare '
p3926
I1
sS'may '
p3927
I2
sS'lets '
p3928
I1
sS'gives '
p3929
I1
sS'permission '
p3930
I4
sS'forbid '
p3931
I1
sS'said '
p3932
I1
sS'ok '
p3933
I1
sS'liberty '
p3934
I5
sS'allows '
p3935
I31
sS'allowed '
p3936
I100
sS'approve '
p3937
I1
sS'supposed '
p3938
I2
sS'fair '
p3939
I3
sS'number '
p3940
I1
sS'could '
p3941
I4
sS'goes '
p3942
I1
sS'permit '
p3943
I2
sS'leave '
p3944
I1
sS'mind '
p3945
I1
sS'allow '
p3946
I40
sS'can '
p3947
I2
sS'this '
p3948
I1
sS'told '
p3949
I1
sS'permitted '
p3950
I5
sS'dawdled '
p3951
I1
sS'enables '
p3952
I1
sS'let '
p3953
I7
sS'forbidden '
p3954
I1
sS'legal '
p3955
I4
sS'winding '
p3956
I1
sS'won '
p3957
I1
sS'tolerated '
p3958
I1
sS'invalid '
p3959
I1
sS'allowing '
p3960
I8
stp3961
a((lp3962
S'angewendet'
p3963
aS'Angewendet'
p3964
a(dp3965
S'used '
p3966
I1
sS'dare '
p3967
I1
sS'performed '
p3968
I1
stp3969
a((lp3970
S'zugeschlagen'
p3971
aS'Zugeschlagen'
p3972
a(dp3973
S'though '
p3974
I1
sS'dare '
p3975
I1
sS'mta '
p3976
I1
sS'hit '
p3977
I1
sS'struck '
p3978
I8
sS'snapped '
p3979
I1
sS'banging '
p3980
I1
sS'slamming '
p3981
I1
sS'strikes '
p3982
I1
sS'punch '
p3983
I2
stp3984
a.