(lp0
((lp1
S'sicher'
p2
aS'Sicher'
p3
a(dp4
S'definitely '
p5
I22
sS'checked '
p6
I1
sS'certain '
p7
I169
sS'could '
p8
I3
sS'may '
p9
I1
sS'uh '
p10
I1
sS'clearing '
p11
I1
sS'doc '
p12
I1
sS'no '
p13
I7
sS'record '
p14
I1
sS'would '
p15
I7
sS'hi '
p16
I2
sS'ok '
p17
I2
sS'redcap '
p18
I1
sS'fat '
p19
I1
sS'confirm '
p20
I2
sS'steady '
p21
I1
sS'certa\xc3\xadnly '
p22
I1
sS'mattress '
p23
I1
sS'course '
p24
I67
sS'already '
p25
I3
sS'bait '
p26
I1
sS'de\\u011filim '
p27
I1
sS'confidentthat '
p28
I1
sS'sureshe '
p29
I1
sS'clarify '
p30
I1
sS'gotta '
p31
I3
sS'really '
p32
I7
sS'absolutely '
p33
I10
sS'few '
p34
I1
sS'mother '
p35
I1
sS'validation '
p36
I1
sS'pleasure '
p37
I1
sS'pictures '
p38
I1
sS'manage '
p39
I1
sS'isafe '
p40
I3
sS'dodukanleyo '
p41
I1
sS'seat '
p42
I1
sS'thank '
p43
I2
sS'fizbo- '
p44
I1
sS'talk '
p45
I1
sS'it '
p46
I10
sS'hmm '
p47
I1
sS'liz '
p48
I1
sS'regular '
p49
I1
sS'banana '
p50
I1
sS'imagine '
p51
I1
sS'please '
p52
I1
sS'sorry '
p53
I2
sS'clean '
p54
I1
sS'agency '
p55
I1
sS'whatever '
p56
I1
sS'all '
p57
I1
sS'guarantee '
p58
I1
sS'hurry '
p59
I1
sS'talking '
p60
I1
sS'fine '
p61
I4
sS'secured '
p62
I1
sS'torn '
p63
I1
sS'have '
p64
I1
sS'pen '
p65
I1
sS'birthday '
p66
I1
sS'totally '
p67
I3
sS'probably '
p68
I62
sS'safer '
p69
I3
sS'damm '
p70
I1
sS'determined '
p71
I1
sS'assure '
p72
I1
sS'anything '
p73
I2
sS'blocking '
p74
I1
sS'safe '
p75
I790
sS'got '
p76
I2
sS'teammates '
p77
I1
sS'*** '
p78
I1
sS"'ll "
p79
I3
sS'as '
p80
I1
sS'invisible '
p81
I1
sS'likely '
p82
I1
sS'yup '
p83
I1
sS'laughing '
p84
I3
sS'face '
p85
I1
sS'gunfire '
p86
I1
sS'at '
p87
I2
sS'johnny '
p88
I1
sS'surethis '
p89
I2
sS'hit '
p90
I1
sS'assured '
p91
I4
sS'that '
p92
I1
sS'come '
p93
I1
sS'find '
p94
I1
sS'yes '
p95
I6
sS'good '
p96
I5
sS'safety '
p97
I1
sS'even '
p98
I1
sS'is '
p99
I2
sS'nothing '
p100
I1
sS'protected '
p101
I4
sS'built '
p102
I2
sS'count '
p103
I1
sS'proof '
p104
I3
sS'brilliant '
p105
I1
sS'aid '
p106
I1
sS'them '
p107
I1
sS'dismiss '
p108
I1
sS'might '
p109
I8
sS'think '
p110
I9
sS'ridikolus '
p111
I1
sS'surely '
p112
I51
sS'doesn '
p113
I2
sS'hello '
p114
I1
sS'saturday '
p115
I1
sS'burke '
p116
I1
sS'ruth '
p117
I1
sS'cheney '
p118
I1
sS'puhut '
p119
I1
sS'seriously '
p120
I2
sS'nuts '
p121
I1
sS'jerry '
p122
I2
sS'ones '
p123
I1
sS'bruv '
p124
I1
sS'joe '
p125
I1
sS'su '
p126
I1
sS'checking '
p127
I1
sS'seymour, '
p128
I1
sS'thanks '
p129
I2
sS'happen '
p130
I1
sS'must '
p131
I49
sS'surethat '
p132
I2
sS'constance '
p133
I1
sS'quite '
p134
I2
sS'threesome '
p135
I1
sS'lot '
p136
I2
sS'trust '
p137
I3
sS'boring '
p138
I1
sS'cookie '
p139
I1
sS'deserves '
p140
I1
sS'doubt '
p141
I4
sS'angle '
p142
I1
sS'neurobiologist '
p143
I1
sS'live '
p144
I1
sS'knew '
p145
I2
sS'case '
p146
I3
sS'see '
p147
I3
sS'stakes '
p148
I1
sS'wanna '
p149
I1
sS'worried '
p150
I2
sS'guess '
p151
I3
sS'convinced '
p152
I4
sS'know '
p153
I45
sS'obviously '
p154
I1
sS'ton '
p155
I1
sS'brain '
p156
I1
sS'toilets '
p157
I1
sS'$23 '
p158
I1
sS'passageway '
p159
I1
sS'be '
p160
I38
sS'thoughts '
p161
I2
sS'there '
p162
I3
sS'sure '
p163
I4971
sS'suppose '
p164
I5
sS'right '
p165
I25
sS'insane '
p166
I1
sS'unsafe '
p167
I4
sS'me '
p168
I2
sS'believe '
p169
I2
sS'batman '
p170
I1
sS'why '
p171
I1
sS'so '
p172
I1
sS'certainty '
p173
I2
sS'crap '
p174
I1
sS'jr '
p175
I1
sS'safely '
p176
I56
sS'ronstadt '
p177
I1
sS'you '
p178
I6
sS'off '
p179
I1
sS'serious '
p180
I19
sS'they '
p181
I2
sS'what '
p182
I1
sS'right- '
p183
I1
sS'straight '
p184
I2
sS'means '
p185
I3
sS'odavde '
p186
I1
sS'okay '
p187
I9
sS'clearly '
p188
I6
sS'certainly '
p189
I86
sS'and '
p190
I1
sS'won '
p191
I1
sS'betcha '
p192
I1
sS'mesome '
p193
I1
sS'he '
p194
I2
sS'shizzle '
p195
I1
sS'eh '
p196
I1
sS'mike '
p197
I1
sS'will '
p198
I3
sS'granted '
p199
I4
sS'spot '
p200
I1
sS'confident '
p201
I13
sS'cheer '
p202
I1
sS'gonna '
p203
I3
sS'shure '
p204
I1
sS'positive '
p205
I31
sS"' "
p206
I1
sS's\\u00fbr '
p207
I1
sS'go '
p208
I1
sS"'d "
p209
I1
sS'bat '
p210
I1
sS'bet '
p211
I25
sS'cocksure '
p212
I1
sS'none '
p213
I1
sS'swear '
p214
I1
sS'well '
p215
I5
sS"'t "
p216
I1
sS'solid '
p217
I2
sS'though '
p218
I1
sS', '
p219
I1
sS'do '
p220
I5
sS'clear '
p221
I27
sS'made- '
p222
I1
sS'understand '
p223
I4
sS'hell '
p224
I1
sS'watch '
p225
I1
sS'compromised '
p226
I1
sS'engaged '
p227
I1
sS'soda '
p228
I1
sS'eat '
p229
I1
sS'point '
p230
I1
sS'fact '
p231
I6
sS'can '
p232
I6
sS'sit '
p233
I1
sS'oh '
p234
I2
sS'sure, '
p235
I23
sS'spend '
p236
I1
sS'assurance '
p237
I1
sS'surehe '
p238
I1
sS'sicher '
p239
I1
sS'ridiculous '
p240
I1
sS'i '
p241
I6
sS'she, '
p242
I1
sS'ahead '
p243
I1
sS're '
p244
I3
sS'excuse '
p245
I1
sS'door '
p246
I1
sS'don '
p247
I4
sS'katie '
p248
I1
sS'real '
p249
I1
sS'sire '
p250
I3
sS'surei '
p251
I1
sS'secure '
p252
I51
sS'ensure '
p253
I1
sS'covered '
p254
I1
sS'great '
p255
I2
sS'assuredly '
p256
I1
sS'shut '
p257
I1
sS'thing '
p258
I1
sS'picking '
p259
I1
sS'still '
p260
I1
sS"'m "
p261
I1
sS'yeah '
p262
I30
sS'epitome '
p263
I1
stp264
a((lp265
S'sicherlich'
p266
aS'Sicherlich'
p267
a(dp268
S'definitely '
p269
I2
sS'course '
p270
I1
sS'okay '
p271
I1
sS'clearly '
p272
I3
sS'year '
p273
I1
sS'talking '
p274
I1
sS'certainly '
p275
I75
sS'sure, '
p276
I1
sS'minute '
p277
I1
sS'sure '
p278
I41
sS'surely '
p279
I49
sS'certain '
p280
I1
sS'must '
p281
I1
sS'something '
p282
I1
sS'revert '
p283
I1
sS'probably '
p284
I4
sS'doorman '
p285
I1
sS'thanks '
p286
I1
stp287
a((lp288
S'bestimmt'
p289
aS'Bestimmt'
p290
a(dp291
S'definitely '
p292
I33
sS'certain '
p293
I5
sS'what '
p294
I1
sS'no '
p295
I2
sS'nope '
p296
I1
sS'would '
p297
I2
sS'actually '
p298
I2
sS'course '
p299
I2
sS'impounded '
p300
I1
sS'meant '
p301
I57
sS'really '
p302
I4
sS'absolutely '
p303
I3
sS'won '
p304
I11
sS'swear '
p305
I1
sS'it '
p306
I2
sS'jordan '
p307
I1
sS'today '
p308
I1
sS'kukaan '
p309
I1
sS'expect '
p310
I2
sS'workforce '
p311
I1
sS'all '
p312
I2
sS'least '
p313
I1
sS'probably '
p314
I70
sS'determined '
p315
I12
sS'rez '
p316
I1
sS'intended '
p317
I4
sS"'ll "
p318
I7
sS'decided '
p319
I1
sS'likely '
p320
I1
sS'yes '
p321
I1
sS'scooch '
p322
I1
sS'wouldn '
p323
I7
sS'is '
p324
I1
sS'oblige '
p325
I1
sS'think '
p326
I4
sS'surely '
p327
I12
sS'honestly '
p328
I1
sS'maybe '
p329
I3
sS'perhaps '
p330
I1
sS'firm '
p331
I1
sS'beautiful '
p332
I1
sS'must '
p333
I51
sS'hear '
p334
I2
sS'doubt '
p335
I1
sS'for '
p336
I1
sS'chosen '
p337
I1
sS'blocking '
p338
I1
sS'be '
p339
I32
sS'sure '
p340
I96
sS'destined '
p341
I15
sS'right '
p342
I5
sS'determine '
p343
I1
sS'bound '
p344
I2
sS'much '
p345
I1
sS'so '
p346
I2
sS'like '
p347
I2
sS'you '
p348
I3
sS'wondering '
p349
I1
sS'tough '
p350
I1
sS'clearly '
p351
I5
sS'us '
p352
I1
sS'yeah '
p353
I2
sS'certainly '
p354
I36
sS'provides '
p355
I1
sS'he '
p356
I2
sS'written '
p357
I1
sS'will '
p358
I7
sS'gonna '
p359
I4
sS'bet '
p360
I28
sS'well '
p361
I2
sS'supposed '
p362
I16
sS"'s "
p363
I1
sS'do '
p364
I1
sS'read '
p365
I1
sS'can '
p366
I3
sS'near '
p367
I1
sS'oh '
p368
I2
sS'agree '
p369
I1
sS'i '
p370
I1
sS'been '
p371
I1
sS'purpose '
p372
I1
sS'determines '
p373
I5
sS'governs '
p374
I1
sS'sire '
p375
I1
sS'alone '
p376
I1
sS'not '
p377
I1
sS'precise '
p378
I1
sS'something '
p379
I1
stp380
a((lp381
S'gewiss'
p382
aS'Gewiss'
p383
a(dp384
S'certain '
p385
I3
sS'naturally '
p386
I1
sS'given '
p387
I3
sS'know '
p388
I1
sS'course '
p389
I9
sS'meant '
p390
I1
sS'yes '
p391
I7
sS'sure '
p392
I11
sS'won '
p393
I1
sS'defecating '
p394
I1
sS'indeed '
p395
I2
sS'agree '
p396
I1
sS'surely '
p397
I6
sS'i '
p398
I1
sS'rajesh '
p399
I1
sS'action '
p400
I1
sS'buy '
p401
I1
sS'aye '
p402
I4
sS'clearly '
p403
I1
sS'www '
p404
I1
sS'retrieved '
p405
I1
sS'certainly '
p406
I33
stp407
a((lp408
S'nat\xc3\xbcrlich'
p409
aS'Nat\xc3\xbcrlich'
p410
a(dp411
S'certain '
p412
I1
sS'below '
p413
I1
sS'am '
p414
I1
sS'no '
p415
I4
sS'would '
p416
I2
sS'ok '
p417
I2
sS'shh '
p418
I1
sS'rule '
p419
I2
sS'course '
p420
I2442
sS'did '
p421
I3
sS'clearly '
p422
I2
sS'really '
p423
I2
sS'absolutely '
p424
I22
sS'up '
p425
I1
sS'leonard '
p426
I1
sS'mother '
p427
I2
sS'classy '
p428
I1
sS'dead '
p429
I1
sS'natasha '
p430
I1
sS'natural '
p431
I66
sS'thank '
p432
I3
sS'certamente '
p433
I1
sS'everyone '
p434
I1
sS'surprises '
p435
I1
sS'fact '
p436
I1
sS'welcome '
p437
I1
sS'it '
p438
I7
sS'bigbro '
p439
I1
sS'funerals '
p440
I1
sS'we '
p441
I1
sS'except '
p442
I1
sS'tabi '
p443
I1
sS'ha '
p444
I1
sS'all '
p445
I2
sS'fine '
p446
I1
sS'schoen '
p447
I1
sS'french '
p448
I1
sS'bye '
p449
I1
sS'opened '
p450
I1
sS"'ll "
p451
I2
sS'course, '
p452
I24
sS'wine '
p453
I2
sS'popcorn '
p454
I1
sS'dangyeonhajl '
p455
I1
sS'or '
p456
I1
sS'simpler '
p457
I1
sS'nature '
p458
I1
sS'at '
p459
I1
sS'come '
p460
I1
sS'yes '
p461
I24
sS'crying '
p462
I1
sS'\\u00a1 '
p463
I1
sS'is '
p464
I1
sS'tho '
p465
I1
sS'she '
p466
I1
sS'cos '
p467
I1
sS'nervous '
p468
I1
sS'twitter '
p469
I1
sS'surely '
p470
I9
sS'tend '
p471
I1
sS'emily '
p472
I1
sS'considerate '
p473
I1
sS'must '
p474
I1
sS'black '
p475
I1
sS'seem '
p476
I1
sS'total '
p477
I1
sS'always '
p478
I1
sS'but '
p479
I3
sS'genuine '
p480
I1
sS'naturally '
p481
I37
sS'inform '
p482
I1
sS'mountain '
p483
I1
sS'worries '
p484
I1
sS'anchor '
p485
I1
sS'obviously '
p486
I22
sS'biclops '
p487
I1
sS'chuck '
p488
I1
sS'nah '
p489
I1
sS'73 '
p490
I1
sS'spitter '
p491
I1
sS'be '
p492
I2
sS'now '
p493
I2
sS'beeng '
p494
I1
sS'hey '
p495
I1
sS'sure '
p496
I112
sS'bribed '
p497
I1
sS'right '
p498
I20
sS'ofcourse '
p499
I3
sS'if '
p500
I1
sS'needless '
p501
I2
sS'meat '
p502
I1
sS'count '
p503
I1
sS'keep '
p504
I1
sS'you '
p505
I12
sS'kidding '
p506
I1
sS'ofourse '
p507
I1
sS'what '
p508
I2
sS'right- '
p509
I1
sS'theyre '
p510
I1
sS'means '
p511
I1
sS'okay '
p512
I3
sS'are '
p513
I3
sS'quick '
p514
I1
sS'sara '
p515
I1
sS'certainly '
p516
I28
sS'he '
p517
I1
sS'will '
p518
I2
sS'to '
p519
I1
sS'laughlng '
p520
I1
sS'marwan '
p521
I1
sS'convenient '
p522
I1
sS'positive '
p523
I2
sS'yes, '
p524
I1
sS'everybody '
p525
I1
sS'suite '
p526
I2
sS'indeedy '
p527
I1
sS'user '
p528
I1
sS"' "
p529
I1
sS'disturbed '
p530
I1
sS'well '
p531
I9
sS'hell '
p532
I4
sS'though '
p533
I1
sS'options '
p534
I1
sS'do '
p535
I1
sS'clear '
p536
I2
sS'how '
p537
I1
sS'does '
p538
I2
sS'fuller '
p539
I1
sS'can '
p540
I2
sS'indeed '
p541
I4
sS'oh '
p542
I7
sS'certa\xc3\xadnly '
p543
I1
sS'tell '
p544
I1
sS'moss '
p545
I1
sS'stinks '
p546
I1
sS'bathroom '
p547
I1
sS'i '
p548
I21
sS'ahead '
p549
I1
sS'stub '
p550
I1
sS'excuse '
p551
I1
sS'confused '
p552
I1
sS'get '
p553
I1
sS'yourself '
p554
I2
sS'aah '
p555
I1
sS'cour '
p556
I3
sS'cool '
p557
I1
sS'not '
p558
I1
sS'jules '
p559
I1
sS'tried '
p560
I1
sS"'m "
p561
I1
sS'yeah '
p562
I14
stp563
a((lp564
S'sicherheit'
p565
aS'Sicherheit'
p566
a(dp567
S'definitely '
p568
I9
sS'certain '
p569
I4
sS'safety, '
p570
I2
sS'safe '
p571
I263
sS'collateral '
p572
I12
sS'ok '
p573
I1
sS'securiy '
p574
I1
sS'isecurity '
p575
I1
sS'ease '
p576
I2
sS'morethan '
p577
I1
sS'property '
p578
I1
sS'be '
p579
I3
sS'clear '
p580
I2
sS'absolutely '
p581
I3
sS'mm- '
p582
I1
sS'sure '
p583
I41
sS'safety '
p584
I194
sS'sick '
p585
I1
sS'mother '
p586
I1
sS'place '
p587
I1
sS'right '
p588
I1
sS'coming '
p589
I1
sS'does '
p590
I1
sS'certainty '
p591
I11
sS'security, '
p592
I4
sS'safely '
p593
I6
sS'gorgeous '
p594
I1
sS'assurance '
p595
I2
sS'surely '
p596
I5
sS'protecting '
p597
I1
sS'0- '
p598
I1
sS'save '
p599
I1
sS'practise '
p600
I1
sS'good '
p601
I2
sS'daddy '
p602
I1
sS'cover '
p603
I1
sS'protection '
p604
I10
sS'here '
p605
I1
sS'okay '
p606
I1
sS'clearly '
p607
I3
sS'free '
p608
I2
sS'guarantee '
p609
I1
sS'certainly '
p610
I20
sS'fine '
p611
I2
sS'secure '
p612
I6
sS'secured '
p613
I1
sS'out '
p614
I1
sS'not '
p615
I1
sS'gave '
p616
I1
sS'safer '
p617
I1
sS'lucky '
p618
I1
sS'security '
p619
I180
stp620
a((lp621
S'fall'
p622
aS'Fall'
p623
a(dp624
S'definitely '
p625
I85
sS'one '
p626
I17
sS'matter '
p627
I15
sS'going '
p628
I1
sS'am '
p629
I1
sS'ever '
p630
I3
sS'amagansett '
p631
I1
sS'manuscript '
p632
I1
sS'covered '
p633
I1
sS'thrown '
p634
I2
sS'down '
p635
I20
sS'fringe '
p636
I2
sS'course '
p637
I3
sS'deal '
p638
I3
sS'did '
p639
I5
sS'then '
p640
I1
sS'absolutely '
p641
I109
sS'leaders '
p642
I1
sS'if '
p643
I7
sS'occasion '
p644
I1
sS'process '
p645
I1
sS'complimentary '
p646
I1
sS'cause '
p647
I1
sS'it '
p648
I1
sS'chance '
p649
I7
sS'budging '
p650
I1
sS'we '
p651
I1
sS'puo '
p652
I1
sS'least '
p653
I3
sS'all '
p654
I2
sS'successful '
p655
I1
sS'story '
p656
I1
sS'totally '
p657
I18
sS'clarity '
p658
I1
sS'certainly '
p659
I19
sS'has '
p660
I1
sS'straight '
p661
I1
sS'deserve '
p662
I1
sS'casesomehow '
p663
I1
sS'want '
p664
I1
sS'ground '
p665
I1
sS'option '
p666
I1
sS'chucking '
p667
I1
sS'time '
p668
I3
sS'anyway '
p669
I27
sS'default '
p670
I1
sS'mansions '
p671
I1
sS'worse '
p672
I1
sS'go '
p673
I1
sS'happening '
p674
I1
sS'fail '
p675
I1
sS'happen '
p676
I2
sS'way '
p677
I207
sS'agreed '
p678
I1
sS'case '
p679
I1524
sS'sense '
p680
I2
sS'file '
p681
I5
sS'minutes '
p682
I1
sS'patient '
p683
I1
sS'case, '
p684
I4
sS'family '
p685
I1
sS'drop '
p686
I4
sS'sure '
p687
I18
sS'right '
p688
I4
sS'babies '
p689
I1
sS'so '
p690
I3
sS'instance '
p691
I4
sS'alley '
p692
I1
sS'cup '
p693
I1
sS'safely '
p694
I1
sS'don '
p695
I2
sS'reason '
p696
I2
sS'outcome '
p697
I1
sS'falling '
p698
I2
sS'means '
p699
I8
sS'this '
p700
I1
sS'possibly '
p701
I1
sS'scenario '
p702
I2
sS'clearly '
p703
I2
sS'rate '
p704
I2
sS'shit '
p705
I1
sS'give '
p706
I1
sS'emphatically '
p707
I1
sS'gonna '
p708
I1
sS'lame '
p709
I1
sS'ah '
p710
I1
sS'bet '
p711
I1
sS'investigation '
p712
I6
sS'fall '
p713
I35
sS'supposed '
p714
I1
sS'problem '
p715
I1
sS'point '
p716
I2
sS'do '
p717
I5
sS'hell '
p718
I7
sS'way, '
p719
I1
sS'does '
p720
I1
sS'never '
p721
I2
sS'issue '
p722
I1
sS'anytime '
p723
I1
sS'guaranteed '
p724
I1
sS'cent '
p725
I1
sS'trial '
p726
I1
sS'sale '
p727
I1
sS'narrows '
p728
I1
sS'event '
p729
I11
sS'birmingham '
p730
I1
sS'grateful '
p731
I1
sS'not '
p732
I1
sS'falls '
p733
I1
sS'thing '
p734
I5
sS'cases '
p735
I6
sS'peek '
p736
I1
stp737
a((lp738
S'allerdings'
p739
aS'Allerdings'
p740
a(dp741
S'shiro '
p742
I1
sS'but '
p743
I25
sS'darn '
p744
I1
sS'only '
p745
I2
sS'that '
p746
I1
sS'yup '
p747
I1
sS'say '
p748
I2
sS'shan '
p749
I2
sS'jane '
p750
I1
sS'we '
p751
I1
sS'know '
p752
I1
sS'heard '
p753
I1
sS'actually '
p754
I2
sS'mm '
p755
I1
sS'point '
p756
I1
sS'course '
p757
I3
sS'though '
p758
I86
sS'did '
p759
I4
sS'wants '
p760
I1
sS'amen '
p761
I1
sS'absolutely '
p762
I6
sS'yes '
p763
I11
sS'sure '
p764
I15
sS'although '
p765
I4
sS'right '
p766
I2
sS'is '
p767
I7
sS'mind '
p768
I7
sS'smiling '
p769
I1
sS'does '
p770
I2
sS'very '
p771
I1
sS'asks '
p772
I1
sS'indeed '
p773
I19
sS'it '
p774
I2
sS'decision '
p775
I1
sS'cal '
p776
I1
sS'they '
p777
I3
sS'what '
p778
I1
sS'i '
p779
I1
sS'warming '
p780
I1
sS'except '
p781
I5
sS'undoubtedly '
p782
I1
sS'talking '
p783
I1
sS'certainly '
p784
I9
sS'getthem '
p785
I1
sS'bridge '
p786
I1
sS'however '
p787
I39
sS'quite '
p788
I3
sS'495 '
p789
I1
sS'yeah '
p790
I3
sS'however, '
p791
I1
stp792
a((lp793
S'auch'
p794
aS'Auch'
p795
a(dp796
S'one '
p797
I23
sS'feel '
p798
I5
sS'matter '
p799
I25
sS'better '
p800
I4
sS'hope '
p801
I1
sS'am '
p802
I11
sS'sometimes '
p803
I2
sS'ever '
p804
I6
sS'come '
p805
I1
sS'sweet '
p806
I1
sS'luck '
p807
I1
sS'lncluding '
p808
I1
sS'included '
p809
I2
sS'rest '
p810
I1
sS'yes '
p811
I1
sS'actually '
p812
I9
sS'may '
p813
I15
sS'course '
p814
I3
sS'same '
p815
I110
sS'did '
p816
I36
sS'work '
p817
I1
sS'then '
p818
I5
sS'hav- '
p819
I1
sS'really '
p820
I5
sS'with '
p821
I12
sS'up '
p822
I2
sS'contrary '
p823
I1
sS'seen '
p824
I1
sS'although '
p825
I5
sS'mother '
p826
I2
sS"'ve "
p827
I1
sS'try '
p828
I1
sS'either '
p829
I529
sS'belong '
p830
I1
sS'for '
p831
I12
sS'isn '
p832
I1
sS'otherwise '
p833
I1
sS'thinking '
p834
I2
sS'includes '
p835
I1
sS'it '
p836
I20
sS'spying '
p837
I1
sS'kids '
p838
I1
sS'about '
p839
I33
sS'please '
p840
I1
sS'unpredictable '
p841
I3
sS'the '
p842
I2
sS'weil '
p843
I1
sS'partly '
p844
I5
sS'cing '
p845
I1
sS'whatever '
p846
I1
sS'next '
p847
I1
sS'l '
p848
I5
sS'all '
p849
I21
sS'had '
p850
I3
sS'yeah '
p851
I1
sS'fine '
p852
I5
sS'than '
p853
I2
sS'including '
p854
I27
sS'nor '
p855
I35
sS"'re "
p856
I20
sS'them '
p857
I3
sS'also '
p858
I1259
sS'join '
p859
I3
sS'any '
p860
I8
sS'done '
p861
I1
sS'regardless '
p862
I1
sS'anything '
p863
I3
sS'else '
p864
I4
sS'very '
p865
I1
sS'lasers '
p866
I1
sS'got '
p867
I12
sS'be, '
p868
I1
sS'has '
p869
I3
sS'worth '
p870
I1
sS'too, '
p871
I16
sS"'ll "
p872
I7
sS'as '
p873
I262
sS'bargain '
p874
I1
sS'besides '
p875
I2
sS'i. '
p876
I6
sS'or '
p877
I13
sS'hormone- '
p878
I2
sS'just '
p879
I14
sS'she '
p880
I1
sS'at '
p881
I5
sS'want '
p882
I7
sS'could '
p883
I7
sS'that '
p884
I19
sS'rather '
p885
I3
sS'make '
p886
I5
sS'good '
p887
I7
sS'sounds '
p888
I2
sS'pretty '
p889
I2
sS'ain '
p890
I2
sS'start '
p891
I2
sS'is '
p892
I28
sS'time '
p893
I1
sS'both '
p894
I2
sS'sarcastic '
p895
I1
sS'anyway '
p896
I6
sS'guess '
p897
I1
sS'even '
p898
I543
sS'involved '
p899
I4
sS'exactly '
p900
I1
sS'might '
p901
I9
sS'think '
p902
I4
sS'say '
p903
I5
sS'despite '
p904
I2
sS'aha '
p905
I1
sS'probably '
p906
I6
sS'therefore '
p907
I1
sS'his '
p908
I1
sS'stac- '
p909
I1
sS'likewise '
p910
I1
sS'go '
p911
I3
sS'forget '
p912
I1
sS'seh '
p913
I1
sS"'s "
p914
I47
sS'however '
p915
I1
sS'lot '
p916
I4
sS'yourself '
p917
I4
sS'be '
p918
I60
sS'but '
p919
I18
sS'boss '
p920
I1
sS'rub '
p921
I1
sS'too '
p922
I4075
sS'happens '
p923
I1
sS'now '
p924
I3
sS"'not "
p925
I1
sS'myself '
p926
I15
sS'anyime '
p927
I1
sS'whole '
p928
I1
sS'true '
p929
I1
sS'have '
p930
I79
sS'manufacturer '
p931
I1
sS'every '
p932
I2
sS'know '
p933
I16
sS'my '
p934
I1
sS'wonder '
p935
I1
sS'used '
p936
I1
sS'own '
p937
I2
sS'love '
p938
I8
sS'. '
p939
I3
sS'wasn '
p940
I3
sS'always '
p941
I7
sS'there '
p942
I13
sS'sure '
p943
I10
sS'easy '
p944
I1
sS'right '
p945
I5
sS'won '
p946
I2
sS'believe '
p947
I1
sS'much '
p948
I2
sS'so '
p949
I149
sS'like '
p950
I14
sS'miss '
p951
I6
sS'on '
p952
I2
sS'bong '
p953
I1
sS'you '
p954
I20
sS'noticed '
p955
I1
sS'don '
p956
I9
sS'doesn '
p957
I3
sS'they '
p958
I3
sS'goes '
p959
I1
sS'what '
p960
I1
sS'would '
p961
I9
sS'was '
p962
I17
sS'another '
p963
I4
sS'dude '
p964
I3
sS'neither '
p965
I237
sS'are '
p966
I23
sS'were '
p967
I7
sS'certainly '
p968
I8
sS'and '
p969
I41
sS'bit '
p970
I1
sS'nothing '
p971
I3
sS'take '
p972
I1
sS'apparently '
p973
I1
sS'will '
p974
I27
sS'to '
p975
I35
sS'toome '
p976
I1
sS'didn '
p977
I2
sS'newton '
p978
I1
sS'figured '
p979
I1
sS'wherever '
p980
I1
sS'gonna '
p981
I13
sS'huh '
p982
I2
sS'thought '
p983
I1
sS"'d "
p984
I1
sS'coming '
p985
I2
sS"'io "
p986
I1
sS'chuckling '
p987
I1
sS'half '
p988
I1
sS'well '
p989
I28
sS'drunk '
p990
I1
sS'out '
p991
I1
sS'of '
p992
I3
sS'though '
p993
I6
sS'especially '
p994
I1
sS'foryou '
p995
I1
sS'areas '
p996
I1
sS'should '
p997
I10
sS'do '
p998
I79
sS"'m "
p999
I14
sS'way '
p1000
I9
sS'penny, '
p1001
I1
sS'bad '
p1002
I1
sS'havin '
p1003
I1
sS'cam '
p1004
I1
sS'some '
p1005
I23
sS'does '
p1006
I16
sS'a '
p1007
I25
sS'an '
p1008
I4
sS'can '
p1009
I22
sS'again '
p1010
I6
sS'back '
p1011
I6
sS'strapless '
p1012
I1
sS'yours '
p1013
I2
sS"'t "
p1014
I2
sS'caught '
p1015
I1
sS'agree '
p1016
I14
sS'see '
p1017
I1
sS'i '
p1018
I4
sS'been '
p1019
I2
sS'in '
p1020
I2
sS'being '
p1021
I3
sS'part '
p1022
I2
sS'fault '
p1023
I1
sS'here '
p1024
I4
sS', '
p1025
I14
sS'knows '
p1026
I1
sS'get '
p1027
I2
sS'shuts '
p1028
I1
sS'share '
p1029
I2
sS'night '
p1030
I1
sS'virginity '
p1031
I2
sS'great '
p1032
I4
sS'not '
p1033
I23
sS'still '
p1034
I21
sS'yet '
p1035
I1
stp1036
a((lp1037
S'ja'
p1038
aS'Ja'
p1039
a(dp1040
S'lenny '
p1041
I1
sS'definitely '
p1042
I8
sS'stay '
p1043
I3
sS'united '
p1044
I1
sS'huge '
p1045
I1
sS'almost '
p1046
I1
sS'uhh '
p1047
I1
sS'wehh '
p1048
I2
sS'crezski '
p1049
I1
sS'tyler '
p1050
I1
sS'ouais '
p1051
I1
sS'geureomlgeo '
p1052
I1
sS'really '
p1053
I74
sS'absolutely '
p1054
I6
sS'up '
p1055
I1
sS'happy '
p1056
I1
sS'although '
p1057
I1
sS'mother '
p1058
I4
sS'turn '
p1059
I3
sS'uh- '
p1060
I2
sS'saltwater '
p1061
I1
sS'tote '
p1062
I1
sS'shall '
p1063
I3
sS'buddy '
p1064
I1
sS'everyone '
p1065
I1
sS'talk '
p1066
I1
sS'earlier '
p1067
I1
sS'child '
p1068
I1
sS'hmm '
p1069
I16
sS'phew '
p1070
I1
sS'tomorrow '
p1071
I1
sS'hat '
p1072
I1
sS'weil '
p1073
I4
sS'holy '
p1074
I2
sS'- '
p1075
I156
sS'help '
p1076
I1
sS'married '
p1077
I1
sS'sounds '
p1078
I4
sS'icon '
p1079
I1
sS'cal, '
p1080
I1
sS'suitcase '
p1081
I1
sS'letterhead '
p1082
I1
sS'sex '
p1083
I1
sS'shit '
p1084
I2
sS'else '
p1085
I2
sS'me '
p1086
I15
sS'remission '
p1087
I1
sS'pants '
p1088
I1
sS'somewhere '
p1089
I2
sS'her '
p1090
I2
sS'exact '
p1091
I1
sS'mama '
p1092
I2
sS'roy '
p1093
I1
sS'ha- '
p1094
I1
sS'weird '
p1095
I1
sS'should '
p1096
I1
sS'quiet '
p1097
I1
sS'aren '
p1098
I3
sS'desserts '
p1099
I1
sS'room '
p1100
I1
sS'warrant '
p1101
I1
sS'that '
p1102
I130
sS'make '
p1103
I1
sS'dust '
p1104
I1
sS'****** '
p1105
I1
sS'condom '
p1106
I1
sS'bo '
p1107
I1
sS'thompson '
p1108
I1
sS'understood '
p1109
I2
sS'him '
p1110
I2
sS'ask '
p1111
I1
sS'tigers '
p1112
I1
sS'propyltech '
p1113
I1
sS'wooooh '
p1114
I1
sS'lovely '
p1115
I1
sS'say '
p1116
I3
sS'everything '
p1117
I4
sS'harold '
p1118
I1
sS'madame '
p1119
I1
sS'when '
p1120
I1
sS'maybe '
p1121
I9
sS'reviewing '
p1122
I1
sS'likewise '
p1123
I1
sS'exports '
p1124
I1
sS'celebrate '
p1125
I1
sS'chris '
p1126
I1
sS'assistants '
p1127
I1
sS'must '
p1128
I2
sS'atoms '
p1129
I2
sS'cheerier '
p1130
I1
sS'here '
p1131
I17
sS'share '
p1132
I1
sS'fuck '
p1133
I1
sS'557 '
p1134
I1
sS'cheering '
p1135
I1
sS'yah '
p1136
I8
sS'butterflies '
p1137
I1
sS'bush '
p1138
I1
sS'plney '
p1139
I1
sS's\xc3\xad '
p1140
I3
sS'guess '
p1141
I3
sS'know '
p1142
I83
sS'bring '
p1143
I2
sS'incident '
p1144
I2
sS'logo '
p1145
I1
sS'right '
p1146
I437
sS'debate '
p1147
I1
sS'gosh '
p1148
I2
sS'janine '
p1149
I1
sS'watch '
p1150
I1
sS'sir '
p1151
I2
sS'hard '
p1152
I1
sS'ahye '
p1153
I1
sS'tanya '
p1154
I2
sS'ahead '
p1155
I1
sS'lisbeth '
p1156
I1
sS'beautiful '
p1157
I1
sS'gorgeous '
p1158
I2
sS'mops '
p1159
I1
sS'kurt '
p1160
I1
sS'means '
p1161
I1
sS'wire '
p1162
I3
sS'cute '
p1163
I1
sS'certainly '
p1164
I8
sS'and '
p1165
I2
sS'laughter '
p1166
I1
sS'take '
p1167
I3
sS'mr. '
p1168
I1
sS'big '
p1169
I1
sS'ahh '
p1170
I1
sS'she/ '
p1171
I1
sS'far '
p1172
I3
sS'gas '
p1173
I1
sS'scary '
p1174
I1
sS'zetas '
p1175
I1
sS'guy '
p1176
I1
sS'snap '
p1177
I2
sS'mouth '
p1178
I1
sS'bret '
p1179
I1
sS'precisely '
p1180
I2
sS'trustworthy '
p1181
I1
sS"'t "
p1182
I4
sS'keep '
p1183
I1
sS', '
p1184
I1
sS'bartender '
p1185
I1
sS'around '
p1186
I1
sS'serge '
p1187
I1
sS'axis '
p1188
I1
sS'soviet '
p1189
I1
sS's '
p1190
I3
sS'crumples '
p1191
I1
sS'black '
p1192
I1
sS'waits '
p1193
I1
sS'junior '
p1194
I4
sS'funny '
p1195
I2
sS'listen '
p1196
I4
sS'doublepuke '
p1197
I1
sS'moving '
p1198
I1
sS'mirror '
p1199
I1
sS'hear '
p1200
I7
sS'verona '
p1201
I1
sS'bosses '
p1202
I1
sS'sugarman '
p1203
I1
sS'writer '
p1204
I1
sS'ho '
p1205
I1
sS'oui '
p1206
I3
sS'speak '
p1207
I1
sS'won\\u2019 '
p1208
I1
sS'bentley '
p1209
I1
sS'need '
p1210
I2
sS'si '
p1211
I28
sS'mugging '
p1212
I1
sS'mine '
p1213
I1
sS'still '
p1214
I2
sS'ok, '
p1215
I1
sS'sweet '
p1216
I1
sS'dare '
p1217
I2
sS'da '
p1218
I1
sS'zoe '
p1219
I1
sS'uh '
p1220
I29
sS'y '
p1221
I3
sS'no '
p1222
I93
sS'would '
p1223
I6
sS'ok '
p1224
I61
sS'curfew '
p1225
I1
sS'jeez '
p1226
I1
sS'doc '
p1227
I2
sS'mom '
p1228
I4
sS'broach '
p1229
I1
sS'rings '
p1230
I1
sS'wow '
p1231
I9
sS'zane '
p1232
I1
sS'course '
p1233
I16
sS'already '
p1234
I4
sS'did '
p1235
I43
sS'michael '
p1236
I1
sS'then '
p1237
I12
sS'ready '
p1238
I6
sS'world '
p1239
I2
sS'if '
p1240
I7
sS'martin '
p1241
I1
sS'rock '
p1242
I1
sS'ferrls '
p1243
I3
sS'tahdon '
p1244
I1
sS'look '
p1245
I10
sS'owen '
p1246
I2
sS'fella '
p1247
I1
sS'reddish '
p1248
I1
sS'it '
p1249
I198
sS'operation '
p1250
I2
sS'383 '
p1251
I1
sS'extortion '
p1252
I1
sS'debra '
p1253
I1
sS'moses '
p1254
I1
sS'year '
p1255
I1
sS'mm- '
p1256
I1
sS'dizzy '
p1257
I1
sS'jason '
p1258
I1
sS'all '
p1259
I61
sS'hank '
p1260
I1
sS'our '
p1261
I1
sS'fine '
p1262
I32
sS"'re "
p1263
I4
sS'ledgers '
p1264
I1
sS'house '
p1265
I1
sS'roman '
p1266
I1
sS'correct '
p1267
I3
sS'ldpe '
p1268
I1
sS'got '
p1269
I8
sS'small '
p1270
I1
sS'as '
p1271
I2
sS'denholm '
p1272
I1
sS'jaaa '
p1273
I1
sS'mm '
p1274
I2
sS'aye, '
p1275
I1
sS'finished '
p1276
I1
sS'could '
p1277
I1
sS'bury '
p1278
I1
sS'yes '
p1279
I10458
sS'ye- '
p1280
I3
sS'jimmy '
p1281
I3
sS'is '
p1282
I41
sS'time '
p1283
I6
sS'nine '
p1284
I1
sS'yea '
p1285
I59
sS'even '
p1286
I1
sS'reaction '
p1287
I1
sS'senior '
p1288
I1
sS'mum '
p1289
I1
sS'fruit '
p1290
I1
sS'clink '
p1291
I1
sS'bella '
p1292
I1
sS'ken '
p1293
I3
sS'tricks '
p1294
I1
sS'shepard '
p1295
I1
sS'go '
p1296
I22
sS'hammersmark '
p1297
I1
sS'bags, '
p1298
I1
sS'dear '
p1299
I1
sS'ja '
p1300
I53
sS'veriyor '
p1301
I1
sS'warning '
p1302
I1
sS'orderlng '
p1303
I1
sS'but '
p1304
I13
sS'carson '
p1305
I1
sS'too '
p1306
I5
sS'bob '
p1307
I1
sS'have '
p1308
I6
sS'weeks, '
p1309
I1
sS'twist '
p1310
I1
sS'mmm '
p1311
I1
sS'nah '
p1312
I1
sS'st '
p1313
I1
sS'love '
p1314
I4
sS'idea '
p1315
I3
sS'be '
p1316
I1
sS'marry '
p1317
I3
sS'remember '
p1318
I2
sS'sure '
p1319
I106
sS'baby '
p1320
I3
sS'splashes '
p1321
I1
sS'laughs '
p1322
I6
sS'enough '
p1323
I1
sS'miller '
p1324
I1
sS'ooh '
p1325
I3
sS'don '
p1326
I4
sS'serious '
p1327
I1
sS'evan '
p1328
I1
sS'heh '
p1329
I2
sS'hoo '
p1330
I1
sS'sorta '
p1331
I1
sS'give '
p1332
I1
sS'bit '
p1333
I1
sS'twelve '
p1334
I1
sS'melody '
p1335
I1
sS'you- '
p1336
I1
sS'truly '
p1337
I1
sS'reggie '
p1338
I1
sS'hang '
p1339
I5
sS'maerlon '
p1340
I1
sS'girl '
p1341
I3
sS'avoid '
p1342
I1
sS'wh '
p1343
I1
sS'sheet '
p1344
I1
sS'huh '
p1345
I120
sS'german '
p1346
I1
sS'bet '
p1347
I4
sS'coming '
p1348
I2
sS'wrist '
p1349
I1
sS'hasselhoff '
p1350
I1
sS'fall '
p1351
I1
sS'well '
p1352
I302
sS'aw '
p1353
I1
sS'point '
p1354
I13
sS'397 '
p1355
I1
sS'i, '
p1356
I1
sS'boyfriend '
p1357
I1
sS'do '
p1358
I73
sS'guys '
p1359
I1
sS'understand '
p1360
I7
sS'damn '
p1361
I1
sS'bad '
p1362
I2
sS'window '
p1363
I1
sS'mr '
p1364
I1
sS'on '
p1365
I7
sS'very '
p1366
I9
sS'stall '
p1367
I1
sS'delectable '
p1368
I1
sS'screw '
p1369
I1
sS'tell '
p1370
I2
sS'ow '
p1371
I1
sS'moss '
p1372
I1
sS'nice '
p1373
I4
sS'clicks '
p1374
I1
sS'see '
p1375
I17
sS'honey '
p1376
I2
sS'fast '
p1377
I1
sS'real '
p1378
I2
sS'ride '
p1379
I1
sS'night '
p1380
I1
sS'saying '
p1381
I43
sS'russian '
p1382
I1
sS'paul '
p1383
I1
sS'yeah '
p1384
I18391
sS'one '
p1385
I2
sS'weren '
p1386
I1
sS'wonderful '
p1387
I5
sS'word '
p1388
I1
sS'knock '
p1389
I1
sS'nope '
p1390
I1
sS'hi '
p1391
I5
sS'dipshit '
p1392
I1
sS'mean '
p1393
I7
sS'was '
p1394
I4
sS'wayne '
p1395
I1
sS'mandy '
p1396
I1
sS'nervous '
p1397
I1
sS'white '
p1398
I1
sS'encrypted '
p1399
I1
sS'gotta '
p1400
I1
sS'true '
p1401
I7
sS'officiant '
p1402
I1
sS"'ello "
p1403
I1
sS'truck '
p1404
I2
sS'troopers '
p1405
I1
sS'pooping '
p1406
I1
sS'\\u1ea1 '
p1407
I1
sS'pretty '
p1408
I4
sS'agree '
p1409
I1
sS'z '
p1410
I1
sS'739 '
p1411
I1
sS'please '
p1412
I16
sS'the '
p1413
I6
sS'pass '
p1414
I1
sS'chairman '
p1415
I1
sS'disabled '
p1416
I1
sS'salami '
p1417
I1
sS'anything '
p1418
I1
sS'aye '
p1419
I33
sS'yeahdo '
p1420
I1
sS'apparently '
p1421
I1
sS'cherry '
p1422
I1
sS'mayor '
p1423
I1
sS'tempo '
p1424
I1
sS'crazy '
p1425
I2
sS'probably '
p1426
I3
sS'reaily '
p1427
I1
sS'punch '
p1428
I1
sS'heck '
p1429
I1
sS'# '
p1430
I1
sS'bye '
p1431
I2
sS'ireon '
p1432
I1
sS'job '
p1433
I2
sS'******** '
p1434
I1
sS'elllson '
p1435
I1
sS'conversation '
p1436
I1
sS'laughing '
p1437
I1
sS'because '
p1438
I4
sS'come '
p1439
I18
sS'2 '
p1440
I1
sS'man '
p1441
I7
sS'date '
p1442
I1
sS"'yes "
p1443
I4
sS'he '
p1444
I34
sS'rhode '
p1445
I1
sS'whatever '
p1446
I1
sS'mind '
p1447
I1
sS'anyway '
p1448
I6
sS'drink '
p1449
I2
sS'gross '
p1450
I1
sS'exactly '
p1451
I6
sS'asked '
p1452
I1
sS'si, '
p1453
I4
sS'oohing '
p1454
I1
sS'seriously '
p1455
I2
sS'honestly '
p1456
I1
sS'thanks '
p1457
I3
sS'epsteln '
p1458
I1
sS'huh, '
p1459
I1
sS'tolerance '
p1460
I1
sS'talked '
p1461
I1
sS'sort '
p1462
I1
sS'yep '
p1463
I187
sS'super '
p1464
I1
sS'check '
p1465
I1
sS"'s "
p1466
I19
sS'knee '
p1467
I1
sS'ish '
p1468
I1
sS'draw '
p1469
I1
sS'475 '
p1470
I1
sS'feud '
p1471
I1
sS'picture '
p1472
I1
sS'way '
p1473
I5
sS'armour '
p1474
I1
sS'knew '
p1475
I1
sS"'yeah "
p1476
I1
sS'squirrel '
p1477
I1
sS'sense '
p1478
I1
sS'axl '
p1479
I1
sS'lingo '
p1480
I1
sS'375 '
p1481
I1
sS"'magic "
p1482
I1
sS'hm '
p1483
I3
sS'zeah '
p1484
I1
sS'networker '
p1485
I1
sS'aha '
p1486
I3
sS'there '
p1487
I44
sS'hey '
p1488
I39
sS'won '
p1489
I2
sS'were '
p1490
I1
sS'yeah- '
p1491
I2
sS'fucking '
p1492
I1
sS'like '
p1493
I21
sS'thats '
p1494
I1
sS'rogova '
p1495
I1
sS'tray '
p1496
I1
sS'vampires '
p1497
I1
sS'raphael '
p1498
I1
sS'standing '
p1499
I1
sS'feds '
p1500
I1
sS'yes- '
p1501
I1
sS'dude '
p1502
I1
sS'okay '
p1503
I170
sS'clearly '
p1504
I1
sS'engine '
p1505
I1
sS'enjoy '
p1506
I1
sS'will '
p1507
I41
sS'who '
p1508
I3
sS'ya '
p1509
I33
sS'chart '
p1510
I1
sS'unh '
p1511
I1
sS'\\u00bf '
p1512
I9
sS'positive '
p1513
I2
sS"' "
p1514
I1
sS'no, '
p1515
I1
sS'said '
p1516
I1
sS'cellphone '
p1517
I1
sS'alright '
p1518
I8
sS'386 '
p1519
I1
sS'donaghy '
p1520
I2
sS'evet '
p1521
I2
sS'of '
p1522
I1
sS'though '
p1523
I3
sS'ls '
p1524
I3
sS'nice, '
p1525
I1
sS'moody '
p1526
I1
sS"'m "
p1527
I9
sS'484 '
p1528
I1
sS'dad '
p1529
I4
sS'your '
p1530
I1
sS'away '
p1531
I1
sS'baylin '
p1532
I1
sS'how '
p1533
I12
sS'eyesight '
p1534
I1
sS'some '
p1535
I3
sS'read '
p1536
I1
sS'bands '
p1537
I1
sS'little '
p1538
I4
sS'can '
p1539
I7
sS'sit '
p1540
I1
sS'queenle '
p1541
I1
sS'hello '
p1542
I9
sS'\\u0422\\u0430\\u0443\\u0440\\u0435\\u0442\\u0442\\u0430 '
p1543
I1
sS'chatter '
p1544
I1
sS'i '
p1545
I344
sS'been '
p1546
I1
sS'fake '
p1547
I1
sS'joy '
p1548
I1
sS'neil '
p1549
I1
sS'get '
p1550
I6
sS'sam '
p1551
I1
sS'great '
p1552
I6
sS'cool '
p1553
I6
sS'thing '
p1554
I17
sS'which '
p1555
I1
sS'going '
p1556
I1
sS'seconds '
p1557
I1
sS'only '
p1558
I4
sS'am '
p1559
I12
sS'memories '
p1560
I1
sS'penny '
p1561
I1
sS'250 '
p1562
I1
sS'actually '
p1563
I15
sS'perfect '
p1564
I1
sS'emmanuelle '
p1565
I1
sS'work '
p1566
I1
sS'thousand- '
p1567
I1
sS'oh, '
p1568
I1
sS'cellophane '
p1569
I1
sS'robber '
p1570
I1
sS'themto '
p1571
I1
sS'vd '
p1572
I1
sS'mensches '
p1573
I1
sS"'hare "
p1574
I1
sS'follow '
p1575
I1
sS'freshen '
p1576
I1
sS'mistake '
p1577
I1
sS'question '
p1578
I2
sS'thank '
p1579
I11
sS'ye '
p1580
I8
sS'fact '
p1581
I3
sS'lily '
p1582
I1
sS"'d "
p1583
I1
sS'sim '
p1584
I2
sS'native '
p1585
I1
sS'god '
p1586
I5
sS'sorry '
p1587
I4
sS'grey '
p1588
I1
sS'boelcke '
p1589
I1
sS'let '
p1590
I6
sS'we '
p1591
I27
sS'ha '
p1592
I4
sS'thinkin '
p1593
I1
sS'keeps '
p1594
I2
sS'ohh '
p1595
I2
sS'toilet '
p1596
I1
sS'illusion '
p1597
I1
sS'totally '
p1598
I4
sS'seem '
p1599
I1
sS'999 '
p1600
I1
sS'residence '
p1601
I1
sS'sheriff '
p1602
I1
sS"'ll "
p1603
I1
sS'jump '
p1604
I1
sS'second '
p1605
I1
sS'delinquency '
p1606
I1
sS'gentle '
p1607
I1
sS'just '
p1608
I40
sS'tony '
p1609
I1
sS'women '
p1610
I2
sS'glad '
p1611
I1
sS'badger '
p1612
I1
sS'flammable '
p1613
I1
sS'tara '
p1614
I2
sS'good '
p1615
I33
sS'wouldn '
p1616
I1
sS'crying '
p1617
I1
sS'indeed '
p1618
I13
sS'aldous '
p1619
I1
sS'yeahl '
p1620
I1
sS'castillion '
p1621
I1
sS'she '
p1622
I23
sS'oh '
p1623
I126
sS'512 '
p1624
I1
sS'fuckin '
p1625
I1
sS'marcus '
p1626
I1
sS'hej '
p1627
I1
sS'told '
p1628
I1
sS'yours '
p1629
I1
sS'briefing '
p1630
I1
sS'january '
p1631
I1
sS'snacks '
p1632
I1
sS'promise '
p1633
I1
sS'you/ '
p1634
I1
sS'kenneth '
p1635
I1
sS'mooing '
p1636
I1
sS'such '
p1637
I1
sS'um '
p1638
I8
sS'es '
p1639
I3
sS'quite '
p1640
I8
sS'r\xc3\xa9sum '
p1641
I1
sS'exclalms '
p1642
I1
sS'( '
p1643
I12
sS'now '
p1644
I25
sS'yay '
p1645
I9
sS'eagerly '
p1646
I1
sS'goggles '
p1647
I1
sS'allright '
p1648
I2
sS'my '
p1649
I6
sS'obviously '
p1650
I1
sS'knowso '
p1651
I1
sS'yup '
p1652
I42
sS'heilo '
p1653
I1
sS'long '
p1654
I1
sS'shaun '
p1655
I1
sS'maggie '
p1656
I1
sS'sarah '
p1657
I3
sS'cell '
p1658
I1
sS'8 '
p1659
I1
sS'why '
p1660
I17
sS'drill '
p1661
I2
sS'newton '
p1662
I1
sS'so '
p1663
I168
sS'ah '
p1664
I27
sS'agrees '
p1665
I1
sS'dunlop '
p1666
I1
sS'yesh '
p1667
I4
sS'smell '
p1668
I1
sS'460 '
p1669
I1
sS'you '
p1670
I167
sS'they '
p1671
I14
sS'objects '
p1672
I1
sS'what '
p1673
I70
sS'leads '
p1674
I1
sS'same '
p1675
I2
sS'this '
p1676
I2
sS'terminate '
p1677
I1
sS'are '
p1678
I40
sS'miss '
p1679
I1
sS'trying '
p1680
I5
sS'[ '
p1681
I10
sS'wait '
p1682
I7
sS'eh '
p1683
I16
sS'serbian '
p1684
I1
sS'goanna '
p1685
I1
sS'peter '
p1686
I1
sS'yeah, '
p1687
I473
sS'prepare '
p1688
I1
sS'apricots '
p1689
I1
sS'yes, '
p1690
I139
sS'everybody '
p1691
I1
sS'kind '
p1692
I6
sS'well, '
p1693
I3
sS'ho- '
p1694
I1
sS'424 '
p1695
I1
sS'problem '
p1696
I1
sS'phil '
p1697
I1
sS'ahem '
p1698
I1
sS'unprotected '
p1699
I1
sS'siell\xc3\xa4h\xc3\xa4n '
p1700
I1
sS'excellent '
p1701
I1
sS'jesus '
p1702
I1
sS'mistaking '
p1703
I1
sS'w- '
p1704
I1
sS'hurry '
p1705
I2
sS'not '
p1706
I10
sS'does '
p1707
I11
sS'a '
p1708
I20
sS'again '
p1709
I1
sS'isn '
p1710
I3
sS'whoa '
p1711
I2
sS'snlffles '
p1712
I1
sS'michelle '
p1713
I1
sS'congratulations '
p1714
I1
sS"'hh "
p1715
I1
sS'tequila '
p1716
I1
sS'in '
p1717
I2
sS'lutely '
p1718
I1
sS'unless '
p1719
I1
sS'excuse '
p1720
I4
sS'someone '
p1721
I1
sS'coffee '
p1722
I1
sS'yo '
p1723
I19
sS'stepping '
p1724
I1
sS'something '
p1725
I3
sS'finally '
p1726
I1
sS'foster '
p1727
I1
sS'driver '
p1728
I1
sS'seriously, '
p1729
I1
stp1730
a((lp1731
S'selbstverst\xc3\xa4ndlich'
p1732
aS'Selbstverst\xc3\xa4ndlich'
p1733
a(dp1734
S'money '
p1735
I1
sS'natural '
p1736
I5
sS'naturally '
p1737
I1
sS'shoulders '
p1738
I1
sS'duh '
p1739
I1
sS'obviously '
p1740
I2
sS'seems '
p1741
I1
sS'course '
p1742
I83
sS'nature '
p1743
I1
sS'staying '
p1744
I1
sS'unambitious '
p1745
I1
sS'* '
p1746
I1
sS'then '
p1747
I1
sS'absolutely '
p1748
I6
sS'mm '
p1749
I1
sS'sure '
p1750
I4
sS'suppose '
p1751
I1
sS'goes '
p1752
I3
sS'pleasure '
p1753
I1
sS'alterations '
p1754
I1
sS'nothing '
p1755
I1
sS'very '
p1756
I6
sS'camille '
p1757
I1
sS'obliged '
p1758
I1
sS'honest '
p1759
I1
sS'- '
p1760
I1
sS'certainly '
p1761
I6
sS'granted '
p1762
I13
sS'not '
p1763
I5
sS'outside '
p1764
I1
sS'lndeed '
p1765
I1
sS'yeah '
p1766
I1
stp1767
a((lp1768
S'jedenfalls'
p1769
aS'Jedenfalls'
p1770
a(dp1771
S'definitely '
p1772
I2
sS'nevertheless '
p1773
I1
sS'but '
p1774
I6
sS'case '
p1775
I8
sS'anyway, '
p1776
I3
sS'early- '
p1777
I1
sS'faithful '
p1778
I1
sS'know '
p1779
I2
sS'anywhere '
p1780
I1
sS'well '
p1781
I10
sS'anyways '
p1782
I4
sS'point '
p1783
I1
sS'though '
p1784
I4
sS'did '
p1785
I1
sS'bar '
p1786
I1
sS'sure '
p1787
I4
sS'anyhow '
p1788
I4
sS'right '
p1789
I1
sS'christmas '
p1790
I1
sS'shed '
p1791
I3
sS'monaco '
p1792
I1
sS'whatever '
p1793
I2
sS'either '
p1794
I6
sS'smoke '
p1795
I1
sS'so '
p1796
I2
sS'suns '
p1797
I1
sS'anyway '
p1798
I212
sS'it '
p1799
I1
sS'surely '
p1800
I1
sS'what '
p1801
I2
sS'i '
p1802
I4
sS'protection '
p1803
I1
sS'crocodile '
p1804
I1
sS'least '
p1805
I21
sS'apparently '
p1806
I2
sS'certainly '
p1807
I6
sS'event '
p1808
I1
sS"'s "
p1809
I1
sS"'for "
p1810
I1
sS'not '
p1811
I2
sS'however '
p1812
I8
sS'beliebe '
p1813
I1
sS'totally '
p1814
I1
sS'still '
p1815
I2
sS'gender '
p1816
I1
sS'which '
p1817
I1
stp1818
a((lp1819
S'recht'
p1820
aS'Recht'
p1821
a(dp1822
S'undercurrent '
p1823
I1
sS'funeral '
p1824
I1
sS'wise '
p1825
I1
sS'silent '
p1826
I1
sS'ok '
p1827
I3
sS'shit '
p1828
I1
sS'actually '
p1829
I1
sS'lad '
p1830
I1
sS'good '
p1831
I6
sS'course '
p1832
I1
sS'fair '
p1833
I3
sS'hurting '
p1834
I1
sS'something '
p1835
I2
sS'really '
p1836
I7
sS'with '
p1837
I1
sS'mea '
p1838
I2
sS'drama '
p1839
I1
sS'toby '
p1840
I1
sS'remus '
p1841
I1
sS'rights '
p1842
I14
sS'trotted '
p1843
I1
sS'rightly '
p1844
I1
sS'drawers '
p1845
I1
sS'crying '
p1846
I1
sS'it '
p1847
I3
sS'about '
p1848
I1
sS'more '
p1849
I3
sS'tradition '
p1850
I1
sS'cash '
p1851
I1
sS'whatever '
p1852
I2
sS'justice '
p1853
I6
sS'guarantee '
p1854
I1
sS'talking '
p1855
I1
sS'fine '
p1856
I12
sS'seven '
p1857
I1
sS'euro '
p1858
I1
sS'kinda '
p1859
I2
sS'acorns '
p1860
I1
sS'message '
p1861
I1
sS'saint '
p1862
I1
sS'certainly '
p1863
I6
sS'correct '
p1864
I15
sS'safe '
p1865
I1
sS'absolutely '
p1866
I1
sS'straight '
p1867
I3
sS'allowed '
p1868
I2
sS'should '
p1869
I3
sS'mm '
p1870
I1
sS'vanished '
p1871
I1
sS'blinged '
p1872
I1
sS'that '
p1873
I3
sS'rather '
p1874
I8
sS'yes '
p1875
I1
sS'man '
p1876
I1
sS'pretty '
p1877
I43
sS'bless '
p1878
I1
sS'is '
p1879
I1
sS'time '
p1880
I1
sS'mind '
p1881
I1
sS'uncomfortable '
p1882
I6
sS'crushed '
p1883
I1
sS'dancing '
p1884
I2
sS'entitled '
p1885
I5
sS'ou '
p1886
I1
sS'exactly '
p1887
I2
sS'kindly '
p1888
I1
sS'fresh '
p1889
I1
sS'say '
p1890
I2
sS'suits '
p1891
I1
sS'send '
p1892
I1
sS'point '
p1893
I30
sS'emily '
p1894
I1
sS'floats '
p1895
I1
sS'keith '
p1896
I1
sS'macpherson '
p1897
I1
sS'apologize '
p1898
I1
sS'justified '
p1899
I2
sS'vaginal '
p1900
I1
sS'stop '
p1901
I1
sS'rightto '
p1902
I1
sS'too '
p1903
I4
sS'dirt '
p1904
I1
sS'true '
p1905
I7
sS'sense '
p1906
I1
sS'incorrect '
p1907
I1
sS'guess '
p1908
I2
sS'fun '
p1909
I1
sS'know '
p1910
I1
sS'forgetting '
p1911
I1
sS'non- '
p1912
I1
sS'right, '
p1913
I13
sS'serves '
p1914
I2
sS'lots '
p1915
I1
sS'idea '
p1916
I1
sS'be '
p1917
I1
sS'there '
p1918
I1
sS'splendid '
p1919
I1
sS'power '
p1920
I1
sS'sure '
p1921
I4
sS'fairly '
p1922
I5
sS'right '
p1923
I2440
sS'adorable '
p1924
I1
sS'stubbornness '
p1925
I1
sS'sixth '
p1926
I1
sS'monsieur '
p1927
I1
sS'like '
p1928
I2
sS'din '
p1929
I1
sS'olivia '
p1930
I1
sS'what '
p1931
I1
sS'reason '
p1932
I11
sS'ballsto '
p1933
I1
sS'oikeassa '
p1934
I1
sS'wrong '
p1935
I5
sS'okay '
p1936
I12
sS'yeah '
p1937
I5
sS'rig '
p1938
I1
sS'notice '
p1939
I1
sS'flakier '
p1940
I1
sS'satisfy '
p1941
I2
sS'pleasing '
p1942
I1
sS'jealous '
p1943
I1
sS'take '
p1944
I2
sS'eyes '
p1945
I1
sS'ya '
p1946
I1
sS'authority '
p1947
I1
sS'use '
p1948
I1
sS'huh '
p1949
I1
sS'sir '
p1950
I2
sS'go '
p1951
I1
sS'said '
p1952
I1
sS'alright '
p1953
I2
sS'kind '
p1954
I2
sS'measure '
p1955
I1
sS'settled '
p1956
I1
sS'key '
p1957
I1
sS"'t "
p1958
I9
sS'useful '
p1959
I1
sS'scarier '
p1960
I1
sS'thank '
p1961
I1
sS'boyfriend '
p1962
I1
sS'i. '
p1963
I2
sS'do '
p1964
I4
sS'law '
p1965
I23
sS'liking '
p1966
I1
sS's '
p1967
I1
sS'reach '
p1968
I1
sS'4 '
p1969
I1
sS'upright '
p1970
I1
sS'very '
p1971
I4
sS'business '
p1972
I1
sS'walk '
p1973
I1
sS'can '
p1974
I1
sS'protect '
p1975
I1
sS'story '
p1976
I1
sS'indeed '
p1977
I7
sS'listen '
p1978
I1
sS'strapless '
p1979
I1
sS'quite '
p1980
I25
sS'simon '
p1981
I1
sS'agree '
p1982
I11
sS'correctly '
p1983
I2
sS'been '
p1984
I1
sS'stealer '
p1985
I1
sS'mostly '
p1986
I1
sS'click '
p1987
I1
sS'alone '
p1988
I1
sS'saying '
p1989
I1
sS'cool '
p1990
I1
sS'not '
p1991
I5
sS'humanity '
p1992
I1
sS'privilege '
p1993
I1
sS'trial '
p1994
I1
sS'officer '
p1995
I1
sS'????????? '
p1996
I1
stp1997
a((lp1998
S'das'
p1999
aS'Das'
p2000
a(dp2001
S'better '
p2002
I1
sS': '
p2003
I1
sS'ever '
p2004
I4
sS'this, '
p2005
I12
sS'deal '
p2006
I1
sS'meant '
p2007
I2
sS'really '
p2008
I25
sS'up '
p2009
I5
sS'uh- '
p2010
I2
sS'glorious '
p2011
I1
sS'winning '
p2012
I1
sS'hmm '
p2013
I4
sS'today '
p2014
I2
sS'remains '
p2015
I1
sS'- '
p2016
I287
sS'wally '
p2017
I1
sS'sounds '
p2018
I3
sS'luck '
p2019
I1
sS'weak '
p2020
I1
sS't '
p2021
I6
sS'shit '
p2022
I3
sS'else '
p2023
I1
sS'me '
p2024
I6
sS'it" '
p2025
I3
sS'akator '
p2026
I1
sS'running '
p2027
I1
sS'should '
p2028
I4
sS'answer '
p2029
I1
sS'that '
p2030
I46087
sS'make '
p2031
I3
sS'health '
p2032
I1
sS'him '
p2033
I6
sS'oduvek '
p2034
I1
sS'say '
p2035
I6
sS'everything '
p2036
I18
sS'them, '
p2037
I1
sS'maybe '
p2038
I8
sS'must '
p2039
I1
sS'here '
p2040
I132
sS'pieces '
p2041
I1
sS'\\u007f\\u007fthis '
p2042
I1
sS'lako '
p2043
I1
sS'guess '
p2044
I3
sS'know '
p2045
I6
sS'tha\\u009ds '
p2046
I9
sS'always '
p2047
I1
sS'stitches '
p2048
I1
sS'right '
p2049
I18
sS'believe '
p2050
I1
sS'sir '
p2051
I1
sS'thatat '
p2052
I1
sS'whose '
p2053
I1
sS'off '
p2054
I1
sS'three '
p2055
I1
sS'handle '
p2056
I1
sS'wrong '
p2057
I5
sS'certainly '
p2058
I4
sS'and '
p2059
I45
sS'ofjerusalem '
p2060
I1
sS'nothing '
p2061
I14
sS'take '
p2062
I9
sS'mr. '
p2063
I2
sS'big '
p2064
I1
sS'461 '
p2065
I1
sS'none '
p2066
I2
sS'shouldn '
p2067
I1
sS'half '
p2068
I1
sS"'t "
p2069
I9
sS'keep '
p2070
I1
sS', '
p2071
I11
sS'baseball '
p2072
I1
sS'talk '
p2073
I1
sS'listen '
p2074
I1
sS'somebody '
p2075
I1
sS'being '
p2076
I3
sS'thou '
p2077
I1
sS'ho '
p2078
I1
sS'boat '
p2079
I1
sS'harry '
p2080
I1
sS'sascha '
p2081
I1
sS'its '
p2082
I9
sS'uh '
p2083
I19
sS'no '
p2084
I182
sS'the '
p2085
I24243
sS'ok '
p2086
I2
sS'paulie '
p2087
I1
sS'shh '
p2088
I1
sS'looks '
p2089
I1
sS'making '
p2090
I1
sS'wow '
p2091
I11
sS'course '
p2092
I2
sS'already '
p2093
I6
sS'did '
p2094
I12
sS'it\\u2019 '
p2095
I21
sS'then '
p2096
I13
sS'heels '
p2097
I1
sS'if '
p2098
I2
sS'look '
p2099
I27
sS'thinking '
p2100
I1
sS'little '
p2101
I1
sS'happened '
p2102
I1
sS'it '
p2103
I17691
sS'kids '
p2104
I1
sS'great '
p2105
I2
sS'this- '
p2106
I1
sS'l '
p2107
I2
sS'all '
p2108
I43
sS'our '
p2109
I61
sS'fine '
p2110
I5
sS'than '
p2111
I1
sS'gent '
p2112
I1
sS'have '
p2113
I3
sS"'re "
p2114
I5
sS'th '
p2115
I9
sS'never '
p2116
I3
sS'soon '
p2117
I1
sS'small '
p2118
I2
sS'as '
p2119
I14
sS'mm '
p2120
I1
sS'or '
p2121
I3
sS'bookie '
p2122
I1
sS'at '
p2123
I1
sS'could '
p2124
I1
sS'yes '
p2125
I38
sS'lt '
p2126
I9
sS'is '
p2127
I12
sS'hoodoo '
p2128
I1
sS'even '
p2129
I1
sS'believed '
p2130
I1
sS'pointedly '
p2131
I1
sS'things '
p2132
I21
sS'go '
p2133
I1
sS'happening '
p2134
I10
sS'but '
p2135
I34
sS'too '
p2136
I7
sS'makes '
p2137
I1
sS'tha '
p2138
I3
sS'mrs. '
p2139
I1
sS'mmm '
p2140
I1
sS'i- '
p2141
I4
sS'cora\\u00e3o '
p2142
I1
sS'be '
p2143
I10
sS'remember '
p2144
I1
sS'wimps '
p2145
I1
sS'her '
p2146
I36
sS'first '
p2147
I1
sS'ted '
p2148
I1
sS'don '
p2149
I14
sS'serious '
p2150
I3
sS'was '
p2151
I2
sS'except '
p2152
I3
sS'give '
p2153
I2
sS'to '
p2154
I53
sS'dawn '
p2155
I1
sS'wh '
p2156
I1
sS'gonna '
p2157
I16
sS'huh '
p2158
I1
sS'bet '
p2159
I1
sS'coming '
p2160
I6
sS'well '
p2161
I157
sS'aw '
p2162
I1
sS'flirting '
p2163
I1
sS'dohis '
p2164
I1
sS'ths '
p2165
I1
sS'do '
p2166
I37
sS'guys '
p2167
I1
sS'understand '
p2168
I3
sS'damn '
p2169
I1
sS'congratulations '
p2170
I1
sS'cam '
p2171
I1
sS'sklp '
p2172
I1
sS'very '
p2173
I4
sS'o- '
p2174
I1
sS'an '
p2175
I13
sS'judgments '
p2176
I1
sS'confirm '
p2177
I1
sS'tell '
p2178
I16
sS'see '
p2179
I8
sS'das '
p2180
I10
sS'because '
p2181
I3
sS'* '
p2182
I2
sS'tehd\xc3\xa4 '
p2183
I1
sS'saying '
p2184
I1
sS'not '
p2185
I24
sS'yeah '
p2186
I79
sS'one '
p2187
I33
sS'word '
p2188
I1
sS'it\xc3\xa9 '
p2189
I2
sS'rather '
p2190
I1
sS'mean '
p2191
I38
sS'gitti '
p2192
I1
sS'true '
p2193
I2
sS'try '
p2194
I1
sS'boubacar '
p2195
I1
sS'about '
p2196
I22
sS'please '
p2197
I5
sS'would '
p2198
I4
sS'talking '
p2199
I1
sS'dumbass '
p2200
I1
sS'ain '
p2201
I1
sS'will, '
p2202
I1
sS'them '
p2203
I58
sS'write '
p2204
I1
sS'sheldon '
p2205
I1
sS'into '
p2206
I1
sS'end '
p2207
I2
sS'having '
p2208
I3
sS'face '
p2209
I1
sS'figure '
p2210
I1
sS'come '
p2211
I11
sS'man '
p2212
I1
sS'date '
p2213
I2
sS'he '
p2214
I330
sS'whatever '
p2215
I2
sS'sets '
p2216
I1
sS'doing '
p2217
I11
sS'after '
p2218
I1
sS'exactly '
p2219
I4
sS'thanks '
p2220
I9
sS'his '
p2221
I89
sS'sort '
p2222
I4
sS"'s "
p2223
I165
sS'those '
p2224
I382
sS'picture '
p2225
I1
sS'that, '
p2226
I42
sS'that\\u2019 '
p2227
I20
sS'done '
p2228
I2
sS'spanish '
p2229
I1
sS'straighter '
p2230
I1
sS'on, '
p2231
I1
sS'there '
p2232
I537
sS'hey '
p2233
I24
sS'fucking '
p2234
I7
sS'like '
p2235
I25
sS'thats '
p2236
I41
sS'fudge '
p2237
I1
sS'dude '
p2238
I1
sS'okay '
p2239
I21
sS'care '
p2240
I5
sS'olmaz '
p2241
I1
sS'will '
p2242
I6
sS'who '
p2243
I90
sS'tabs '
p2244
I1
sS'cheer '
p2245
I1
sS'kind '
p2246
I1
sS'where '
p2247
I4
sS'meet '
p2248
I4
sS'blame '
p2249
I1
sS'well, '
p2250
I3
sS'these '
p2251
I657
sS'of '
p2252
I5
sS'phil '
p2253
I1
sS"'m "
p2254
I2
sS'dad '
p2255
I4
sS'your '
p2256
I287
sS'away '
p2257
I1
sS'mean, '
p2258
I1
sS'how '
p2259
I62
sS'some '
p2260
I6
sS'smoke '
p2261
I1
sS'" '
p2262
I15
sS'can '
p2263
I3
sS'sit '
p2264
I1
sS'lamb '
p2265
I1
sS'hello '
p2266
I3
sS'i '
p2267
I1910
sS'sure '
p2268
I26
sS'people '
p2269
I2
sS'damage '
p2270
I1
sS'get '
p2271
I3
sS'madjembe '
p2272
I2
sS'sam '
p2273
I2
sS'bell '
p2274
I1
sS'pasta '
p2275
I1
sS'cool '
p2276
I1
sS'i\\u2019 '
p2277
I3
sS'thing '
p2278
I33
sS'which '
p2279
I276
sS'going '
p2280
I3
sS'only '
p2281
I2
sS'am '
p2282
I1
sS'actually '
p2283
I8
sS'perfect '
p2284
I1
sS'y- '
p2285
I1
sS'work '
p2286
I1
sS'oh, '
p2287
I3
sS'sovereign '
p2288
I1
sS'hes '
p2289
I1
sS'surprised '
p2290
I1
sS'( '
p2291
I29
sS'sorry '
p2292
I5
sS'let '
p2293
I37
sS'we '
p2294
I349
sS'ha '
p2295
I1
sS'el '
p2296
I2
sS'degree '
p2297
I1
sS'lurching '
p2298
I1
sS'any '
p2299
I3
sS"'ll "
p2300
I5
sS'deserve '
p2301
I1
sS'just '
p2302
I47
sS'theirs '
p2303
I1
sS'before '
p2304
I1
sS'tonight '
p2305
I1
sS'tara '
p2306
I1
sS'good '
p2307
I22
sS'their '
p2308
I14
sS'indeed '
p2309
I7
sS'stuff '
p2310
I6
sS'she '
p2311
I110
sS'might '
p2312
I3
sS'think '
p2313
I4
sS'yours '
p2314
I3
sS'totally '
p2315
I2
sS'father '
p2316
I1
sS'out '
p2317
I2
sS'such '
p2318
I12
sS'happen '
p2319
I1
sS'um '
p2320
I6
sS'quite '
p2321
I3
sS'stop '
p2322
I5
sS'mine '
p2323
I3
sS'nobody '
p2324
I1
sS'now '
p2325
I46
sS'for '
p2326
I58
sS'tall '
p2327
I1
sS'every '
p2328
I3
sS'jack '
p2329
I1
sS'. '
p2330
I1
sS'wasn '
p2331
I1
sS'why '
p2332
I22
sS'so '
p2333
I393
sS'ah '
p2334
I9
sS'rahl '
p2335
I1
sS'doesn '
p2336
I1
sS'couldn '
p2337
I2
sS'you '
p2338
I1617
sS'they '
p2339
I740
sS'what '
p2340
I408
sS'john '
p2341
I1
sS'another '
p2342
I1
sS'agnew '
p2343
I1
sS'this '
p2344
I24232
sS'break- '
p2345
I1
sS'dish '
p2346
I1
sS'[ '
p2347
I40
sS'wait '
p2348
I6
sS'thls '
p2349
I3
sS'yes, '
p2350
I1
sS'everybody '
p2351
I4
sS"' "
p2352
I28
sS'spoiler '
p2353
I1
sS'-- '
p2354
I3
sS'hell '
p2355
I1
sS'# '
p2356
I2
sS'jesus '
p2357
I1
sS'hurry '
p2358
I1
sS'does '
p2359
I5
sS'a '
p2360
I454
sS'god '
p2361
I4
sS'crystal '
p2362
I1
sS'oh '
p2363
I109
sS'whoa '
p2364
I2
sS'my '
p2365
I105
sS'raccoon, '
p2366
I1
sS'in '
p2367
I6
sS'coffee '
p2368
I2
sS'something '
p2369
I39
sS'simpson, '
p2370
I1
sS'back '
p2371
I2
stp2372
a((lp2373
S'tat'
p2374
aS'Tat'
p2375
a(dp2376
S'hurt '
p2377
I1
sS'so '
p2378
I7
sS'felt '
p2379
I11
sS'got '
p2380
I2
sS'would '
p2381
I2
sS'done '
p2382
I16
sS'wth '
p2383
I1
sS'getter '
p2384
I1
sS'punching '
p2385
I1
sS'cried '
p2386
I1
sS'actually '
p2387
I27
sS'deeds '
p2388
I1
sS'pretended '
p2389
I6
sS'actually, '
p2390
I1
sS'course '
p2391
I1
sS'own '
p2392
I1
sS'did '
p2393
I399
sS'didn '
p2394
I47
sS'should '
p2395
I1
sS'do '
p2396
I15
sS'wasrt '
p2397
I1
sS'mystery '
p2398
I1
sS'used '
p2399
I2
sS'actions '
p2400
I1
sS'right '
p2401
I1
sS'niece '
p2402
I1
sS'turned '
p2403
I1
sS'is '
p2404
I1
sS'were '
p2405
I1
sS'took '
p2406
I2
sS'lndeed '
p2407
I4
sS'does '
p2408
I3
sS'doing '
p2409
I38
sS'measles '
p2410
I1
sS'nathaniel '
p2411
I1
sS'chose '
p2412
I1
sS'pretending '
p2413
I1
sS'indeed '
p2414
I112
sS'fact '
p2415
I63
sS'pressure '
p2416
I1
sS'doin '
p2417
I1
sS'shooting '
p2418
I1
sS'vaginal '
p2419
I1
sS'present '
p2420
I1
sS'turkey '
p2421
I1
sS'crime '
p2422
I3
sS'was '
p2423
I27
sS'accept '
p2424
I1
sS'wasn '
p2425
I1
sS'action '
p2426
I6
sS'fact, '
p2427
I2
sS'made '
p2428
I1
sS'did, '
p2429
I1
sS'dd '
p2430
I2
sS'tried '
p2431
I2
sS'whathe '
p2432
I1
sS'n\xc3\xa4ytt\xc3\xa4\xc3\xa4 '
p2433
I1
sS'had '
p2434
I3
sS'loud, '
p2435
I1
sS'certainly '
p2436
I4
sS'tat '
p2437
I2
sS'lk '
p2438
I1
sS'coughing '
p2439
I1
sS'medication '
p2440
I1
sS'work '
p2441
I2
sS'sexy '
p2442
I1
sS'happen '
p2443
I1
sS'black '
p2444
I1
sS'act '
p2445
I38
sS'thing '
p2446
I3
sS'truth '
p2447
I1
sS'be '
p2448
I3
sS'deed '
p2449
I22
stp2450
a((lp2451
S'zweifellos'
p2452
aS'Zweifellos'
p2453
a(dp2454
S'doubt '
p2455
I14
sS'clearly '
p2456
I1
sS'doubtless '
p2457
I1
sS'undoubtedly '
p2458
I8
sS'certainly '
p2459
I3
sS'absolutely '
p2460
I1
sS'strictly '
p2461
I2
sS'hands '
p2462
I1
sS'decidedly '
p2463
I1
sS'footloose '
p2464
I2
stp2465
a((lp2466
S'gewissenhafttun'
p2467
aS'Gewissenhafttun'
p2468
a(dp2469
S'certainly '
p2470
I3
stp2471
a((lp2472
S'ganz'
p2473
aS'Ganz'
p2474
a(dp2475
S'definitely '
p2476
I1
sS'aii '
p2477
I1
sS'bottom '
p2478
I2
sS'no '
p2479
I17
sS'chip '
p2480
I2
sS'mighty '
p2481
I1
sS'down '
p2482
I1
sS'yes '
p2483
I2
sS'kinda '
p2484
I3
sS'kerry '
p2485
I1
sS'really '
p2486
I100
sS'absolutely '
p2487
I9
sS'full '
p2488
I6
sS'although '
p2489
I1
sS'someonewould '
p2490
I1
sS'perfectly '
p2491
I9
sS'wa- '
p2492
I1
sS'expression '
p2493
I1
sS'little '
p2494
I5
sS'it '
p2495
I41
sS'the '
p2496
I1
sS'fully '
p2497
I12
sS'anything '
p2498
I1
sS'- '
p2499
I5
sS'all '
p2500
I395
sS'missing '
p2501
I1
sS'incarnation '
p2502
I1
sS'fine '
p2503
I2
sS'sounds '
p2504
I1
sS"'re "
p2505
I3
sS'totally '
p2506
I33
sS'altogether '
p2507
I1
sS'regardless '
p2508
I1
sS'a '
p2509
I63
sS'getting '
p2510
I1
sS'refuse '
p2511
I1
sS'and '
p2512
I4
sS'as '
p2513
I2
sS'ok '
p2514
I2
sS'smooth '
p2515
I1
sS'most '
p2516
I2
sS'second '
p2517
I1
sS'quiet '
p2518
I1
sS'completely '
p2519
I57
sS'because '
p2520
I2
sS'at '
p2521
I2
sS'brand- '
p2522
I1
sS'chill '
p2523
I1
sS'that '
p2524
I105
sS'rather '
p2525
I2
sS'self '
p2526
I1
sS'good '
p2527
I2
sS'pretty '
p2528
I58
sS'catching '
p2529
I1
sS'wow '
p2530
I1
sS'even '
p2531
I1
sS'she '
p2532
I2
sS'patients '
p2533
I1
sS'oh '
p2534
I2
sS'exactly '
p2535
I42
sS'tod '
p2536
I1
sS'everything '
p2537
I2
sS'seriously '
p2538
I2
sS'thanks '
p2539
I2
sS'you\\u2019 '
p2540
I1
sS'out '
p2541
I2
sS'fail '
p2542
I1
sS'dals '
p2543
I1
sS'without '
p2544
I3
sS'lot '
p2545
I9
sS'quite '
p2546
I233
sS'relatively '
p2547
I1
sS'way '
p2548
I9
sS'yourself '
p2549
I2
sS'ganz '
p2550
I22
sS'too '
p2551
I2
sS'whole '
p2552
I77
sS'complete '
p2553
I1
sS'know '
p2554
I1
sS'anywhere '
p2555
I1
sS'loads '
p2556
I1
sS'rela '
p2557
I1
sS'lots '
p2558
I1
sS'actuallyour '
p2559
I1
sS'in '
p2560
I4
sS'be '
p2561
I1
sS'there '
p2562
I1
sS'hey '
p2563
I2
sS'sure '
p2564
I10
sS'right '
p2565
I14
sS'so '
p2566
I14
sS'like '
p2567
I6
sS'on '
p2568
I5
sS'stamina '
p2569
I1
sS'you '
p2570
I15
sS'don '
p2571
I4
sS'they '
p2572
I1
sS'what '
p2573
I1
sS'straight '
p2574
I1
sS'plain '
p2575
I1
sS'okay '
p2576
I2
sS'everybody '
p2577
I2
sS'yeah '
p2578
I3
sS'certainly '
p2579
I3
sS'exact '
p2580
I1
sS'vey '
p2581
I1
sS'bit '
p2582
I4
sS'take '
p2583
I2
sS'real '
p2584
I44
sS'cooperate '
p2585
I1
sS'to '
p2586
I1
sS'far '
p2587
I2
sS'open '
p2588
I1
sS'brand '
p2589
I3
sS'side '
p2590
I1
sS'ma '
p2591
I1
sS'kind '
p2592
I9
sS'well '
p2593
I5
sS'top '
p2594
I4
sS"'t "
p2595
I4
sS'of '
p2596
I5
sS'dean '
p2597
I1
sS"'s "
p2598
I12
sS'concise '
p2599
I1
sS'come '
p2600
I1
sS'damn '
p2601
I3
sS'here '
p2602
I1
sS'giggles '
p2603
I1
sS'very '
p2604
I225
sS'sit '
p2605
I1
sS'never '
p2606
I1
sS'whoa '
p2607
I2
sS'strictly '
p2608
I3
sS'just '
p2609
I49
sS'nice '
p2610
I7
sS'i '
p2611
I18
sS'been '
p2612
I2
sS'piece '
p2613
I4
sS'lively '
p2614
I1
sS'tighter '
p2615
I1
sS'easiest '
p2616
I1
sS'total '
p2617
I1
sS'not '
p2618
I49
sS'something '
p2619
I3
sS'entirely '
p2620
I44
stp2621
a((lp2622
S'klar'
p2623
aS'Klar'
p2624
a(dp2625
S'definitely '
p2626
I2
sS'rules '
p2627
I1
sS'sweet '
p2628
I1
sS'remember '
p2629
I1
sS'stay '
p2630
I2
sS'follow '
p2631
I3
sS'uh '
p2632
I3
sS'damaged '
p2633
I1
sS'am '
p2634
I1
sS'clearing '
p2635
I4
sS'no '
p2636
I15
sS'record '
p2637
I6
sS'would '
p2638
I1
sS'hi '
p2639
I2
sS'ok '
p2640
I48
sS'luck '
p2641
I1
sS'recognition '
p2642
I1
sS'realized '
p2643
I50
sS'sharp '
p2644
I2
sS'steady '
p2645
I1
sS'kidding '
p2646
I1
sS'man '
p2647
I9
sS'course '
p2648
I158
sS'sorry '
p2649
I2
sS'break '
p2650
I1
sS'did '
p2651
I2
sS'understand '
p2652
I50
sS'set '
p2653
I4
sS'really '
p2654
I2
sS'absolutely '
p2655
I14
sS'up '
p2656
I19
sS'ready '
p2657
I11
sS'goes '
p2658
I2
sS'duh '
p2659
I1
sS'tight '
p2660
I1
sS'dead '
p2661
I1
sS'try '
p2662
I1
sS'\\u00bf '
p2663
I1
sS'lucid '
p2664
I6
sS'cut '
p2665
I1
sS'mode '
p2666
I1
sS'buddy '
p2667
I1
sS'ey '
p2668
I1
sS'raj '
p2669
I1
sS'is '
p2670
I1
sS'fact '
p2671
I1
sS'storybook '
p2672
I1
sS'it '
p2673
I61
sS'surprised '
p2674
I1
sS'kids '
p2675
I1
sS'check '
p2676
I1
sS'established '
p2677
I2
sS'great '
p2678
I7
sS'down- '
p2679
I1
sS'tomorrow '
p2680
I2
sS'upfront '
p2681
I1
sS'please '
p2682
I5
sS'sure, '
p2683
I1
sS'moment '
p2684
I2
sS'mm- '
p2685
I1
sS'flip '
p2686
I2
sS'asshole '
p2687
I1
sS'those, '
p2688
I1
sS'consultants '
p2689
I1
sS'we '
p2690
I3
sS'next '
p2691
I1
sS'- '
p2692
I8
sS'help '
p2693
I2
sS'weisskopf '
p2694
I1
sS'cleared '
p2695
I2
sS'tali '
p2696
I1
sS'lohss '
p2697
I2
sS'fine '
p2698
I55
sS'timpleman '
p2699
I1
sS'guess '
p2700
I1
sS'praise '
p2701
I1
sS'aware '
p2702
I11
sS'totally '
p2703
I1
sS'situation '
p2704
I1
sS'clean '
p2705
I1
sS'say '
p2706
I1
sS'worries '
p2707
I1
sS'artichoke- '
p2708
I2
sS'does '
p2709
I1
sS'lifts '
p2710
I1
sS'me '
p2711
I1
sS'definitive '
p2712
I1
sS'jazz '
p2713
I1
sS'amigo '
p2714
I1
sS'got '
p2715
I77
sS'simple '
p2716
I1
sS'straight '
p2717
I24
sS'marion '
p2718
I1
sS'rim '
p2719
I1
sS'mysehf '
p2720
I1
sS'wha- '
p2721
I1
sS'urinating '
p2722
I1
sS'or '
p2723
I1
sS'face '
p2724
I3
sS'*** '
p2725
I2
sS'figure '
p2726
I2
sS'that '
p2727
I16
sS'come '
p2728
I3
sS'yes '
p2729
I40
sS'good '
p2730
I65
sS'gavel '
p2731
I1
sS'charlotte '
p2732
I1
sS"'em "
p2733
I4
sS'understood '
p2734
I13
sS'allright '
p2735
I2
sS'time '
p2736
I2
sS'funny '
p2737
I1
sS'inferno '
p2738
I1
sS'accept '
p2739
I1
sS'doing '
p2740
I21
sS'gotcha '
p2741
I4
sS'****** '
p2742
I1
sS'she '
p2743
I2
sS'order '
p2744
I1
sS'never '
p2745
I1
sS'throh '
p2746
I1
sS'them '
p2747
I4
sS'loud '
p2748
I1
sS'rht '
p2749
I1
sS'doin '
p2750
I1
sS'let" '
p2751
I1
sS'surely '
p2752
I1
sS"'ight "
p2753
I3
sS'squawks '
p2754
I1
sS'let '
p2755
I1
sS'pal '
p2756
I1
sS'everything '
p2757
I1
sS'seriously '
p2758
I3
sS'pointing '
p2759
I1
sS'nuts '
p2760
I1
sS'thanks '
p2761
I5
sS'grab '
p2762
I1
sS'light '
p2763
I1
sS'along '
p2764
I3
sS'mellifluous '
p2765
I1
sS'square '
p2766
I1
sS'novelty '
p2767
I1
sS'yep '
p2768
I3
sS'cancer '
p2769
I1
sS'attention '
p2770
I1
sS'go '
p2771
I5
sS'happening '
p2772
I2
sS'breakdown '
p2773
I1
sS'cope '
p2774
I1
sS'without '
p2775
I1
sS'um '
p2776
I1
sS'sorted '
p2777
I2
sS'here '
p2778
I1
sS'yourself '
p2779
I1
sS'tubbs '
p2780
I2
sS'amazing '
p2781
I1
sS'farms '
p2782
I1
sS'ten- '
p2783
I2
sS'excited '
p2784
I1
sS'live '
p2785
I2
sS'knew '
p2786
I6
sS'myself '
p2787
I2
sS'agree '
p2788
I1
sS'wanna '
p2789
I1
sS'true '
p2790
I1
sS'sense '
p2791
I1
sS'cool, '
p2792
I1
sS'sharon '
p2793
I1
sS'dot '
p2794
I1
sS'done '
p2795
I10
sS'know '
p2796
I76
sS'honey '
p2797
I1
sS'obviously '
p2798
I3
sS'dig '
p2799
I2
sS'right, '
p2800
I87
sS'realizes '
p2801
I1
sS'crack '
p2802
I1
sS'hiccup '
p2803
I1
sS'love '
p2804
I1
sS'righty '
p2805
I7
sS'baby '
p2806
I1
sS'clever '
p2807
I1
sS'suddenly '
p2808
I1
sS'familiar '
p2809
I1
sS'now '
p2810
I1
sS'ass '
p2811
I1
sS'hey '
p2812
I2
sS'obvous '
p2813
I1
sS'sure '
p2814
I525
sS'obvious '
p2815
I23
sS'leonard '
p2816
I1
sS'right '
p2817
I2387
sS'nathan- '
p2818
I1
sS'fiat '
p2819
I1
sS'poll '
p2820
I1
sS'laughs '
p2821
I2
sS'enough '
p2822
I3
sS'why '
p2823
I1
sS'needed '
p2824
I1
sS'hardison '
p2825
I1
sS'fucking '
p2826
I1
sS'like '
p2827
I1
sS'rehearsal '
p2828
I1
sS'sound '
p2829
I1
sS'on '
p2830
I12
sS'tally '
p2831
I1
sS'you '
p2832
I33
sS'noticed '
p2833
I1
sS'wilcox '
p2834
I1
sS'whatever '
p2835
I1
sS'feature '
p2836
I1
sS'what '
p2837
I1
sS'sunk '
p2838
I1
sS'oi '
p2839
I1
sS'dude '
p2840
I1
sS'door '
p2841
I1
sS'handle '
p2842
I33
sS'plain '
p2843
I3
sS'okay '
p2844
I191
sS'clearly '
p2845
I56
sS"'ll "
p2846
I1
sS'certainly '
p2847
I3
sS'wasn '
p2848
I1
sS'going '
p2849
I3
sS'jared '
p2850
I1
sS'dictatorship '
p2851
I1
sS'put '
p2852
I1
sS'eh '
p2853
I1
sS'mistake '
p2854
I1
sS'will '
p2855
I2
sS'artifact '
p2856
I1
sS'who '
p2857
I1
sS'riall '
p2858
I1
sS'manage '
p2859
I3
sS'realizing '
p2860
I2
sS'figured '
p2861
I10
sS'klara '
p2862
I3
sS'huh '
p2863
I4
sS'ex '
p2864
I1
sS'prepare '
p2865
I1
sS'realised '
p2866
I13
sS'sir '
p2867
I2
sS'coping '
p2868
I1
sS'reservation '
p2869
I1
sS'112 '
p2870
I1
sS'bet '
p2871
I3
sS'alright '
p2872
I104
sS'brother '
p2873
I2
sS'settled '
p2874
I5
sS'whee '
p2875
I1
sS'right\\u00a1 '
p2876
I1
sS'yeah, '
p2877
I2
sS'well '
p2878
I18
sS'problem '
p2879
I5
sS'point '
p2880
I1
sS'floyd '
p2881
I2
sS'realize '
p2882
I120
sS'memos '
p2883
I1
sS'do '
p2884
I5
sS'clear '
p2885
I382
sS'guys '
p2886
I2
sS'naturally '
p2887
I1
sS'chuckllng '
p2888
I1
sS'geniuses '
p2889
I1
sS'figures '
p2890
I4
sS'roger '
p2891
I2
sS'remaining '
p2892
I1
sS'shoot '
p2893
I1
sS'realise '
p2894
I14
sS'sheldonopolis '
p2895
I1
sS'easy '
p2896
I2
sS'telling '
p2897
I2
sS'mate '
p2898
I1
sS'crazy '
p2899
I1
sS'girl, '
p2900
I1
sS'can '
p2901
I2
sS'klar '
p2902
I8
sS'sit '
p2903
I1
sS'managing '
p2904
I1
sS'indeed '
p2905
I3
sS'oh '
p2906
I12
sS'baby- '
p2907
I1
sS'tell '
p2908
I2
sS'ben '
p2909
I2
sS'hear '
p2910
I2
sS'see '
p2911
I22
sS'gasps '
p2912
I1
sS'i '
p2913
I18
sS'aaaaah '
p2914
I1
sS'ahead '
p2915
I3
sS'in '
p2916
I1
sS'awesomest '
p2917
I1
sS'laugh '
p2918
I1
sS'mind '
p2919
I1
sS'deal '
p2920
I12
sS'elena '
p2921
I1
sS'hofer '
p2922
I1
sS'zack '
p2923
I1
sS'confused '
p2924
I2
sS'get '
p2925
I13
sS'normal '
p2926
I1
sS'eottae '
p2927
I1
sS'explain '
p2928
I1
sS'peed '
p2929
I1
sS'liz '
p2930
I1
sS'cool '
p2931
I14
sS'idea '
p2932
I3
sS'killed '
p2933
I1
sS'copy '
p2934
I3
sS'phony '
p2935
I1
sS'thing '
p2936
I1
sS'okeydoke '
p2937
I2
sS'yeah '
p2938
I283
stp2939
a((lp2940
S'wohl'
p2941
aS'Wohl'
p2942
a(dp2943
S'one '
p2944
I1
sS'going '
p2945
I1
sS'may '
p2946
I11
sS'thusly '
p2947
I1
sS'what '
p2948
I1
sS'would '
p2949
I9
sS'messed '
p2950
I1
sS'mean '
p2951
I5
sS'looks '
p2952
I8
sS'welfare '
p2953
I4
sS'making '
p2954
I1
sS'better '
p2955
I3
sS'course '
p2956
I1
sS'did '
p2957
I1
sS'health '
p2958
I1
sS'then '
p2959
I1
sS'wonder '
p2960
I14
sS'up '
p2961
I2
sS'afraid '
p2962
I4
sS'isn '
p2963
I1
sS'benefit '
p2964
I3
sS'neccesary '
p2965
I1
sS'it '
p2966
I3
sS'about '
p2967
I2
sS'sorry '
p2968
I1
sS'expect '
p2969
I3
sS'least '
p2970
I1
sS'apparently '
p2971
I4
sS'talking '
p2972
I1
sS'all '
p2973
I3
sS'fine '
p2974
I2
sS'have '
p2975
I20
sS"'re "
p2976
I5
sS'probably '
p2977
I183
sS'seem '
p2978
I8
sS'best '
p2979
I2
sS'else '
p2980
I1
sS'very '
p2981
I1
sS'getting '
p2982
I1
sS'got '
p2983
I3
sS'salud '
p2984
I1
sS'bye '
p2985
I6
sS'leaving '
p2986
I1
sS'likely '
p2987
I2
sS'seems '
p2988
I13
sS'sake '
p2989
I6
sS'just '
p2990
I15
sS'healthy '
p2991
I1
sS'fancy '
p2992
I2
sS'that '
p2993
I3
sS'rather '
p2994
I1
sS'yes '
p2995
I2
sS'good '
p2996
I39
sS'safety '
p2997
I1
sS'wouldn '
p2998
I1
sS'pretty '
p2999
I3
sS'is '
p3000
I4
sS'mind '
p3001
I1
sS'uncomfortable '
p3002
I3
sS'trait '
p3003
I1
sS'bter '
p3004
I1
sS'drink '
p3005
I1
sS'might '
p3006
I16
sS'think '
p3007
I156
sS'maybe '
p3008
I4
sS'perhaps '
p3009
I4
sS'enjoy '
p3010
I3
sS'out '
p3011
I3
sS"'s "
p3012
I2
sS'must '
p3013
I97
sS'quite '
p3014
I2
sS'uvula '
p3015
I1
sS'doubt '
p3016
I2
sS'too '
p3017
I1
sS'really '
p3018
I4
sS'for '
p3019
I1
sS'guess '
p3020
I168
sS'zadrovya '
p3021
I1
sS'know '
p3022
I3
sS'i '
p3023
I1
sS'obviously '
p3024
I9
sS'richie '
p3025
I1
sS'a '
p3026
I1
sS'cheers '
p3027
I19
sS'be '
p3028
I68
sS'now '
p3029
I2
sS'dreams '
p3030
I1
sS'suppose '
p3031
I33
sS'right '
p3032
I17
sS'believe '
p3033
I1
sS'much '
p3034
I2
sS'sir '
p3035
I2
sS'like '
p3036
I15
sS'don '
p3037
I3
sS'certainhy '
p3038
I1
sS'was '
p3039
I1
sS'feeling '
p3040
I1
sS'means '
p3041
I2
sS'possibly '
p3042
I5
sS'are '
p3043
I1
sS'opportunity '
p3044
I1
sS'certainly '
p3045
I3
sS'greater '
p3046
I8
sS'bit '
p3047
I2
sS'he '
p3048
I1
sS'take '
p3049
I2
sS'will '
p3050
I1
sS'to '
p3051
I10
sS'wonders '
p3052
I1
sS'gonna '
p3053
I6
sS'huh '
p3054
I2
sS'bet '
p3055
I5
sS'precisely '
p3056
I1
sS'well '
p3057
I50
sS'supposed '
p3058
I1
sS'comfortable '
p3059
I46
sS', '
p3060
I1
sS'do '
p3061
I8
sS"'m "
p3062
I1
sS'sick '
p3063
I1
sS"'t "
p3064
I12
sS'business '
p3065
I1
sS'bajillionaire '
p3066
I1
sS'looking '
p3067
I1
sS'nice '
p3068
I1
sS'well- '
p3069
I2
sS'long '
p3070
I2
sS'shuffle '
p3071
I1
sS'knows '
p3072
I1
sS'not '
p3073
I1
sS'bottoms- '
p3074
I1
stp3075
a((lp3076
S'offensichtlich'
p3077
aS'Offensichtlich'
p3078
a(dp3079
S'son '
p3080
I1
sS'no '
p3081
I1
sS'duh '
p3082
I2
sS'clearly, '
p3083
I3
sS'building '
p3084
I1
sS'evidently '
p3085
I9
sS'obviously '
p3086
I278
sS'similar '
p3087
I1
sS'seems '
p3088
I1
sS'apparent '
p3089
I2
sS'course '
p3090
I3
sS'obously '
p3091
I1
sS'predictable '
p3092
I1
sS'clear '
p3093
I1
sS'saved '
p3094
I2
sS'obvious '
p3095
I103
sS'few '
p3096
I1
sS'significantly '
p3097
I3
sS'economic '
p3098
I1
sS'subtle '
p3099
I1
sS'help '
p3100
I1
sS'hide '
p3101
I1
sS'thank '
p3102
I1
sS'indeed '
p3103
I1
sS'noticed '
p3104
I1
sS'rude '
p3105
I1
sS'lied, '
p3106
I1
sS'aside '
p3107
I1
sS'- '
p3108
I1
sS'plain '
p3109
I2
sS'deserved '
p3110
I1
sS'********* '
p3111
I1
sS'clearly '
p3112
I67
sS'apparently, '
p3113
I4
sS'apparently '
p3114
I101
sS'certainly '
p3115
I3
sS'changed '
p3116
I1
sS'obviously, '
p3117
I3
sS'obviousby '
p3118
I1
sS'camper '
p3119
I1
sS'cleary '
p3120
I1
sS'stop '
p3121
I1
sS'seem '
p3122
I1
stp3123
a((lp3124
S'wirklich'
p3125
aS'Wirklich'
p3126
a(dp3127
S'definitely '
p3128
I4
sS'crunches '
p3129
I1
sS'concrete '
p3130
I1
sS'stay '
p3131
I1
sS'better '
p3132
I1
sS'devon '
p3133
I1
sS'hardly '
p3134
I2
sS'dunwiddie '
p3135
I1
sS'no '
p3136
I6
sS'certain '
p3137
I3
sS'perfect '
p3138
I1
sS'would '
p3139
I6
sS'sweet '
p3140
I3
sS'hey '
p3141
I2
sS'mean '
p3142
I11
sS'screaming '
p3143
I1
sS'roasted '
p3144
I1
sS'going '
p3145
I1
sS'rubbish '
p3146
I1
sS'actually '
p3147
I252
sS'really, '
p3148
I16
sS'levar '
p3149
I2
sS'calendar '
p3150
I1
sS'nervous '
p3151
I1
sS'booze '
p3152
I1
sS'already '
p3153
I2
sS'did '
p3154
I33
sS'work '
p3155
I1
sS'something '
p3156
I1
sS'then '
p3157
I1
sS'really '
p3158
I7566
sS'true '
p3159
I17
sS'cla '
p3160
I1
sS'palms '
p3161
I1
sS'ready '
p3162
I1
sS'particularly '
p3163
I1
sS'am '
p3164
I6
sS'dead '
p3165
I2
sS'cough '
p3166
I1
sS'truth '
p3167
I2
sS'egypt '
p3168
I1
sS'ihanko '
p3169
I1
sS'swear '
p3170
I4
sS'dearly '
p3171
I1
sS'look '
p3172
I1
sS'realy '
p3173
I4
sS'genuinely '
p3174
I4
sS'sometimes '
p3175
I1
sS'crying '
p3176
I3
sS'cause '
p3177
I1
sS'it '
p3178
I17
sS'surprised '
p3179
I1
sS'about '
p3180
I1
sS'guysaren '
p3181
I1
sS'god '
p3182
I3
sS'sorry '
p3183
I1
sS'tongue '
p3184
I1
sS'ridiculous '
p3185
I1
sS'mustafa '
p3186
I1
sS'anything '
p3187
I2
sS'clearly '
p3188
I2
sS'help '
p3189
I1
sS'all '
p3190
I15
sS'92 '
p3191
I1
sS'badly '
p3192
I1
sS'best '
p3193
I1
sS'than '
p3194
I1
sS'want '
p3195
I1
sS"'re "
p3196
I2
sS'shamy '
p3197
I1
sS'geiss '
p3198
I1
sS'kinda '
p3199
I1
sS'totally '
p3200
I11
sS'reaily '
p3201
I20
sS'any '
p3202
I2
sS'shh '
p3203
I1
sS'mom '
p3204
I2
sS'nathan '
p3205
I1
sS'certainly '
p3206
I3
sS'other '
p3207
I2
sS'a '
p3208
I16
sS'sheldon '
p3209
I1
sS'worth '
p3210
I2
sS'obviously '
p3211
I1
sS'unborn '
p3212
I1
sS'unscheduled '
p3213
I1
sS'job '
p3214
I3
sS'should '
p3215
I2
sS'laughing '
p3216
I1
sS'actually, '
p3217
I3
sS'just '
p3218
I22
sS'because '
p3219
I1
sS'away '
p3220
I1
sS'could '
p3221
I1
sS'that '
p3222
I23
sS'come '
p3223
I3
sS'confident '
p3224
I1
sS'yes '
p3225
I2
sS'good '
p3226
I6
sS'sexed '
p3227
I1
sS'cagey '
p3228
I1
sS'drew '
p3229
I1
sS'pretty '
p3230
I31
sS'woman '
p3231
I2
sS'hlp- '
p3232
I1
sS'is '
p3233
I26
sS'literally '
p3234
I7
sS'melissa '
p3235
I1
sS'even '
p3236
I9
sS'koreatown '
p3237
I1
sS'sharply '
p3238
I1
sS'miniature '
p3239
I1
sS'unfair '
p3240
I1
sS'cos '
p3241
I1
sS'oh '
p3242
I11
sS'universe '
p3243
I1
sS'tequila- '
p3244
I1
sS'exactly '
p3245
I75
sS'think '
p3246
I7
sS'nice '
p3247
I1
sS'incredibly '
p3248
I1
sS'nachos '
p3249
I1
sS'colourful '
p3250
I1
sS'believe '
p3251
I4
sS'say '
p3252
I4
sS'sugar '
p3253
I1
sS'pregnant '
p3254
I2
sS'existed '
p3255
I1
sS'reals '
p3256
I2
sS'honest '
p3257
I8
sS'honestly '
p3258
I33
sS'thanks '
p3259
I1
sS'frankie '
p3260
I1
sS'violence '
p3261
I1
sS'beth '
p3262
I1
sS'food '
p3263
I1
sS'less '
p3264
I1
sS'go '
p3265
I2
sS'happening '
p3266
I1
sS"'s "
p3267
I1
sS'such '
p3268
I6
sS'cadet '
p3269
I1
sS'perfectly '
p3270
I2
sS'telling '
p3271
I2
sS'former '
p3272
I1
sS'meant '
p3273
I2
sS'quite '
p3274
I24
sS'simon '
p3275
I1
sS'way '
p3276
I6
sS'lisbon '
p3277
I1
sS'geez '
p3278
I1
sS'reallywant '
p3279
I2
sS'actual '
p3280
I4
sS'but '
p3281
I4
sS'anyone '
p3282
I1
sS'too '
p3283
I5
sS'anymore '
p3284
I2
sS'makes '
p3285
I1
sS'absolutely '
p3286
I21
sS'have '
p3287
I3
sS'pack '
p3288
I1
sS'butter '
p3289
I1
sS'know '
p3290
I4
sS'ally '
p3291
I1
sS'lifts '
p3292
I1
sS'everything '
p3293
I1
sS'seriously '
p3294
I59
sS'own '
p3295
I1
sS'receptionist '
p3296
I1
sS'be '
p3297
I4
sS'award '
p3298
I1
sS'now '
p3299
I3
sS'remember '
p3300
I1
sS'sure '
p3301
I76
sS'ought '
p3302
I1
sS'right '
p3303
I19
sS'officially '
p3304
I1
sS'gosh '
p3305
I1
sS'jas\\u00e5 '
p3306
I1
sS'enough '
p3307
I1
sS'were '
p3308
I2
sS'captaln '
p3309
I1
sS'why '
p3310
I4
sS'much '
p3311
I10
sS'so '
p3312
I53
sS'addi '
p3313
I1
sS'from '
p3314
I1
sS'like '
p3315
I11
sS'doesn '
p3316
I2
sS'ted '
p3317
I1
sS'on '
p3318
I11
sS'buenos '
p3319
I1
sS'buggy '
p3320
I1
sS'you '
p3321
I53
sS'kidding '
p3322
I3
sS'don '
p3323
I1
sS'serious '
p3324
I6
sS'rude '
p3325
I1
sS'what '
p3326
I6
sS'was '
p3327
I3
sS'hoo '
p3328
I1
sS'% '
p3329
I1
sS'clears '
p3330
I1
sS'this '
p3331
I1
sS'okay '
p3332
I4
sS'are '
p3333
I13
sS'especially '
p3334
I1
sS'yeah '
p3335
I62
sS'shit '
p3336
I4
sS'overlapping '
p3337
I1
sS'grim '
p3338
I1
sS'he '
p3339
I3
sS'mitchell '
p3340
I1
sS'whew '
p3341
I1
sS'outside '
p3342
I1
sS'truly '
p3343
I150
sS'stoop '
p3344
I1
sS'big '
p3345
I3
sS'alright '
p3346
I2
sS'cats '
p3347
I1
sS'mlck '
p3348
I1
sS'grammys '
p3349
I1
sS'gonna '
p3350
I1
sS'huh '
p3351
I1
sS'positive '
p3352
I1
sS'until '
p3353
I1
sS'how '
p3354
I1
sS'hilarious '
p3355
I1
sS'mouth '
p3356
I1
sS'wait '
p3357
I1
sS'kind '
p3358
I3
sS'forthcoming '
p3359
I1
sS'well '
p3360
I8
sS'dreadfully '
p3361
I1
sS"'t "
p3362
I1
sS'though '
p3363
I2
sS'buddy '
p3364
I1
sS'elevator '
p3365
I1
sS'truly, '
p3366
I1
sS'do '
p3367
I74
sS"'m "
p3368
I1
sS'guys '
p3369
I2
sS'-- '
p3370
I1
sS'aziz '
p3371
I1
sS'girlfriend '
p3372
I2
sS'damn '
p3373
I2
sS'bad '
p3374
I1
sS'jesus '
p3375
I1
sS'geugeolhaeyadwae '
p3376
I1
sS'frankly '
p3377
I1
sS'department '
p3378
I1
sS'frigging '
p3379
I1
sS'um '
p3380
I1
sS'does '
p3381
I5
sS'very '
p3382
I148
sS'eally '
p3383
I3
sS'fact '
p3384
I2
sS'can '
p3385
I2
sS'indeed '
p3386
I31
sS'never '
p3387
I1
sS'made '
p3388
I1
sS'lucia '
p3389
I1
sS'lot '
p3390
I5
sS'completely '
p3391
I3
sS'horrible '
p3392
I1
sS'i '
p3393
I18
sS'really- '
p3394
I2
sS'been '
p3395
I1
sS'part '
p3396
I1
sS'168 '
p3397
I1
sS'unhook '
p3398
I1
sS'whoopi '
p3399
I1
sS'get '
p3400
I1
sS'real '
p3401
I305
sS'deeply '
p3402
I1
sS'kill '
p3403
I1
sS'nancy '
p3404
I1
sS'explain '
p3405
I1
sS'reallynothing '
p3406
I1
sS'great '
p3407
I3
sS'not '
p3408
I3
sS'clearer '
p3409
I1
sS'finally '
p3410
I1
sS'realily '
p3411
I1
sS'kiss '
p3412
I1
sS'heart '
p3413
I2
sS'idea '
p3414
I4
sS'entirely '
p3415
I4
stp3416
a((lp3417
S'aber'
p3418
aS'Aber'
p3419
a(dp3420
S'raised '
p3421
I1
sS'better '
p3422
I1
sS'uh '
p3423
I1
sS'only '
p3424
I23
sS'am '
p3425
I5
sS'bu '
p3426
I1
sS'leelu '
p3427
I1
sS'no '
p3428
I32
sS'the '
p3429
I10
sS'ok '
p3430
I1
sS'buthat '
p3431
I1
sS'make '
p3432
I1
sS'actually '
p3433
I7
sS'neal '
p3434
I1
sS'wow '
p3435
I2
sS'man '
p3436
I1
sS'course '
p3437
I1
sS'bogus '
p3438
I1
sS'did '
p3439
I4
sS'work '
p3440
I1
sS'then '
p3441
I27
sS'ladies '
p3442
I2
sS'marko '
p3443
I1
sS'absolutely '
p3444
I4
sS'although '
p3445
I12
sS'if '
p3446
I27
sS'somehow '
p3447
I1
sS'medicine '
p3448
I1
sS'uh- '
p3449
I1
sS'experiment '
p3450
I1
sS'look '
p3451
I8
sS'neomallya '
p3452
I1
sS'cause '
p3453
I2
sS'it '
p3454
I56
sS'martha '
p3455
I1
sS'about '
p3456
I2
sS'please '
p3457
I3
sS'( '
p3458
I6
sS'nbut '
p3459
I1
sS'butnot '
p3460
I1
sS'let '
p3461
I5
sS'turns '
p3462
I1
sS'we '
p3463
I19
sS'- '
p3464
I122
sS'l '
p3465
I1
sS'all '
p3466
I16
sS'our '
p3467
I1
sS'least '
p3468
I2
sS'fine '
p3469
I1
sS'than '
p3470
I1
sS'. '
p3471
I4
sS'have '
p3472
I3
sS"'re "
p3473
I2
sS'yet '
p3474
I38
sS'also '
p3475
I2
sS'any '
p3476
I2
sS'mom '
p3477
I1
sS'admit '
p3478
I1
sS'b '
p3479
I1
sS'bur '
p3480
I1
sS"'but "
p3481
I4
sS'got '
p3482
I1
sS'didnt '
p3483
I1
sS'worth '
p3484
I1
sS'considering '
p3485
I1
sS'as '
p3486
I7
sS'once '
p3487
I1
sS'bou '
p3488
I2
sS'tommy '
p3489
I1
sS'but, '
p3490
I41
sS'granted '
p3491
I1
sS'by '
p3492
I1
sS'or '
p3493
I6
sS'like '
p3494
I1
sS'just '
p3495
I111
sS'because '
p3496
I15
sS'she '
p3497
I9
sS'at '
p3498
I2
sS'that '
p3499
I36
sS'come '
p3500
I8
sS'yes '
p3501
I11
sS'good '
p3502
I1
sS'wouldn '
p3503
I1
sS'are '
p3504
I1
sS'pretty '
p3505
I1
sS'bbut '
p3506
I1
sS'wait '
p3507
I9
sS'is '
p3508
I2
sS'even '
p3509
I3
sS'mais '
p3510
I2
sS'anyway '
p3511
I7
sS'cos '
p3512
I1
sS'never '
p3513
I1
sS'involved '
p3514
I1
sS'after '
p3515
I1
sS'might '
p3516
I2
sS'surely '
p3517
I1
sS'exactly '
p3518
I1
sS'mary '
p3519
I1
sS'say '
p3520
I5
sS'gunnar '
p3521
I1
sS'buts '
p3522
I7
sS'seriously '
p3523
I1
sS'when '
p3524
I8
sS'felhx '
p3525
I1
sS'bruv '
p3526
I1
sS'his '
p3527
I1
sS'perhaps '
p3528
I4
sS'totally '
p3529
I1
sS'whereas '
p3530
I1
sS'gwen '
p3531
I1
sS"'s "
p3532
I3
sS'must '
p3533
I1
sS'um '
p3534
I4
sS'however '
p3535
I45
sS'quite '
p3536
I2
sS'nice '
p3537
I1
sS'joy '
p3538
I1
sS'way '
p3539
I2
sS'shame '
p3540
I1
sS'tokyo '
p3541
I1
sS'boy '
p3542
I1
sS'but '
p3543
I32775
sS'mine '
p3544
I1
sS'too '
p3545
I5
sS'knew '
p3546
I1
sS'there '
p3547
I16
sS'for '
p3548
I10
sS'with '
p3549
I2
sS'guess '
p3550
I1
sS'hey '
p3551
I3
sS'know '
p3552
I1
sS'butwe '
p3553
I1
sS'obviously '
p3554
I1
sS'bring '
p3555
I1
sS'i- '
p3556
I2
sS'aber '
p3557
I1
sS'welil '
p3558
I1
sS'didn '
p3559
I1
sS'in '
p3560
I2
sS'be '
p3561
I10
sS'now '
p3562
I37
sS'true '
p3563
I1
sS'remember '
p3564
I1
sS'sure '
p3565
I9
sS'baby '
p3566
I2
sS'right '
p3567
I1
sS'shakir '
p3568
I1
sS'why '
p3569
I17
sS'ashamed '
p3570
I1
sS'so '
p3571
I53
sS'ah '
p3572
I2
sS'from '
p3573
I2
sS'guest '
p3574
I1
sS'doesn '
p3575
I2
sS'tyler, '
p3576
I1
sS'on '
p3577
I1
sS'maybe '
p3578
I13
sS'you '
p3579
I66
sS'don '
p3580
I11
sS'they '
p3581
I16
sS'whatever '
p3582
I1
sS'what '
p3583
I56
sS'pero '
p3584
I1
sS'darling '
p3585
I1
sS'this '
p3586
I4
sS'okay '
p3587
I7
sS'except '
p3588
I27
sS'certainly '
p3589
I2
sS'and '
p3590
I422
sS'my '
p3591
I1
sS'[ '
p3592
I1
sS'he '
p3593
I11
sS'ask '
p3594
I1
sS'big '
p3595
I1
sS'who '
p3596
I3
sS'senor '
p3597
I1
sS'lucky '
p3598
I1
sS'raimunda '
p3599
I1
sS'christian '
p3600
I1
sS'back '
p3601
I1
sS'gary '
p3602
I1
sS'where '
p3603
I4
sS'said '
p3604
I1
sS'bet '
p3605
I1
sS'unh '
p3606
I2
sS'< '
p3607
I1
sS"' "
p3608
I6
sS'approve '
p3609
I1
sS'well, '
p3610
I6
sS'well '
p3611
I190
sS"'t "
p3612
I1
sS'of '
p3613
I2
sS'iwant '
p3614
I1
sS'though '
p3615
I144
sS'thank '
p3616
I1
sS', '
p3617
I24
sS'mas '
p3618
I2
sS'do '
p3619
I22
sS'since '
p3620
I1
sS'your '
p3621
I1
sS'really '
p3622
I3
sS'how '
p3623
I11
sS'anyhow '
p3624
I1
sS'damn '
p3625
I2
sS'scorsese '
p3626
I1
sS'but- '
p3627
I1
sS'some '
p3628
I1
sS'does '
p3629
I7
sS'a '
p3630
I14
sS'" '
p3631
I5
sS'forgive '
p3632
I1
sS'can '
p3633
I3
sS'oh '
p3634
I21
sS'yesterday '
p3635
I1
sS'hello '
p3636
I1
sS'bui '
p3637
I3
sS'i '
p3638
I192
sS'* '
p3639
I3
sS'bro '
p3640
I1
sS'here '
p3641
I1
sS'someone '
p3642
I1
sS'shipyard '
p3643
I1
sS'real '
p3644
I1
sS'not '
p3645
I27
sS'shut '
p3646
I2
sS'hold '
p3647
I1
sS'thing '
p3648
I2
sS'whichever '
p3649
I1
sS'still '
p3650
I14
sS'yeah '
p3651
I14
sS'which '
p3652
I2
stp3653
a((lp3654
S'nat\xc3\xbcriich'
p3655
aS'Nat\xc3\xbcriich'
p3656
a(dp3657
tp3658
a((lp3659
S'gerne'
p3660
aS'Gerne'
p3661
a(dp3662
S'glad '
p3663
I11
sS'happy '
p3664
I49
sS'would '
p3665
I7
sS'kinda '
p3666
I1
sS'course '
p3667
I6
sS'smashing '
p3668
I1
sS'delighted '
p3669
I2
sS'breathlng '
p3670
I1
sS'really '
p3671
I2
sS'ready '
p3672
I1
sS'pleasure '
p3673
I10
sS'try '
p3674
I1
sS'lo- '
p3675
I1
sS'thank '
p3676
I3
sS'iikes '
p3677
I1
sS'talk '
p3678
I1
sS'welcome '
p3679
I40
sS'center '
p3680
I2
sS'advertise '
p3681
I1
sS'please '
p3682
I7
sS'offer '
p3683
I2
sS'all '
p3684
I1
sS'badly '
p3685
I2
sS'fine '
p3686
I1
sS'have '
p3687
I3
sS'totally '
p3688
I1
sS'by '
p3689
I1
sS'trouble '
p3690
I1
sS'hate '
p3691
I1
sS"'ll "
p3692
I4
sS'desire '
p3693
I1
sS'liketo '
p3694
I2
sS'mention '
p3695
I1
sS'could '
p3696
I2
sS'necessary '
p3697
I1
sS'barking '
p3698
I1
sS'yes '
p3699
I2
sS'good '
p3700
I3
sS'mind '
p3701
I2
sS'younger '
p3702
I1
sS'surmising '
p3703
I1
sS'thanks '
p3704
I1
sS'midnight '
p3705
I1
sS'enjoyed '
p3706
I3
sS'enjoy '
p3707
I11
sS'go '
p3708
I1
sS'liked '
p3709
I26
sS'free '
p3710
I1
sS'be '
p3711
I5
sS'agreed '
p3712
I1
sS'attached '
p3713
I1
sS'loved '
p3714
I6
sS'wanna '
p3715
I11
sS'want '
p3716
I46
sS'likes '
p3717
I43
sS'appreciate '
p3718
I2
sS'love '
p3719
I163
sS'wants '
p3720
I2
sS'always '
p3721
I3
sS'sure '
p3722
I15
sS'rather '
p3723
I1
sS'loves '
p3724
I1
sS'interested '
p3725
I3
sS'like '
p3726
I909
sS'round '
p3727
I1
sS'ahead '
p3728
I3
sS'wondering '
p3729
I2
sS'nucky '
p3730
I1
sS'eagles '
p3731
I1
sS'keen '
p3732
I2
sS'means '
p3733
I1
sS'certainly '
p3734
I2
sS'care '
p3735
I1
sS'nothing '
p3736
I1
sS'take '
p3737
I3
sS'will '
p3738
I2
sS'to '
p3739
I75
sS'fain '
p3740
I1
sS'much '
p3741
I15
sS'happily '
p3742
I4
sS'working '
p3743
I1
sS'carrots '
p3744
I1
sS'dying '
p3745
I1
sS"'d "
p3746
I5
sS'bet '
p3747
I1
sS'problem '
p3748
I2
sS'wish '
p3749
I6
sS'do '
p3750
I6
sS'willing '
p3751
I4
sS'prefer '
p3752
I1
sS'oh '
p3753
I1
sS'spend '
p3754
I1
sS'anytime '
p3755
I1
sS'nice '
p3756
I1
sS'chooses '
p3757
I2
sS'thing '
p3758
I1
sS'get '
p3759
I1
sS'wanted '
p3760
I4
sS'need '
p3761
I2
sS'great '
p3762
I1
sS'not '
p3763
I7
sS'gladly '
p3764
I13
sS'yeah '
p3765
I2
stp3766
a((lp3767
S'raj'
p3768
aS'Raj'
p3769
a(dp3770
S'pray '
p3771
I1
sS'kripke '
p3772
I2
sS'residual '
p3773
I1
sS'raj, '
p3774
I2
sS'award '
p3775
I1
sS'raj '
p3776
I44
sS'certainly '
p3777
I2
sS'sheldon '
p3778
I4
sS'bayonets '
p3779
I1
sS'arbitrarily '
p3780
I1
sS'guacamole '
p3781
I1
sS'\\u041a\\u0440\\u043e\\u043c\\u0435 '
p3782
I1
sS'racist '
p3783
I1
sS'they '
p3784
I1
sS'attractive '
p3785
I1
sS'punched '
p3786
I2
sS'app '
p3787
I1
sS'tweeted '
p3788
I2
sS'amy '
p3789
I1
sS'sync '
p3790
I1
sS'rat- '
p3791
I1
stp3792
a((lp3793
S'gar'
p3794
aS'Gar'
p3795
a(dp3796
S'weren '
p3797
I2
sS'ever '
p3798
I1
sS'nothing\\u2019 '
p3799
I1
sS'bible '
p3800
I1
sS'shit '
p3801
I2
sS'actually '
p3802
I4
sS'flying '
p3803
I1
sS'it\\u2019 '
p3804
I1
sS'really '
p3805
I19
sS'absolutely '
p3806
I5
sS'haven '
p3807
I3
sS'cook '
p3808
I1
sS'won '
p3809
I1
sS'rock '
p3810
I1
sS'anymore '
p3811
I2
sS'isn '
p3812
I4
sS'it '
p3813
I1
sS'bein '
p3814
I1
sS'liz '
p3815
I1
sS'imagine '
p3816
I1
sS'anything '
p3817
I24
sS'all '
p3818
I9
sS'ain '
p3819
I5
sS'desert '
p3820
I1
sS'totally '
p3821
I1
sS'any '
p3822
I6
sS'scared '
p3823
I1
sS'impress '
p3824
I2
sS'ba- '
p3825
I1
sS'should '
p3826
I1
sS'aren '
p3827
I3
sS'just '
p3828
I2
sS'at '
p3829
I53
sS'that '
p3830
I2
sS'change '
p3831
I1
sS'leaks '
p3832
I1
sS'don\\u2019 '
p3833
I2
sS'introduce '
p3834
I1
sS'evenwant '
p3835
I1
sS'even '
p3836
I173
sS'carl '
p3837
I1
sS'\\u0441\\u043f\\u0430\\u0441\\u0438\\u0431\\u043e '
p3838
I1
sS'nowhere '
p3839
I1
sS'ill '
p3840
I1
sS'protection '
p3841
I1
sS'stranger '
p3842
I1
sS'super '
p3843
I1
sS'out '
p3844
I2
sS"'s "
p3845
I6
sS'ail '
p3846
I1
sS'fuck '
p3847
I1
sS'nobody '
p3848
I1
sS'beer '
p3849
I1
sS'evenbeen '
p3850
I1
sS'have '
p3851
I2
sS'know '
p3852
I7
sS'cheers '
p3853
I1
sS'mad '
p3854
I2
sS'didn '
p3855
I29
sS'complying '
p3856
I1
sS'cooking '
p3857
I1
sS'sure '
p3858
I1
sS'begin '
p3859
I1
sS'so '
p3860
I3
sS'doesn '
p3861
I21
sS'gar '
p3862
I3
sS'you '
p3863
I1
sS'don '
p3864
I59
sS'was '
p3865
I1
sS'zero '
p3866
I3
sS'certainly '
p3867
I2
sS'bit '
p3868
I1
sS'nothing '
p3869
I7
sS'crushed '
p3870
I1
sS'bloody '
p3871
I1
sS'cooked '
p3872
I1
sS'coming '
p3873
I1
sS'none '
p3874
I4
sS'm. '
p3875
I1
sS'playing '
p3876
I1
sS', '
p3877
I1
sS'inner '
p3878
I1
sS'can '
p3879
I5
sS'never '
p3880
I2
sS'completely '
p3881
I1
sS'exhibits '
p3882
I1
sS'wasn '
p3883
I6
sS'sale '
p3884
I1
sS'taking '
p3885
I1
sS'especially '
p3886
I1
sS'real '
p3887
I1
sS'not '
p3888
I11
sS'hold '
p3889
I1
sS'thing '
p3890
I13
sS'yeah '
p3891
I1
stp3892
a((lp3893
S'mandarin-'
p3894
aS'Mandarin-'
p3895
a(dp3896
S'request '
p3897
I1
sS'see '
p3898
I1
sS'leonard '
p3899
I2
sS'certainly '
p3900
I2
sS'mellifluous '
p3901
I1
stp3902
a((lp3903
S'durchaus'
p3904
aS'Durchaus'
p3905
a(dp3906
S'definitely '
p3907
I1
sS'distracting '
p3908
I1
sS'fair '
p3909
I2
sS'eligible '
p3910
I1
sS'is '
p3911
I1
sS'guest '
p3912
I1
sS'nd '
p3913
I2
sS'indeed '
p3914
I2
sS'certainly '
p3915
I2
sS'no '
p3916
I1
sS'absolutely '
p3917
I2
sS'perfectlyhappy '
p3918
I1
sS'sure '
p3919
I1
sS'quite '
p3920
I10
sS'case '
p3921
I1
sS'hobbies '
p3922
I1
sS'though '
p3923
I1
sS'yes '
p3924
I1
sS'perfectly '
p3925
I3
sS'well '
p3926
I4
stp3927
a((lp3928
S'sp\xc3\xa4ter'
p3929
aS'Sp\xc3\xa4ter'
p3930
a(dp3931
S'older '
p3932
I1
sS'fihh '
p3933
I1
sS'while '
p3934
I2
sS'difficult '
p3935
I1
sS'back '
p3936
I18
sS'eventually '
p3937
I2
sS'bye '
p3938
I2
sS"'d "
p3939
I1
sS"'ll "
p3940
I3
sS'later, '
p3941
I13
sS'ya '
p3942
I3
sS'hours '
p3943
I1
sS'bit '
p3944
I2
sS'lately '
p3945
I2
sS'mm '
p3946
I1
sS'iater '
p3947
I12
sS'sorry '
p3948
I1
sS'another '
p3949
I1
sS'jenny '
p3950
I1
sS'alone '
p3951
I1
sS'drop '
p3952
I1
sS'then '
p3953
I5
sS'now '
p3954
I3
sS'around '
p3955
I1
sS'right '
p3956
I2
sS'peacefully '
p3957
I1
sS'late, '
p3958
I1
sS'officially '
p3959
I1
sS'late '
p3960
I25
sS'behind '
p3961
I2
sS'normally '
p3962
I1
sS'shortly '
p3963
I1
sS'afterwards '
p3964
I5
sS'laters '
p3965
I2
sS'mommy '
p3966
I1
sS'after '
p3967
I23
sS'remembering '
p3968
I1
sS'thanksgiving '
p3969
I1
sS'you '
p3970
I2
sS'traitor '
p3971
I1
sS'great '
p3972
I1
sS'adults '
p3973
I1
sS'see '
p3974
I2
sS'john '
p3975
I1
sS'burner '
p3976
I1
sS'ferret '
p3977
I1
sS'when '
p3978
I5
sS'custard '
p3979
I1
sS'busy '
p3980
I2
sS'at '
p3981
I1
sS'certainly '
p3982
I2
sS'pin '
p3983
I2
sS'later '
p3984
I1603
sS'grow '
p3985
I1
sS'spanlsh '
p3986
I1
sS'night '
p3987
I1
sS'catch '
p3988
I1
sS'wait '
p3989
I1
sS'soon '
p3990
I8
sS'sweat '
p3991
I1
sS'play '
p3992
I1
sS'3- '
p3993
I1
sS'trust '
p3994
I1
sS'do '
p3995
I1
sS'yet '
p3996
I1
sS'done '
p3997
I1
stp3998
a((lp3999
S'gew\xc3\xb6hnlich'
p4000
aS'Gew\xc3\xb6hnlich'
p4001
a(dp4002
S'general '
p4003
I1
sS'supposed '
p4004
I1
sS'normal '
p4005
I1
sS'cub '
p4006
I1
sS'usual '
p4007
I18
sS'do '
p4008
I1
sS'certainly '
p4009
I2
sS'wholesome '
p4010
I1
sS'clich\\u00c3\\u00a9 '
p4011
I1
sS'used '
p4012
I28
sS'normally '
p4013
I4
sS'doctor '
p4014
I1
sS'anxiety '
p4015
I1
sS'ordinary '
p4016
I19
sS'plan- '
p4017
I1
sS'common '
p4018
I9
sS'usually '
p4019
I85
stp4020
a((lp4021
S'fallt'
p4022
aS'Fallt'
p4023
a(dp4024
S'certainly '
p4025
I1
sS'fall '
p4026
I4
stp4027
a((lp4028
S'koffer'
p4029
aS'Koffer'
p4030
a(dp4031
S'kit '
p4032
I3
sS'yd\xc3\xb3nde '
p4033
I1
sS'luggage '
p4034
I2
sS'case '
p4035
I60
sS'bags '
p4036
I11
sS'suitcase '
p4037
I81
sS'exchange '
p4038
I1
sS'bring '
p4039
I1
sS'arkku '
p4040
I1
sS'easy '
p4041
I1
sS'suitcases '
p4042
I14
sS'chest '
p4043
I2
sS'box '
p4044
I1
sS'briefcase '
p4045
I17
sS'trunk '
p4046
I14
sS'see '
p4047
I1
sS'please '
p4048
I1
sS'take- '
p4049
I1
sS'certainly '
p4050
I1
sS'bag '
p4051
I25
sS'take '
p4052
I1
sS'cases '
p4053
I1
stp4054
a((lp4055
S'eindeutig'
p4056
aS'Eindeutig'
p4057
a(dp4058
S'definitely '
p4059
I23
sS'straightforward '
p4060
I3
sS'definitive '
p4061
I1
sS'positive '
p4062
I2
sS'simple '
p4063
I1
sS'absolutely '
p4064
I1
sS'conclusive '
p4065
I3
sS'dried '
p4066
I1
sS'obviously '
p4067
I3
sS'broad '
p4068
I1
sS'decidedly '
p4069
I1
sS'mention '
p4070
I1
sS'clear '
p4071
I16
sS'inconclusive '
p4072
I2
sS'sure '
p4073
I3
sS'obvious '
p4074
I9
sS'roundly '
p4075
I2
sS'so '
p4076
I1
sS'definite '
p4077
I1
sS'awesome '
p4078
I1
sS'surely '
p4079
I1
sS'hysteric '
p4080
I1
sS'match '
p4081
I1
sS'clearly, '
p4082
I1
sS'unequivocally '
p4083
I3
sS'clearly '
p4084
I71
sS'distinctly '
p4085
I1
sS'certainly '
p4086
I1
sS'conclusively '
p4087
I4
sS'simultaneously '
p4088
I1
sS'close '
p4089
I1
sS'totally '
p4090
I1
sS'way '
p4091
I1
sS'auburn '
p4092
I1
stp4093
a((lp4094
S'zumindest'
p4095
aS'Zumindest'
p4096
a(dp4097
S'one '
p4098
I6
sS'am '
p4099
I1
sS'would '
p4100
I1
sS'was '
p4101
I1
sS'well, '
p4102
I2
sS'actually '
p4103
I1
sS'well '
p4104
I8
sS'or '
p4105
I6
sS'did '
p4106
I2
sS'at '
p4107
I3
sS'that '
p4108
I4
sS'good '
p4109
I1
sS'worked '
p4110
I1
sS'won '
p4111
I1
sS'much '
p4112
I1
sS'question '
p4113
I1
sS'anyway '
p4114
I21
sS'i '
p4115
I1
sS'offer '
p4116
I1
sS'least '
p4117
I446
sS'certainly '
p4118
I1
sS'ieast '
p4119
I1
sS'not '
p4120
I2
sS'personally '
p4121
I1
stp4122
a((lp4123
S'wenigsten'
p4124
aS'Wenigsten'
p4125
a(dp4126
S'zack '
p4127
I1
sS'least '
p4128
I37
sS'certainly '
p4129
I1
sS'unsuitably '
p4130
I1
sS'sounds '
p4131
I1
sS'untraditional '
p4132
I1
sS'fewest '
p4133
I1
sS'dragon '
p4134
I1
stp4135
a((lp4136
S'klappen'
p4137
aS'Klappen'
p4138
a(dp4139
S'one '
p4140
I6
sS'work, '
p4141
I2
sS'working '
p4142
I6
sS'valves '
p4143
I2
sS'korean '
p4144
I1
sS'work '
p4145
I65
sS'be '
p4146
I2
sS'away '
p4147
I1
sS'general '
p4148
I1
sS'worked '
p4149
I1
sS'right '
p4150
I7
sS'grayson '
p4151
I1
sS'trick '
p4152
I1
sS'for '
p4153
I1
sS'pull '
p4154
I3
sS'fly '
p4155
I1
sS'might '
p4156
I1
sS'works '
p4157
I1
sS'fault '
p4158
I1
sS'okay '
p4159
I1
sS'certainly '
p4160
I1
sS'fine '
p4161
I4
sS'happening '
p4162
I1
sS'flaps '
p4163
I4
sS'estofuncionar\xc3\xa1 '
p4164
I1
sS'do '
p4165
I1
stp4166
a((lp4167
S'leider'
p4168
aS'Leider'
p4169
a(dp4170
S'sad '
p4171
I2
sS'one '
p4172
I1
sS'but '
p4173
I7
sS'sadly '
p4174
I25
sS'afraid '
p4175
I63
sS'that '
p4176
I2
sS'pity '
p4177
I2
sS'arrived '
p4178
I1
sS'have '
p4179
I2
sS'unhappily '
p4180
I1
sS'unfortunately '
p4181
I138
sS'apologies '
p4182
I1
sS'shame '
p4183
I2
sS'make '
p4184
I3
sS'actually '
p4185
I5
sS'greer '
p4186
I1
sS'wish '
p4187
I1
sS'just '
p4188
I1
sS'assholes '
p4189
I1
sS'suspicions '
p4190
I1
sS'retrograde '
p4191
I1
sS'boring '
p4192
I1
sS'there '
p4193
I2
sS'haven '
p4194
I1
sS'really '
p4195
I1
sS'beard '
p4196
I1
sS'right '
p4197
I1
sS'bad '
p4198
I5
sS'if '
p4199
I1
sS'is '
p4200
I1
sS'tragically '
p4201
I1
sS'lamentably '
p4202
I1
sS'so '
p4203
I1
sS'sir '
p4204
I1
sS'im '
p4205
I1
sS'incidental '
p4206
I2
sS'sadly, '
p4207
I1
sS'it '
p4208
I4
sS'regretfully '
p4209
I2
sS'i '
p4210
I2
sS'sorry '
p4211
I27
sS'initely '
p4212
I1
sS'alas '
p4213
I14
sS'intend '
p4214
I1
sS'excuse '
p4215
I2
sS'give '
p4216
I1
sS'unfortunately, '
p4217
I1
sS'gone '
p4218
I1
sS'certainly '
p4219
I1
sS'untortunately '
p4220
I1
sS'regret '
p4221
I4
sS'happen '
p4222
I1
sS'not '
p4223
I1
sS'regrettably, '
p4224
I1
sS'84 '
p4225
I1
sS'virgo '
p4226
I1
sS'regrettably '
p4227
I2
sS'compelled '
p4228
I1
stp4229
a((lp4230
S'jetzt'
p4231
aS'Jetzt'
p4232
a(dp4233
S'one '
p4234
I3
sS'mark '
p4235
I2
sS'going '
p4236
I93
sS'better '
p4237
I4
sS'mood '
p4238
I2
sS'jetzt '
p4239
I3
sS'am '
p4240
I3
sS'generator '
p4241
I1
sS'no '
p4242
I22
sS'marco '
p4243
I1
sS'the '
p4244
I3
sS'mismo '
p4245
I2
sS'silence '
p4246
I1
sS'looks '
p4247
I1
sS'irain '
p4248
I1
sS'down '
p4249
I3
sS'make '
p4250
I6
sS'actually '
p4251
I4
sS'comming '
p4252
I1
sS'deal '
p4253
I2
sS'already '
p4254
I10
sS'michael '
p4255
I2
sS'then '
p4256
I23
sS'gotta '
p4257
I1
sS'really '
p4258
I3
sS'with '
p4259
I3
sS'up '
p4260
I12
sS'run '
p4261
I1
sS'hostages '
p4262
I1
sS'turn '
p4263
I4
sS'uh- '
p4264
I1
sS'anymore '
p4265
I1
sS'look '
p4266
I4
sS'now, '
p4267
I57
sS'it '
p4268
I115
sS'about '
p4269
I6
sS'more '
p4270
I2
sS'today '
p4271
I3
sS'k\xc3\xa4yk\xc3\xa4\xc3\xa4 '
p4272
I1
sS'please '
p4273
I5
sS'god '
p4274
I2
sS'moment '
p4275
I7
sS"'ve "
p4276
I9
sS'let '
p4277
I58
sS'nowwhat '
p4278
I1
sS'we '
p4279
I30
sS'next '
p4280
I22
sS'- '
p4281
I21
sS'ok '
p4282
I2
sS'all '
p4283
I26
sS'amniotic '
p4284
I1
sS'want '
p4285
I2
sS"'re "
p4286
I20
sS'probably '
p4287
I1
sS'rehab '
p4288
I1
sS'dirigible '
p4289
I1
sS'storm '
p4290
I1
sS'heck '
p4291
I1
sS'other '
p4292
I1
sS'me '
p4293
I2
sS'a '
p4294
I1
sS'getting '
p4295
I1
sS'later '
p4296
I3
sS'got '
p4297
I9
sS'laughs '
p4298
I1
sS'christ '
p4299
I1
sS'straight '
p4300
I1
sS'leaving '
p4301
I1
sS"'ll "
p4302
I1
sS'second '
p4303
I1
sS'should '
p4304
I2
sS'quiet '
p4305
I1
sS'just '
p4306
I96
sS'she '
p4307
I2
sS'at '
p4308
I9
sS'tighten '
p4309
I1
sS'finish '
p4310
I1
sS'that '
p4311
I49
sS'come '
p4312
I25
sS'find '
p4313
I3
sS'yes '
p4314
I1
sS'good '
p4315
I3
sS'leave '
p4316
I2
sS'pretty '
p4317
I1
sS'he '
p4318
I6
sS'start '
p4319
I4
sS'is '
p4320
I2
sS'time '
p4321
I28
sS'again '
p4322
I1
sS'doing '
p4323
I2
sS'maintenant '
p4324
I1
sS'anyway '
p4325
I2
sS'only '
p4326
I1
sS'oh '
p4327
I11
sS'interesting '
p4328
I1
sS'dexter '
p4329
I1
sS'drink '
p4330
I1
sS'upstairs '
p4331
I1
sS'waited '
p4332
I2
sS'five '
p4333
I1
sS'say '
p4334
I1
sS'everything '
p4335
I1
sS'when '
p4336
I2
sS'thanks '
p4337
I3
sS'before '
p4338
I1
sS'along '
p4339
I1
sS'show '
p4340
I2
sS'go '
p4341
I90
sS'out '
p4342
I10
sS"'s "
p4343
I5
sS'starting '
p4344
I1
sS'mimieux '
p4345
I1
sS'play '
p4346
I1
sS'knowdegree '
p4347
I1
sS'here '
p4348
I144
sS'loose '
p4349
I1
sS'gotten '
p4350
I1
sS'but '
p4351
I9
sS'shoot '
p4352
I1
sS'now '
p4353
I12587
sS'for '
p4354
I2
sS'have '
p4355
I7
sS'my '
p4356
I3
sS'heresy '
p4357
I1
sS'fast '
p4358
I1
sS'entertain '
p4359
I1
sS'ready '
p4360
I3
sS'be '
p4361
I9
sS'there '
p4362
I22
sS'guess '
p4363
I1
sS'hey '
p4364
I2
sS'richie '
p4365
I2
sS'sure '
p4366
I1
sS'right '
p4367
I20
sS'adrian '
p4368
I1
sS'enough '
p4369
I1
sS'watch '
p4370
I1
sS'why '
p4371
I3
sS'so '
p4372
I45
sS'ah '
p4373
I1
sS'disturbed '
p4374
I1
sS'fucking '
p4375
I3
sS'first '
p4376
I2
sS'count '
p4377
I1
sS'on '
p4378
I40
sS'venice '
p4379
I1
sS'ow '
p4380
I1
sS'couldn '
p4381
I1
sS'you '
p4382
I59
sS'counting '
p4383
I1
sS'off '
p4384
I2
sS'blood '
p4385
I1
sS'what '
p4386
I24
sS'lighten '
p4387
I1
sS'another '
p4388
I1
sS'dude '
p4389
I3
sS'this '
p4390
I138
sS'okay '
p4391
I19
sS'us '
p4392
I1
sS'can '
p4393
I1
sS'yeah '
p4394
I5
sS'certainly '
p4395
I1
sS'give '
p4396
I8
sS'and '
p4397
I12
sS'294 '
p4398
I1
sS'[ '
p4399
I4
sS'wait '
p4400
I4
sS'put '
p4401
I6
sS'take '
p4402
I3
sS'dad '
p4403
I1
sS'will '
p4404
I1
sS'to '
p4405
I20
sS'tracy '
p4406
I1
sS'woodwork '
p4407
I1
sS'lord '
p4408
I1
sS'far '
p4409
I98
sS'gonna '
p4410
I172
sS'back '
p4411
I1
sS'finished '
p4412
I5
sS'prepare '
p4413
I1
sS'where '
p4414
I3
sS'over '
p4415
I2
sS'everybody '
p4416
I1
sS'loaves '
p4417
I1
sS'coming '
p4418
I2
sS'would '
p4419
I1
sS'chuckling '
p4420
I1
sS'mostly '
p4421
I1
sS'die '
p4422
I4
sS'well '
p4423
I24
sS'supposed '
p4424
I8
sS'from '
p4425
I1
sS'point '
p4426
I2
sS'these '
p4427
I1
sS'of '
p4428
I2
sS'present '
p4429
I1
sS', '
p4430
I8
sS'alone '
p4431
I1
sS'shakes '
p4432
I1
sS'do '
p4433
I67
sS"'m "
p4434
I2
sS'since '
p4435
I3
sS'guys '
p4436
I2
sS'your '
p4437
I2
sS'ahone '
p4438
I1
sS'how '
p4439
I5
sS'hell '
p4440
I2
sS'thinking '
p4441
I2
sS'late '
p4442
I2
sS'change '
p4443
I3
sS's '
p4444
I1
sS'catfish '
p4445
I1
sS'not '
p4446
I7
sS"'t "
p4447
I1
sS'period '
p4448
I1
sS'move '
p4449
I3
sS'yoyou '
p4450
I1
sS'both '
p4451
I1
sS'listen '
p4452
I1
sS'made '
p4453
I2
sS'smelling '
p4454
I1
sS'michelle '
p4455
I1
sS'simon '
p4456
I1
sS'see '
p4457
I5
sS'i '
p4458
I79
sS'been '
p4459
I28
sS'in '
p4460
I1
sS'being '
p4461
I2
sS'let\\u2019 '
p4462
I1
sS'strike '
p4463
I1
sS'don '
p4464
I5
sS'get '
p4465
I18
sS'won\\u2019 '
p4466
I1
sS'gone '
p4467
I4
sS'sam '
p4468
I1
sS'stop '
p4469
I1
sS'need '
p4470
I2
sS'news '
p4471
I1
sS'great '
p4472
I3
sS'memory '
p4473
I1
sS'yet '
p4474
I88
sS'finally '
p4475
I6
sS'still '
p4476
I3
sS'something '
p4477
I1
sS'which '
p4478
I1
stp4479
a((lp4480
S'that'
p4481
aS'That'
p4482
a(dp4483
S'# '
p4484
I1
sS'certainly '
p4485
I1
sS'that '
p4486
I211
sS'- '
p4487
I2
sS'image '
p4488
I1
stp4489
a((lp4490
S'gern'
p4491
aS'Gern'
p4492
a(dp4493
S'stay '
p4494
I1
sS'happy '
p4495
I16
sS'no '
p4496
I5
sS'would '
p4497
I2
sS'dit '
p4498
I1
sS'this, '
p4499
I1
sS'loretta '
p4500
I1
sS'course '
p4501
I1
sS'iike '
p4502
I2
sS'pleasure '
p4503
I4
sS'thank '
p4504
I4
sS'welcome '
p4505
I12
sS'about '
p4506
I1
sS'please '
p4507
I4
sS'anything '
p4508
I2
sS'all '
p4509
I1
sS'shovel '
p4510
I1
sS'badly '
p4511
I2
sS'fine '
p4512
I1
sS'have '
p4513
I2
sS'ending '
p4514
I1
sS'any '
p4515
I1
sS'fun '
p4516
I2
sS'quit '
p4517
I1
sS'sheldon '
p4518
I1
sS"'ll "
p4519
I3
sS'rolls '
p4520
I1
sS'mention '
p4521
I1
sS'glad '
p4522
I5
sS'rather '
p4523
I6
sS'yes '
p4524
I3
sS'mind '
p4525
I6
sS'oblige '
p4526
I1
sS'thanks '
p4527
I5
sS'perhaps '
p4528
I1
sS'enjoyed '
p4529
I2
sS'enjoy '
p4530
I4
sS'yep '
p4531
I2
sS'forget '
p4532
I1
sS'liked '
p4533
I18
sS'cared '
p4534
I1
sS'loved '
p4535
I6
sS'wanna '
p4536
I8
sS'want '
p4537
I34
sS'worries '
p4538
I1
sS'likes '
p4539
I25
sS'appreciate '
p4540
I1
sS'not '
p4541
I1
sS'love '
p4542
I93
sS'clever '
p4543
I1
sS'wants '
p4544
I2
sS'dork '
p4545
I1
sS'brought '
p4546
I1
sS'minute '
p4547
I1
sS'sure '
p4548
I23
sS'right '
p4549
I2
sS'loves '
p4550
I1
sS'much '
p4551
I13
sS'chuckles '
p4552
I1
sS'like '
p4553
I411
sS'gern '
p4554
I1
sS'... '
p4555
I1
sS'okay '
p4556
I2
sS'certainly '
p4557
I1
sS'miss '
p4558
I1
sS'hoping '
p4559
I2
sS'care '
p4560
I12
sS'take '
p4561
I1
sS'waiting '
p4562
I1
sS'to '
p4563
I34
sS'interested '
p4564
I1
sS"'d "
p4565
I10
sS'wait, '
p4566
I1
sS'p- '
p4567
I1
sS'well '
p4568
I1
sS'problem '
p4569
I4
sS'wish '
p4570
I22
sS'do '
p4571
I6
sS'prefer '
p4572
I1
sS'tempted '
p4573
I2
sS'can '
p4574
I4
sS'fond '
p4575
I13
sS'looking '
p4576
I1
sS'tell '
p4577
I1
sS'anytime '
p4578
I1
sS'nice '
p4579
I1
sS'fundamentally '
p4580
I1
sS'i '
p4581
I2
sS'get '
p4582
I1
sS'wanted '
p4583
I2
sS'need '
p4584
I9
sS'something '
p4585
I1
sS'gladly '
p4586
I7
sS'yeah '
p4587
I4
stp4588
a((lp4589
S'soledad'
p4590
aS'Soledad'
p4591
a(dp4592
S'certainly '
p4593
I1
sS'ouch '
p4594
I1
sS'soledad '
p4595
I6
stp4596
a((lp4597
S'hallo'
p4598
aS'Hallo'
p4599
a(dp4600
S'samuel '
p4601
I1
sS'ahmet '
p4602
I1
sS'knock '
p4603
I1
sS'no '
p4604
I3
sS'nope '
p4605
I1
sS'dad '
p4606
I1
sS'hi '
p4607
I657
sS'ok '
p4608
I3
sS'hehho '
p4609
I2
sS'gunflre '
p4610
I1
sS'doc '
p4611
I1
sS'change '
p4612
I1
sS'lrene '
p4613
I1
sS'wow '
p4614
I1
sS'barely '
p4615
I1
sS'jake '
p4616
I1
sS'course '
p4617
I1
sS'clown '
p4618
I1
sS'dodge '
p4619
I1
sS'ta- '
p4620
I2
sS'gotta '
p4621
I1
sS'really '
p4622
I1
sS'how '
p4623
I14
sS'up '
p4624
I1
sS'ready '
p4625
I1
sS'kylie '
p4626
I2
sS'hi, '
p4627
I5
sS'pleasure '
p4628
I3
sS'equlpment '
p4629
I1
sS'team '
p4630
I1
sS'clock '
p4631
I1
sS'norm '
p4632
I2
sS'mads '
p4633
I1
sS'thank '
p4634
I2
sS'this '
p4635
I3
sS"'day "
p4636
I2
sS'hallo '
p4637
I21
sS'donovan '
p4638
I1
sS'happened '
p4639
I1
sS'it '
p4640
I1
sS'bigbro '
p4641
I2
sS'great '
p4642
I1
sS'radio '
p4643
I1
sS'octave '
p4644
I1
sS'yello '
p4645
I1
sS'blt '
p4646
I1
sS'weeks '
p4647
I1
sS'beavers '
p4648
I1
sS'we '
p4649
I1
sS'- '
p4650
I11
sS'help '
p4651
I1
sS'hank '
p4652
I1
sS'hello, '
p4653
I32
sS'fine '
p4654
I2
sS'totally '
p4655
I1
sS'rob '
p4656
I1
sS'chase, '
p4657
I1
sS'howdy '
p4658
I36
sS'mumbai '
p4659
I2
sS'buns '
p4660
I1
sS'hello\xc3\xa1 '
p4661
I2
sS'miss '
p4662
I2
sS'marion '
p4663
I1
sS'hell0 '
p4664
I1
sS'alex '
p4665
I1
sS'second '
p4666
I2
sS'quiet '
p4667
I1
sS'hola '
p4668
I5
sS'that '
p4669
I1
sS'come '
p4670
I5
sS'yes '
p4671
I8
sS'good '
p4672
I6
sS'cheers '
p4673
I1
sS'dixon '
p4674
I1
sS'sandy '
p4675
I1
sS'wermling '
p4676
I1
sS'is '
p4677
I2
sS'holla '
p4678
I2
sS'sunwoo '
p4679
I1
sS'woo- '
p4680
I1
sS'doing '
p4681
I3
sS'jaws '
p4682
I1
sS'rhys '
p4683
I1
sS'she '
p4684
I1
sS'exactly '
p4685
I1
sS'ella '
p4686
I1
sS'mum '
p4687
I2
sS'hey, '
p4688
I1
sS'becky '
p4689
I1
sS'cum '
p4690
I1
sS'bobinsky '
p4691
I1
sS'mnh '
p4692
I1
sS'thanks '
p4693
I3
sS'oraenmanlya '
p4694
I1
sS'noodling '
p4695
I1
sS'tears '
p4696
I1
sS'go '
p4697
I2
sS'r '
p4698
I1
sS'um '
p4699
I1
sS'how- '
p4700
I1
sS'here '
p4701
I2
sS'tara '
p4702
I1
sS'ciao '
p4703
I2
sS'but '
p4704
I1
sS'lemon '
p4705
I2
sS'speaking '
p4706
I1
sS'khosrow '
p4707
I1
sS'morning '
p4708
I3
sS'late '
p4709
I1
sS'scared '
p4710
I1
sS'know '
p4711
I1
sS'honey '
p4712
I1
sS'mmm '
p4713
I1
sS'doin '
p4714
I1
sS'santa '
p4715
I1
sS'heilo '
p4716
I23
sS'18 '
p4717
I1
sS'heya '
p4718
I1
sS'bianca '
p4719
I1
sS'mikael '
p4720
I1
sS'in '
p4721
I1
sS'there '
p4722
I5
sS'hey '
p4723
I283
sS'richie '
p4724
I1
sS'shaun '
p4725
I1
sS'right '
p4726
I6
sS'bars '
p4727
I1
sS'static- '
p4728
I1
sS'went '
p4729
I1
sS'dan '
p4730
I1
sS'whoo '
p4731
I1
sS'so '
p4732
I2
sS'ah '
p4733
I1
sS'fucking '
p4734
I1
sS'maybe '
p4735
I1
sS'ooh '
p4736
I4
sS'ahead '
p4737
I1
sS'what '
p4738
I10
sS'hiya '
p4739
I5
sS'jen '
p4740
I1
sS'cat '
p4741
I1
sS'tlmbre '
p4742
I2
sS'okay '
p4743
I1
sS'grasp '
p4744
I1
sS'certainly '
p4745
I1
sS'superhero '
p4746
I1
sS'[ '
p4747
I5
sS'anyone '
p4748
I3
sS'hey~ '
p4749
I1
sS'who '
p4750
I2
sS'june '
p4751
I1
sS'greetings '
p4752
I3
sS'researchers '
p4753
I1
sS'shaky '
p4754
I1
sS'frank '
p4755
I1
sS'blomkvist '
p4756
I1
sS'blank '
p4757
I1
sS'everybody '
p4758
I2
sS'meet '
p4759
I1
sS'theme '
p4760
I1
sS'brother '
p4761
I1
sS'rush '
p4762
I1
sS'parking '
p4763
I1
sS'well '
p4764
I4
sS'microwave '
p4765
I1
sS'extra '
p4766
I1
sS'look '
p4767
I1
sS'telephone '
p4768
I1
sS'muckety- '
p4769
I1
sS'abby '
p4770
I1
sS'chevy '
p4771
I1
sS'guys '
p4772
I2
sS'happens '
p4773
I2
sS'excellent '
p4774
I1
sS'gs '
p4775
I1
sS'charleston '
p4776
I1
sS'congratulations '
p4777
I1
sS'<hello '
p4778
I2
sS'dare '
p4779
I1
sS'kai '
p4780
I1
sS'talk '
p4781
I2
sS'calm '
p4782
I1
sS'can '
p4783
I3
sS'move '
p4784
I1
sS'welcome '
p4785
I13
sS'deakies '
p4786
I1
sS'mitzvah '
p4787
I1
sS'oh '
p4788
I10
sS'hello '
p4789
I3448
sS'nice '
p4790
I3
sS'sean '
p4791
I1
sS'see '
p4792
I2
sS'i '
p4793
I12
sS"'hello "
p4794
I4
sS'afternoon '
p4795
I5
sS'donahues '
p4796
I1
sS'excuse '
p4797
I9
sS'someone '
p4798
I1
sS'mia '
p4799
I1
sS'real '
p4800
I2
sS'gone '
p4801
I1
sS'yo '
p4802
I3
sS'friendly '
p4803
I1
sS'gaines '
p4804
I1
sS'hold '
p4805
I1
sS'haley '
p4806
I1
sS'yeah '
p4807
I6
stp4808
a((lp4809
S'him'
p4810
aS'Him'
p4811
a(dp4812
S'frenching '
p4813
I1
sS'certainly '
p4814
I1
sS'him '
p4815
I27
stp4816
a((lp4817
S'dank'
p4818
aS'Dank'
p4819
a(dp4820
S'wonderful '
p4821
I1
sS'uh '
p4822
I1
sS'shhhh '
p4823
I1
sS'hi '
p4824
I1
sS'luck '
p4825
I1
sS'looks '
p4826
I1
sS'green- '
p4827
I1
sS'tired '
p4828
I1
sS'travel '
p4829
I1
sS'courtesy '
p4830
I1
sS'goodbye '
p4831
I1
sS'shots '
p4832
I1
sS'reverend '
p4833
I1
sS'thank '
p4834
I340
sS'heaven '
p4835
I1
sS'welcome '
p4836
I1
sS'alcohol '
p4837
I1
sS'gloria '
p4838
I1
sS'great '
p4839
I1
sS'moment '
p4840
I1
sS'1985 '
p4841
I1
sS'shelly '
p4842
I1
sS'considering '
p4843
I1
sS'oratni '
p4844
I1
sS'creepiest '
p4845
I1
sS'goodness '
p4846
I1
sS'dank '
p4847
I1
sS'kudos '
p4848
I1
sS'emotional '
p4849
I1
sS'bye '
p4850
I1
sS"'ll "
p4851
I2
sS'loathing '
p4852
I1
sS'because '
p4853
I4
sS'glad '
p4854
I1
sS'come '
p4855
I1
sS'good '
p4856
I6
sS'doing '
p4857
I1
sS'kindly '
p4858
I2
sS'thanks '
p4859
I263
sS'enjoyed '
p4860
I1
sS'remembered '
p4861
I1
sS'jenna '
p4862
I1
sS'thanm '
p4863
I1
sS'lot '
p4864
I44
sS'voices '
p4865
I1
sS'thanking '
p4866
I1
sS'obliged '
p4867
I1
sS'gracias '
p4868
I1
sS'for '
p4869
I2
sS'morning '
p4870
I1
sS'appreciate '
p4871
I4
sS'mmm '
p4872
I1
sS'relations '
p4873
I1
sS'applause '
p4874
I1
sS'awfully '
p4875
I1
sS'right '
p4876
I3
sS'bluffing '
p4877
I1
sS'nutty '
p4878
I1
sS'much '
p4879
I321
sS'sir '
p4880
I1
sS'raise '
p4881
I1
sS'allison '
p4882
I1
sS'you '
p4883
I6
sS'off '
p4884
I1
sS'tear- '
p4885
I1
sS'return '
p4886
I2
sS'okay '
p4887
I4
sS'certainly '
p4888
I1
sS'later '
p4889
I1
sS"'shat "
p4890
I1
sS'laughter '
p4891
I1
sS'cashmere '
p4892
I1
sS'slghs '
p4893
I1
sS'secondhand '
p4894
I1
sS'toast '
p4895
I1
sS'gratitude '
p4896
I11
sS'techno '
p4897
I1
sS'amy '
p4898
I1
sS'myse '
p4899
I1
sS'dad '
p4900
I1
sS'appreciated '
p4901
I1
sS'andy '
p4902
I1
sS'w- '
p4903
I1
sS'again '
p4904
I1
sS'ta '
p4905
I1
sS'thursday '
p4906
I1
sS'thankyou '
p4907
I1
sS'mia '
p4908
I1
sS'night '
p4909
I1
sS'bag '
p4910
I1
sS'grateful '
p4911
I1
sS'sync '
p4912
I1
stp4913
a((lp4914
S'nobelpreis'
p4915
aS'Nobelpreis'
p4916
a(dp4917
S'nobel '
p4918
I14
sS'party '
p4919
I1
sS'certainly '
p4920
I1
sS'email '
p4921
I1
sS'prize '
p4922
I1
stp4923
a((lp4924
S'intrigiert'
p4925
aS'Intrigiert'
p4926
a(dp4927
S'certainly '
p4928
I1
stp4929
a((lp4930
S'sofort'
p4931
aS'Sofort'
p4932
a(dp4933
S'stay '
p4934
I1
sS'instantly '
p4935
I10
sS'am '
p4936
I2
sS'no '
p4937
I1
sS'aaaahhhhhh '
p4938
I1
sS'down '
p4939
I3
sS'then '
p4940
I3
sS'flash '
p4941
I1
sS'absolutely '
p4942
I2
sS'up '
p4943
I7
sS'$125, '
p4944
I1
sS'buddy '
p4945
I1
sS'give '
p4946
I1
sS'it '
p4947
I2
sS'please '
p4948
I1
sS'moment '
p4949
I7
sS'sight '
p4950
I2
sS'ja '
p4951
I2
sS'overnight '
p4952
I1
sS'forthwith '
p4953
I1
sS'got '
p4954
I1
sS'lmmediately '
p4955
I1
sS'quick '
p4956
I1
sS'antichrist '
p4957
I1
sS'once '
p4958
I33
sS'second '
p4959
I6
sS'come '
p4960
I1
sS'command '
p4961
I1
sS'leave '
p4962
I1
sS'him '
p4963
I3
sS'there '
p4964
I1
sS'go '
p4965
I5
sS'out '
p4966
I4
sS'directly '
p4967
I1
sS'soon '
p4968
I9
sS'stat '
p4969
I1
sS'heartbeat '
p4970
I4
sS'way '
p4971
I1
sS'stop '
p4972
I1
sS'doctor '
p4973
I1
sS'asap '
p4974
I2
sS'want '
p4975
I2
sS'done '
p4976
I1
sS'be '
p4977
I1
sS'now '
p4978
I929
sS'minute '
p4979
I9
sS'sure '
p4980
I1
sS'right '
p4981
I277
sS'now- '
p4982
I1
sS'instant '
p4983
I4
sS'sir '
p4984
I3
sS'first '
p4985
I2
sS'driscoll '
p4986
I1
sS'on '
p4987
I4
sS'you '
p4988
I1
sS'quickly '
p4989
I4
sS'off '
p4990
I1
sS'immediately '
p4991
I231
sS'straight '
p4992
I21
sS'okay '
p4993
I2
sS'straightaway '
p4994
I3
sS'certainly '
p4995
I1
sS'nausea '
p4996
I2
sS'open '
p4997
I5
sS'going '
p4998
I2
sS'wait '
p4999
I3
sS'will '
p5000
I1
sS'outright '
p5001
I1
sS'over '
p5002
I4
sS'coming '
p5003
I1
sS'none '
p5004
I1
sS'ride '
p5005
I1
sS'sec '
p5006
I2
sS'rightnow '
p5007
I1
sS'roommate '
p5008
I1
sS'shakes '
p5009
I1
sS'away '
p5010
I17
sS'here '
p5011
I3
sS'immediate '
p5012
I8
sS'mate '
p5013
I1
sS'piella '
p5014
I1
sS'move '
p5015
I1
sS'weapons '
p5016
I1
sS'presently '
p5017
I1
sS'fast '
p5018
I2
sS'immediatement '
p5019
I2
sS'get '
p5020
I24
sS'gone '
p5021
I1
sS'stray '
p5022
I1
sS'need '
p5023
I2
sS'yet '
p5024
I1
sS'breasts '
p5025
I1
sS'back '
p5026
I6
stp5027
a((lp5028
S'inst\xc3\xa4ndig'
p5029
aS'Inst\xc3\xa4ndig'
p5030
a(dp5031
S'implore '
p5032
I1
sS'certainly '
p5033
I1
sS'believes '
p5034
I1
sS'counsel '
p5035
I1
stp5036
a((lp5037
S's\xc3\xbc\xc3\x9fwasserfisch'
p5038
aS'S\xc3\xbc\xc3\x9fwasserfisch'
p5039
a(dp5040
S'freshwater '
p5041
I1
sS'certainly '
p5042
I1
stp5043
a((lp5044
S'stimmt'
p5045
aS'Stimmt'
p5046
a(dp5047
S'matter '
p5048
I1
sS'defenses '
p5049
I1
sS'farrah '
p5050
I1
sS'holds '
p5051
I1
sS'penny '
p5052
I1
sS'nope '
p5053
I1
sS'would '
p5054
I1
sS'ok '
p5055
I1
sS'blake '
p5056
I1
sS'stay '
p5057
I1
sS'months '
p5058
I1
sS'course '
p5059
I4
sS'fair '
p5060
I1
sS'did '
p5061
I19
sS'amiss '
p5062
I2
sS'absolutely '
p5063
I1
sS'haven '
p5064
I3
sS'\\u043c\\u043d\\u0435\\u043d\\u0438\\u044f\\u043c\\u0438 '
p5065
I1
sS'distasteful '
p5066
I1
sS'won '
p5067
I1
sS'am '
p5068
I7
sS'orphan '
p5069
I1
sS'keen '
p5070
I1
sS'lying '
p5071
I1
sS'truth '
p5072
I9
sS'sors '
p5073
I1
sS'isn '
p5074
I55
sS'raj '
p5075
I1
sS'fact '
p5076
I1
sS'agree '
p5077
I6
sS'3x21 '
p5078
I1
sS'scott '
p5079
I1
sS'sun '
p5080
I1
sS'anything '
p5081
I1
sS'- '
p5082
I5
sS'mikey '
p5083
I1
sS'had '
p5084
I2
sS'miyagi '
p5085
I1
sS'\xc3\x84\xc3\xa4nest\xc3\xa4 '
p5086
I1
sS'h\\u1ea3 '
p5087
I1
sS'guess '
p5088
I1
sS"'re "
p5089
I4
sS'27 '
p5090
I1
sS'est- '
p5091
I1
sS'plena '
p5092
I1
sS'matches '
p5093
I1
sS'correct '
p5094
I20
sS'we '
p5095
I1
sS'down '
p5096
I1
sS'answer '
p5097
I1
sS'aren '
p5098
I14
sS'fasterthis '
p5099
I1
sS'vote '
p5100
I1
sS'that '
p5101
I4
sS'yes '
p5102
I21
sS'fits '
p5103
I1
sS'wouldn '
p5104
I2
sS'ain '
p5105
I11
sS'start '
p5106
I1
sS'is '
p5107
I152
sS'no '
p5108
I4
sS'miles '
p5109
I1
sS'lsn '
p5110
I2
sS'exactly '
p5111
I2
sS'rht '
p5112
I1
sS'prohibition '
p5113
I1
sS'honor '
p5114
I1
sS'checks '
p5115
I5
sS'maybe '
p5116
I1
sS'untrue '
p5117
I1
sS'enjoy '
p5118
I1
sS'yep '
p5119
I2
sS'kissing '
p5120
I1
sS'check '
p5121
I1
sS"'s "
p5122
I90
sS'quite '
p5123
I1
sS'agreed '
p5124
I1
sS'too '
p5125
I1
sS'happens '
p5126
I1
sS'there '
p5127
I1
sS'makes '
p5128
I2
sS'true '
p5129
I380
sS'woman '
p5130
I1
sS'have '
p5131
I8
sS'know '
p5132
I4
sS'\\u0414\\u0430 '
p5133
I1
sS'obviously '
p5134
I1
sS'cops '
p5135
I1
sS'right, '
p5136
I1
sS'pregnant '
p5137
I1
sS'dazzling '
p5138
I1
sS'didn '
p5139
I22
sS'boom- '
p5140
I1
sS'now '
p5141
I1
sS'mouse '
p5142
I1
sS'applause '
p5143
I1
sS'sure '
p5144
I2
sS'right '
p5145
I852
sS'buzzer '
p5146
I1
sS'agrees '
p5147
I4
sS'plug '
p5148
I1
sS'permit '
p5149
I1
sS'were '
p5150
I1
sS'why '
p5151
I1
sS'so '
p5152
I3
sS'apricots '
p5153
I1
sS'doesn '
p5154
I2
sS'true, '
p5155
I1
sS'ow '
p5156
I1
sS'you '
p5157
I5
sS'don '
p5158
I17
sS'impressed '
p5159
I1
sS'they '
p5160
I4
sS'untruth '
p5161
I1
sS'what '
p5162
I2
sS'was '
p5163
I7
sS'hon '
p5164
I1
sS'wrong '
p5165
I356
sS'okay '
p5166
I1
sS'are '
p5167
I25
sS'certainly '
p5168
I1
sS'wait '
p5169
I1
sS'nothing '
p5170
I1
sS'take '
p5171
I1
sS'geugeonmaja '
p5172
I1
sS'arm '
p5173
I1
sS'huh '
p5174
I6
sS'scary '
p5175
I1
sS'fit '
p5176
I1
sS'password '
p5177
I1
sS'lecture '
p5178
I1
sS'girls '
p5179
I1
sS'maureen '
p5180
I1
sS'well '
p5181
I5
sS'point '
p5182
I3
sS'sec '
p5183
I1
sS'sweatshirt '
p5184
I1
sS'keep '
p5185
I4
sS'ls '
p5186
I4
sS', '
p5187
I1
sS'do '
p5188
I18
sS"'m "
p5189
I3
sS'dad '
p5190
I1
sS'kn '
p5191
I1
sS'leah '
p5192
I1
sS'understand '
p5193
I1
sS'girlfriend '
p5194
I1
sS'benjamln '
p5195
I1
sS'scheider '
p5196
I1
sS'not '
p5197
I1
sS'does '
p5198
I5
sS'can '
p5199
I2
sS'indeed '
p5200
I1
sS'oh '
p5201
I2
sS'somethin '
p5202
I1
sS'stimmt '
p5203
I1
sS'i '
p5204
I9
sS'goons '
p5205
I1
sS'wasn '
p5206
I6
sS'olekin '
p5207
I1
sS'socially '
p5208
I1
sS'real '
p5209
I2
sS'boat '
p5210
I1
sS'something '
p5211
I13
sS'passengers '
p5212
I1
sS'yeah '
p5213
I28
stp5214
a((lp5215
S'klingt'
p5216
aS'Klingt'
p5217
a(dp5218
S'sounds, '
p5219
I1
sS'sounds- '
p5220
I1
sS'showed '
p5221
I1
sS"'90s "
p5222
I1
sS'makes '
p5223
I4
sS"'d "
p5224
I3
sS'partners '
p5225
I1
sS'story '
p5226
I1
sS'table '
p5227
I1
sS'looks '
p5228
I3
sS'similar '
p5229
I1
sS'gypsy '
p5230
I1
sS'waste '
p5231
I1
sS'seems '
p5232
I7
sS'wow '
p5233
I1
sS'sounded '
p5234
I2
sS', '
p5235
I1
sS'pearls '
p5236
I1
sS'that '
p5237
I3
sS'spin '
p5238
I1
sS'rings '
p5239
I1
sS'good '
p5240
I4
sS'talks '
p5241
I1
sS'leonard '
p5242
I1
sS'is '
p5243
I11
sS'does '
p5244
I18
sS'like '
p5245
I1
sS'doesn '
p5246
I7
sS'sound '
p5247
I154
sS'dazzle '
p5248
I1
sS'isn '
p5249
I1
sS'might '
p5250
I1
sS'spoken '
p5251
I1
sS'sounding '
p5252
I2
sS'about '
p5253
I1
sS'i '
p5254
I1
sS'god '
p5255
I1
sS'mm- '
p5256
I1
sS'- '
p5257
I1
sS'crazy '
p5258
I1
sS'feels '
p5259
I2
sS'pllot '
p5260
I1
sS'certainly '
p5261
I1
sS'open '
p5262
I1
sS'enjoying '
p5263
I1
sS"'s "
p5264
I44
sS'curious '
p5265
I1
sS'sounds '
p5266
I774
sS'salisbury '
p5267
I1
sS'to '
p5268
I1
sS'ring '
p5269
I1
sS'soundslike '
p5270
I1
sS'slren '
p5271
I1
sS'seem '
p5272
I2
stp5273
a((lp5274
S'lhnen'
p5275
aS'Lhnen'
p5276
a(dp5277
S'about '
p5278
I1
sS'me '
p5279
I1
sS'lay '
p5280
I1
sS'7am '
p5281
I1
sS'really '
p5282
I2
sS'certainly '
p5283
I1
sS'mcnally '
p5284
I1
sS'your '
p5285
I11
sS'you '
p5286
I344
sS'good '
p5287
I1
sS'cervix '
p5288
I1
sS'that '
p5289
I1
sS'yours '
p5290
I1
sS'appreciate '
p5291
I1
sS'merci '
p5292
I1
sS'lhnen '
p5293
I31
sS'to '
p5294
I1
stp5295
a((lp5296
S'gary'
p5297
aS'Gary'
p5298
a(dp5299
S'uh '
p5300
I1
sS'whh '
p5301
I1
sS'anymore '
p5302
I1
sS'headband '
p5303
I1
sS'ok '
p5304
I2
sS'magical '
p5305
I1
sS'low '
p5306
I1
sS'ranker '
p5307
I1
sS'seen '
p5308
I1
sS'won '
p5309
I1
sS'lie '
p5310
I1
sS'uniforms '
p5311
I1
sS'allison '
p5312
I1
sS'great '
p5313
I1
sS'gary '
p5314
I122
sS'calling '
p5315
I1
sS'yesterday '
p5316
I1
sS'all '
p5317
I1
sS'certainly '
p5318
I1
sS'crazy '
p5319
I1
sS'mcenroe '
p5320
I1
sS'which '
p5321
I1
stp5322
a((lp5323
S'verstanden'
p5324
aS'Verstanden'
p5325
a(dp5326
S'ever '
p5327
I2
sS'hi '
p5328
I1
sS'ok '
p5329
I2
sS'mean '
p5330
I2
sS'realized '
p5331
I2
sS'dinghy '
p5332
I1
sS'sending '
p5333
I1
sS'tons '
p5334
I1
sS'deal '
p5335
I1
sS'k- '
p5336
I1
sS'gotten '
p5337
I1
sS'bossy '
p5338
I2
sS'pinkman '
p5339
I1
sS'misunderstood '
p5340
I1
sS'stranded '
p5341
I2
sS'thank '
p5342
I1
sS'capisce '
p5343
I1
sS'it '
p5344
I6
sS'check '
p5345
I1
sS'icky '
p5346
I1
sS'please '
p5347
I1
sS'let '
p5348
I1
sS'capiro '
p5349
I1
sS'pllot '
p5350
I1
sS'copies '
p5351
I1
sS'all '
p5352
I1
sS'capisci '
p5353
I1
sS'friends '
p5354
I1
sS'along '
p5355
I6
sS'me '
p5356
I6
sS'got '
p5357
I249
sS'sheldon '
p5358
I1
sS'fett '
p5359
I1
sS'copied '
p5360
I4
sS'quoi '
p5361
I1
sS'figure '
p5362
I1
sS'finish '
p5363
I1
sS'that '
p5364
I2
sS'yes '
p5365
I8
sS'misheard '
p5366
I1
sS'psychological '
p5367
I1
sS'understood '
p5368
I226
sS'time '
p5369
I2
sS'him '
p5370
I1
sS'message '
p5371
I3
sS'gotcha '
p5372
I14
sS'stunning '
p5373
I1
sS'taken '
p5374
I4
sS'received '
p5375
I2
sS'1890s '
p5376
I1
sS'sergeant '
p5377
I1
sS'geddit '
p5378
I1
sS'affirmative '
p5379
I3
sS'luna '
p5380
I1
sS'understanding '
p5381
I6
sS'go '
p5382
I2
sS'forget '
p5383
I2
sS'learn '
p5384
I1
sS'atop '
p5385
I1
sS'test '
p5386
I1
sS'picture '
p5387
I2
sS'3 '
p5388
I1
sS'manly '
p5389
I1
sS'ten- '
p5390
I2
sS'singular '
p5391
I1
sS'************ '
p5392
I1
sS'kick '
p5393
I1
sS'exciting '
p5394
I1
sS'comprende '
p5395
I8
sS'chat '
p5396
I1
sS'remember '
p5397
I1
sS'four '
p5398
I1
sS'thingabout '
p5399
I1
sS'together '
p5400
I1
sS'dig '
p5401
I1
sS'risk '
p5402
I1
sS'now '
p5403
I1
sS'said, '
p5404
I1
sS'two- '
p5405
I1
sS'right '
p5406
I64
sS'youunderstand '
p5407
I1
sS'enough '
p5408
I1
sS'so '
p5409
I1
sS'mustache '
p5410
I1
sS'ooh '
p5411
I1
sS'entiende '
p5412
I1
sS'became '
p5413
I1
sS'canned '
p5414
I1
sS'see '
p5415
I3
sS'okay '
p5416
I13
sS'clearly '
p5417
I1
sS'rotor, '
p5418
I1
sS'10- '
p5419
I1
sS'certainly '
p5420
I1
sS'catch '
p5421
I5
sS'wait '
p5422
I1
sS'are '
p5423
I2
sS'acknowledged '
p5424
I1
sS'figured '
p5425
I2
sS'understandeach '
p5426
I1
sS'where '
p5427
I1
sS'said '
p5428
I5
sS'alright '
p5429
I1
sS'explore '
p5430
I1
sS'heard '
p5431
I38
sS'beak '
p5432
I1
sS'point '
p5433
I6
sS'realize '
p5434
I1
sS'do '
p5435
I2
sS'clear '
p5436
I36
sS'understand '
p5437
I427
sS'roger '
p5438
I111
sS'mr '
p5439
I1
sS'read '
p5440
I1
sS'move '
p5441
I3
sS'syrup '
p5442
I1
sS'hear '
p5443
I91
sS'understands '
p5444
I2
sS'woah '
p5445
I1
sS'you '
p5446
I4
sS'cover '
p5447
I1
sS'meters '
p5448
I1
sS'federal '
p5449
I1
sS'understanded '
p5450
I1
sS'off '
p5451
I3
sS'get '
p5452
I139
sS'percent '
p5453
I1
sS'deeply '
p5454
I1
sS'alone '
p5455
I1
sS'idea '
p5456
I4
sS'copy '
p5457
I140
sS'yeah '
p5458
I3
stp5459
a((lp5460
S'na'
p5461
aS'Na'
p5462
a(dp5463
S'aii '
p5464
I2
sS'goon '
p5465
I1
sS'uh '
p5466
I3
sS'lets '
p5467
I1
sS'kilowatt '
p5468
I1
sS'y '
p5469
I3
sS'knock '
p5470
I1
sS"'cause "
p5471
I2
sS'no '
p5472
I34
sS'het '
p5473
I1
sS'hi '
p5474
I5
sS'ok '
p5475
I17
sS'kill '
p5476
I1
sS'gee '
p5477
I3
sS'actually '
p5478
I4
sS'really, '
p5479
I1
sS'anyways '
p5480
I1
sS'wow '
p5481
I2
sS'man '
p5482
I1
sS'course '
p5483
I1
sS'fair '
p5484
I21
sS'did '
p5485
I2
sS'thank '
p5486
I1
sS'step '
p5487
I1
sS'michael '
p5488
I1
sS'then '
p5489
I1
sS'hell '
p5490
I1
sS'calvln '
p5491
I1
sS'merry '
p5492
I1
sS"'em "
p5493
I1
sS"'mon "
p5494
I1
sS'varies '
p5495
I1
sS'try '
p5496
I1
sS'isn '
p5497
I1
sS'idiot '
p5498
I1
sS'little '
p5499
I1
sS'it '
p5500
I7
sS'duh '
p5501
I1
sS'please '
p5502
I3
sS'\\u00a1 '
p5503
I1
sS'- '
p5504
I81
sS'weil '
p5505
I3
sS'let '
p5506
I76
sS'we '
p5507
I5
sS'alrighty '
p5508
I2
sS'copies '
p5509
I1
sS'all '
p5510
I511
sS'pick '
p5511
I1
sS'talking '
p5512
I1
sS'fine '
p5513
I8
sS'whereas '
p5514
I2
sS'guess '
p5515
I1
sS'notary '
p5516
I1
sS'never '
p5517
I1
sS'ja '
p5518
I1
sS'mom '
p5519
I1
sS'relationship '
p5520
I1
sS'addiction '
p5521
I1
sS'later '
p5522
I1
sS'got '
p5523
I2
sS'ecch '
p5524
I1
sS'forty- '
p5525
I1
sS'hush '
p5526
I1
sS'climb '
p5527
I1
sS'aren '
p5528
I2
sS'just '
p5529
I12
sS'because '
p5530
I2
sS'relaxes '
p5531
I1
sS'that '
p5532
I16
sS'come '
p5533
I264
sS'yes '
p5534
I9
sS'good '
p5535
I2
sS'sounds '
p5536
I2
sS'sits '
p5537
I1
sS'wait '
p5538
I1
sS'start '
p5539
I2
sS'whatever '
p5540
I6
sS'ram '
p5541
I1
sS'gotcha '
p5542
I3
sS'\\u2013 '
p5543
I1
sS'anyway '
p5544
I10
sS'pete '
p5545
I1
sS'european '
p5546
I1
sS'fuckin '
p5547
I2
sS'guard '
p5548
I1
sS'tell '
p5549
I2
sS'say '
p5550
I3
sS'perhaps '
p5551
I1
sS'worse '
p5552
I1
sS'sort '
p5553
I2
sS'go '
p5554
I23
sS'check '
p5555
I1
sS'dozing '
p5556
I1
sS"'s "
p5557
I2
sS'um '
p5558
I3
sS'however '
p5559
I1
sS'here '
p5560
I26
sS'stop '
p5561
I1
sS'mm- '
p5562
I1
sS'umm '
p5563
I1
sS'boy '
p5564
I1
sS'but '
p5565
I11
sS'emma '
p5566
I1
sS'there '
p5567
I76
sS'hey, '
p5568
I1
sS'want '
p5569
I1
sS'allright '
p5570
I1
sS'know '
p5571
I1
sS'butwe '
p5572
I1
sS'difference '
p5573
I1
sS'bring '
p5574
I1
sS'nah '
p5575
I6
sS'wolowltz '
p5576
I1
sS'cheers '
p5577
I2
sS'noisy '
p5578
I1
sS'bugger '
p5579
I1
sS'now '
p5580
I34
sS'hey '
p5581
I38
sS'me '
p5582
I2
sS'right '
p5583
I10
sS'er '
p5584
I1
sS'sarsaparilla '
p5585
I1
sS'hells '
p5586
I1
sS'why '
p5587
I5
sS'so '
p5588
I175
sS'ah '
p5589
I2
sS'fucking '
p5590
I3
sS'like '
p5591
I1
sS'doesn '
p5592
I1
sS'feynman '
p5593
I1
sS'c '
p5594
I4
sS'make '
p5595
I2
sS'so, '
p5596
I1
sS'you '
p5597
I51
sS'don '
p5598
I4
sS'they '
p5599
I2
sS'what '
p5600
I28
sS'hiya '
p5601
I1
sS'yikes '
p5602
I1
sS'same '
p5603
I1
sS'sorta '
p5604
I1
sS'okay '
p5605
I48
sS'are '
p5606
I3
sS'tough '
p5607
I1
sS'certainly '
p5608
I1
sS'give '
p5609
I2
sS'and '
p5610
I2
sS'[ '
p5611
I2
sS'he '
p5612
I3
sS'eh '
p5613
I2
sS'jokes, '
p5614
I1
sS'big '
p5615
I3
sS'who '
p5616
I1
sS'schnapps '
p5617
I1
sS'huh '
p5618
I11
sS'faith '
p5619
I1
sS'colns '
p5620
I1
sS'ajde '
p5621
I1
sS'alright '
p5622
I24
sS'steering '
p5623
I1
sS"' "
p5624
I1
sS'well, '
p5625
I14
sS'well '
p5626
I854
sS'enviroment '
p5627
I1
sS'problem '
p5628
I1
sS"'t "
p5629
I1
sS'ellzabeth '
p5630
I1
sS'jude '
p5631
I1
sS'keep '
p5632
I2
sS'look '
p5633
I8
sS'dear '
p5634
I1
sS'withur '
p5635
I1
sS'do '
p5636
I11
sS'clear '
p5637
I1
sS'dad '
p5638
I1
sS'hers '
p5639
I1
sS'how '
p5640
I10
sS'damn '
p5641
I1
sS'ugly '
p5642
I1
sS'hurry '
p5643
I3
sS'allan '
p5644
I1
sS'aye '
p5645
I2
sS'mate '
p5646
I1
sS'walk '
p5647
I2
sS'take '
p5648
I3
sS'move '
p5649
I3
sS'crystal '
p5650
I1
sS'specifically '
p5651
I1
sS'oh '
p5652
I57
sS'hello '
p5653
I7
sS'doze '
p5654
I1
sS'see '
p5655
I3
sS'i '
p5656
I35
sS'woah '
p5657
I1
sS'watson '
p5658
I1
sS'lines '
p5659
I1
sS'ajob '
p5660
I1
sS'na '
p5661
I15
sS'get '
p5662
I3
sS'normal '
p5663
I1
sS'soldler '
p5664
I1
sS'yo '
p5665
I2
sS'not '
p5666
I1
sS'lockwood '
p5667
I1
sS'still '
p5668
I2
sS'yeah '
p5669
I42
stp5670
a((lp5671
S'tennack'
p5672
aS'Tennack'
p5673
a(dp5674
S'certainly '
p5675
I1
sS'tennack '
p5676
I6
stp5677
a((lp5678
S'umso'
p5679
aS'Umso'
p5680
a(dp5681
S'much '
p5682
I1
sS'something, '
p5683
I1
sS'takes '
p5684
I1
sS'it, '
p5685
I1
sS'youd '
p5686
I1
sS'even '
p5687
I2
sS'manythe '
p5688
I1
sS'certainly '
p5689
I1
sS'oh '
p5690
I1
sS'good '
p5691
I2
sS'as '
p5692
I1
sS'great '
p5693
I1
sS'more '
p5694
I2
sS'well '
p5695
I2
stp5696
a((lp5697
S'eurem'
p5698
aS'Eurem'
p5699
a(dp5700
S'certainly '
p5701
I1
sS'yours '
p5702
I3
sS'your '
p5703
I237
sS'machine '
p5704
I1
stp5705
a((lp5706
S'w\xc3\xbcrdes'
p5707
aS'W\xc3\xbcrdes'
p5708
a(dp5709
S'certainly '
p5710
I1
sS'would '
p5711
I1
stp5712
a((lp5713
S'tats\xc3\xa4chlich'
p5714
aS'Tats\xc3\xa4chlich'
p5715
a(dp5716
S'definitely '
p5717
I2
sS'actual '
p5718
I4
sS'kerran '
p5719
I1
sS'that '
p5720
I1
sS'no '
p5721
I1
sS'thought '
p5722
I1
sS'would '
p5723
I1
sS'leonards '
p5724
I1
sS'artie '
p5725
I1
sS'actually '
p5726
I321
sS'chuck '
p5727
I1
sS'actually, '
p5728
I2
sS'did '
p5729
I9
sS'do '
p5730
I6
sS'really '
p5731
I91
sS'true '
p5732
I1
sS'hey '
p5733
I4
sS'yes '
p5734
I1
sS'odd '
p5735
I2
sS'leonard '
p5736
I1
sS'expected '
p5737
I1
sS'is '
p5738
I16
sS'were '
p5739
I1
sS'baseball '
p5740
I1
sS'lndeed '
p5741
I1
sS'does '
p5742
I4
sS'so '
p5743
I6
sS'ls '
p5744
I1
sS'indeed '
p5745
I24
sS'fact '
p5746
I80
sS'isn '
p5747
I1
sS'uh- '
p5748
I1
sS'you '
p5749
I2
sS'literally '
p5750
I1
sS'serious '
p5751
I1
sS'281 '
p5752
I1
sS'see '
p5753
I1
sS'was '
p5754
I1
sS'seriously '
p5755
I1
sS'bourbon '
p5756
I1
sS'fact, '
p5757
I1
sS'famous '
p5758
I1
sS'reaily '
p5759
I1
sS'sick '
p5760
I1
sS'sot '
p5761
I1
sS'cord '
p5762
I1
sS'certainly '
p5763
I1
sS'actuaiiy '
p5764
I2
sS'real '
p5765
I1
sS'soon '
p5766
I1
sS'trample '
p5767
I1
sS'truly '
p5768
I1
sS'totally '
p5769
I1
sS'way '
p5770
I1
sS'look '
p5771
I1
sS'yeah '
p5772
I2
stp5773
a((lp5774
S'geewi'
p5775
aS'Geewi'
p5776
a(dp5777
S'certainly '
p5778
I1
stp5779
a((lp5780
S'mike'
p5781
aS'Mike'
p5782
a(dp5783
S'sam '
p5784
I1
sS'me '
p5785
I1
sS'working '
p5786
I1
sS'stylist '
p5787
I1
sS'mom '
p5788
I2
sS'besides '
p5789
I1
sS'em '
p5790
I1
sS'awkwardness '
p5791
I1
sS'michael '
p5792
I2
sS'physical '
p5793
I1
sS'frankie '
p5794
I1
sS'micheal '
p5795
I1
sS'how '
p5796
I1
sS'mikewants '
p5797
I1
sS'brad '
p5798
I1
sS'depressed '
p5799
I1
sS'play '
p5800
I1
sS'light '
p5801
I1
sS'sharra '
p5802
I1
sS'what '
p5803
I3
sS'i '
p5804
I1
sS'mike, '
p5805
I23
sS'strank '
p5806
I1
sS'anything '
p5807
I1
sS'mikey '
p5808
I9
sS'certainly '
p5809
I1
sS'mike '
p5810
I929
sS'interview '
p5811
I1
sS'nick '
p5812
I1
stp5813
a((lp5814
S'armseliges'
p5815
aS'Armseliges'
p5816
a(dp5817
S'paltry '
p5818
I1
sS'miserable '
p5819
I1
sS'certainly '
p5820
I1
stp5821
a((lp5822
S'haben'
p5823
aS'Haben'
p5824
a(dp5825
S'one '
p5826
I6
sS'weren '
p5827
I17
sS'going '
p5828
I1
sS'may '
p5829
I1
sS'gives '
p5830
I1
sS'no '
p5831
I2
sS'ever '
p5832
I3
sS'd '
p5833
I1
sS'would '
p5834
I28
sS'please '
p5835
I2
sS'down '
p5836
I1
sS'anyways '
p5837
I1
sS'wow '
p5838
I1
sS'\\u007f\\u007fdo '
p5839
I1
sS'did '
p5840
I1941
sS'hit '
p5841
I2
sS'work '
p5842
I1
sS'ding '
p5843
I1
sS'then '
p5844
I2
sS'gotta '
p5845
I2
sS'with '
p5846
I17
sS'up '
p5847
I5
sS'threw '
p5848
I1
sS'if '
p5849
I4
sS'laurel '
p5850
I1
sS'took '
p5851
I76
sS'for '
p5852
I1
sS'thank '
p5853
I2
sS'pulled '
p5854
I10
sS'came '
p5855
I7
sS'happened '
p5856
I1
sS'it '
p5857
I1
sS'kids '
p5858
I2
sS'found '
p5859
I42
sS'anything '
p5860
I2
sS'more '
p5861
I1
sS'g '
p5862
I1
sS'hooked '
p5863
I2
sS'sorry '
p5864
I1
sS"'ve "
p5865
I2643
sS'we '
p5866
I6
sS'- '
p5867
I12
sS'all '
p5868
I1
sS'had '
p5869
I193
sS'. '
p5870
I3
sS'want '
p5871
I2
sS"'re "
p5872
I833
sS've '
p5873
I1
sS'them '
p5874
I2
sS'cre '
p5875
I1
sS'probably '
p5876
I4
sS'any '
p5877
I5
sS'seem '
p5878
I2
sS'ided '
p5879
I1
sS'else '
p5880
I1
sS'last '
p5881
I1
sS'getting '
p5882
I1
sS'got '
p5883
I2384
sS'has '
p5884
I49
sS'left '
p5885
I13
sS'having '
p5886
I148
sS'should '
p5887
I6
sS'answer '
p5888
I1
sS'broke '
p5889
I1
sS'aren '
p5890
I16
sS'just '
p5891
I13
sS'face '
p5892
I1
sS'parents '
p5893
I1
sS'could '
p5894
I13
sS'that '
p5895
I2
sS'find '
p5896
I7
sS'yes '
p5897
I3
sS'carry '
p5898
I2
sS'saw '
p5899
I9
sS'is '
p5900
I171
sS'time '
p5901
I1
sS'him '
p5902
I2
sS'police '
p5903
I1
sS'didn\\u2019 '
p5904
I1
sS'i- '
p5905
I1
sS'might '
p5906
I3
sS'asked '
p5907
I3
sS'taken '
p5908
I1
sS'met '
p5909
I1
sS'told '
p5910
I2
sS'think '
p5911
I1
sS'will '
p5912
I14
sS'available '
p5913
I1
sS'phone '
p5914
I1
sS'went '
p5915
I19
sS'ones '
p5916
I1
sS'maybe '
p5917
I2
sS'selling '
p5918
I1
sS'free '
p5919
I1
sS'show '
p5920
I1
sS'ls '
p5921
I1
sS"'s "
p5922
I243
sS'must '
p5923
I1
sS'assuming '
p5924
I1
sS're '
p5925
I2
sS'here '
p5926
I3
sS'ain '
p5927
I4
sS'dealing '
p5928
I3
sS'but '
p5929
I3
sS'now '
p5930
I1
sS'drained '
p5931
I1
sS'stole '
p5932
I2
sS'exciting '
p5933
I1
sS'have '
p5934
I9261
sS'haven '
p5935
I378
sS'called '
p5936
I1
sS'minutes '
p5937
I1
sS'possess '
p5938
I1
sS'tangoed '
p5939
I1
sS'own '
p5940
I4
sS'didn '
p5941
I591
sS'be '
p5942
I1
sS'there '
p5943
I7
sS'brought '
p5944
I17
sS'hey '
p5945
I1
sS'used '
p5946
I25
sS'suppose '
p5947
I1
sS'right '
p5948
I2
sS'won '
p5949
I1
sS'were '
p5950
I690
sS'why '
p5951
I1
sS'so '
p5952
I2
sS'ran '
p5953
I3
sS'on '
p5954
I2
sS'couldn '
p5955
I3
sS'you '
p5956
I20
sS'don '
p5957
I30
sS'they '
p5958
I33
sS'gave '
p5959
I30
sS'what '
p5960
I11
sS'was '
p5961
I64
sS'clears '
p5962
I1
sS'means '
p5963
I1
sS'said '
p5964
I7
sS'... '
p5965
I1
sS'okay '
p5966
I1
sS'are '
p5967
I501
sS'us '
p5968
I7
sS'certainly '
p5969
I1
sS'give '
p5970
I3
sS'clocked '
p5971
I1
sS'catch '
p5972
I3
sS'put '
p5973
I49
sS'take '
p5974
I27
sS'hot '
p5975
I2
sS'daniel '
p5976
I1
sS'once '
p5977
I3
sS'turned '
p5978
I1
sS'lost '
p5979
I1
sS'kept '
p5980
I2
sS'ddn '
p5981
I2
sS"' "
p5982
I1
sS"'d "
p5983
I216
sS'picked '
p5984
I8
sS'heard '
p5985
I1
sS'truly '
p5986
I1
sS'out '
p5987
I5
sS'of '
p5988
I1
sS'keep '
p5989
I11
sS'isn '
p5990
I4
sS', '
p5991
I122
sS'do '
p5992
I847
sS'since '
p5993
I1
sS'guys '
p5994
I1
sS': '
p5995
I1
sS'understand '
p5996
I1
sS'how '
p5997
I1
sS'some '
p5998
I2
sS'sure '
p5999
I1
sS'does '
p6000
I2
sS'doorbell '
p6001
I1
sS'scooped '
p6002
I1
sS'can '
p6003
I60
sS'never '
p6004
I2
sS'yours '
p6005
I1
sS'made '
p6006
I111
sS'caught '
p6007
I5
sS'forgot '
p6008
I2
sS'see '
p6009
I2
sS'set '
p6010
I2
sS'been '
p6011
I4
sS'in '
p6012
I5
sS'? '
p6013
I1
sS'did, '
p6014
I3
sS'taking '
p6015
I3
sS'buy '
p6016
I3
sS'get '
p6017
I103
sS'need '
p6018
I5
sS'yeah '
p6019
I1
sS'tried '
p6020
I6
sS'back '
p6021
I1
stp6022
a((lp6023
S'hoffe'
p6024
aS'Hoffe'
p6025
a(dp6026
S'boy '
p6027
I1
sS'husband '
p6028
I1
sS'figured '
p6029
I1
sS'better '
p6030
I18
sS'too '
p6031
I1
sS'graduation '
p6032
I1
sS'hope '
p6033
I1284
sS'thought '
p6034
I3
sS'would '
p6035
I1
sS"'d "
p6036
I1
sS'avm '
p6037
I1
sS'guess '
p6038
I1
sS'hillbillies '
p6039
I1
sS'fred '
p6040
I1
sS'sighs '
p6041
I1
sS'should '
p6042
I1
sS'pray '
p6043
I1
sS'wish '
p6044
I4
sS'just '
p6045
I1
sS'hopes '
p6046
I2
sS'dort '
p6047
I1
sS"'m "
p6048
I5
sS'really '
p6049
I1
sS'brought '
p6050
I1
sS'hell '
p6051
I2
sS'if '
p6052
I3
sS'slamming '
p6053
I1
sS'indeed '
p6054
I1
sS'does '
p6055
I1
sS'hoffa '
p6056
I1
sS'thank '
p6057
I1
sS'phones '
p6058
I2
sS'course '
p6059
I1
sS'think '
p6060
I8
sS'hopethis '
p6061
I1
sS'promise '
p6062
I1
sS'it '
p6063
I1
sS'i '
p6064
I1
sS'you '
p6065
I1
sS'expect '
p6066
I1
sS'hopefully '
p6067
I11
sS'snacks '
p6068
I1
sS'freak '
p6069
I1
sS'don '
p6070
I3
sS'hopeful '
p6071
I1
sS'certainly '
p6072
I1
sS'hoping '
p6073
I70
sS"'s "
p6074
I1
sS'probably '
p6075
I1
sS'always '
p6076
I1
sS'trust '
p6077
I19
sS'leno '
p6078
I1
sS'yeah '
p6079
I3
stp6080
a((lp6081
S'sieht'
p6082
aS'Sieht'
p6083
a(dp6084
S'aw '
p6085
I1
sS'uh '
p6086
I1
sS'companions '
p6087
I1
sS'showing '
p6088
I2
sS'luck '
p6089
I1
sS'looks '
p6090
I1627
sS'wow '
p6091
I1
sS'did '
p6092
I3
sS'n\xc3\xa4yt\xc3\xa4kin '
p6093
I1
sS'gives '
p6094
I1
sS'seen '
p6095
I3
sS'look '
p6096
I99
sS'it '
p6097
I6
sS'gloria '
p6098
I1
sS'about '
p6099
I18
sS"'bout "
p6100
I1
sS'would '
p6101
I1
sS'turns '
p6102
I1
sS'we '
p6103
I14
sS'- '
p6104
I1
sS'help '
p6105
I1
sS'apparently '
p6106
I3
sS'meets '
p6107
I4
sS'sounds '
p6108
I7
sS'iooks '
p6109
I3
sS'alleggy '
p6110
I1
sS'seem '
p6111
I13
sS'watching '
p6112
I14
sS'very '
p6113
I1
sS'shows '
p6114
I3
sS'got '
p6115
I2
sS'has '
p6116
I3
sS'appear '
p6117
I3
sS'finds '
p6118
I1
sS"'ll "
p6119
I3
sS'links '
p6120
I1
sS'seems '
p6121
I91
sS'face '
p6122
I2
sS'sees '
p6123
I207
sS'seemed '
p6124
I1
sS'pretty '
p6125
I1
sS'saw '
p6126
I7
sS'is '
p6127
I85
sS'mitchell '
p6128
I1
sS'grave '
p6129
I2
sS'might '
p6130
I1
sS'think '
p6131
I1
sS'stylish '
p6132
I1
sS'regards '
p6133
I1
sS'five '
p6134
I2
sS'checks '
p6135
I1
sS'maybe '
p6136
I1
sS'feels '
p6137
I4
sS'show '
p6138
I3
sS"'s "
p6139
I264
sS'seeing '
p6140
I26
sS'watches '
p6141
I1
sS'status '
p6142
I1
sS'lookin '
p6143
I1
sS'negotiate '
p6144
I1
sS'here '
p6145
I1
sS'farewell '
p6146
I1
sS'but '
p6147
I1
sS'makes '
p6148
I2
sS'guess '
p6149
I4
sS'jack '
p6150
I1
sS'eeee '
p6151
I1
sS'other '
p6152
I1
sS'loooks '
p6153
I1
sS'doesn\\u2019 '
p6154
I1
sS'appears '
p6155
I9
sS'hey '
p6156
I1
sS'sure '
p6157
I1
sS'obvious '
p6158
I1
sS'laughs '
p6159
I2
sS'watch '
p6160
I1
sS'dresses '
p6161
I1
sS'?????? '
p6162
I1
sS'like '
p6163
I1
sS'doesn '
p6164
I142
sS'first '
p6165
I1
sS'bye '
p6166
I2
sS'you '
p6167
I4
sS'don '
p6168
I7
sS'they '
p6169
I3
sS"'cause "
p6170
I1
sS'poking '
p6171
I2
sS'feeling '
p6172
I2
sS'clearly '
p6173
I1
sS'deanne '
p6174
I1
sS'certainly '
p6175
I1
sS'later '
p6176
I1
sS'hoping '
p6177
I1
sS'smells '
p6178
I2
sS'catch '
p6179
I1
sS'mean- '
p6180
I1
sS'he '
p6181
I1
sS'are '
p6182
I21
sS'eyes '
p6183
I1
sS'to '
p6184
I1
sS'spotted '
p6185
I1
sS'comes '
p6186
I1
sS"'d "
p6187
I1
sS'meet '
p6188
I3
sS'kind '
p6189
I3
sS'well '
p6190
I1
sS'looked '
p6191
I12
sS'though '
p6192
I1
sS'isn '
p6193
I1
sS'do '
p6194
I18
sS'figures '
p6195
I1
sS'liu '
p6196
I1
sS'sound '
p6197
I1
sS's '
p6198
I1
sS'does '
p6199
I157
sS'a '
p6200
I1
sS'slaw '
p6201
I1
sS'can '
p6202
I21
sS'oh '
p6203
I2
sS'looking '
p6204
I74
sS'iooking '
p6205
I1
sS'aesthetically '
p6206
I1
sS'see '
p6207
I275
sS'i '
p6208
I3
sS'penta '
p6209
I1
sS'cabo '
p6210
I1
sS'real '
p6211
I1
sS'iook '
p6212
I1
sS'seein '
p6213
I3
stp6214
a.