(lp0
((lp1
S'lieber'
p2
aS'Lieber'
p3
a(dp4
S'one '
p5
I1
sS'sweet '
p6
I6
sS'better '
p7
I230
sS'uh '
p8
I1
sS'no '
p9
I1
sS'stayingat '
p10
I1
sS'down '
p11
I1
sS'man '
p12
I1
sS'siree '
p13
I1
sS'sift '
p14
I1
sS'dearboy '
p15
I1
sS'happier '
p16
I2
sS'buddy '
p17
I1
sS'let '
p18
I2
sS'more '
p19
I14
sS'pass '
p20
I1
sS'idiot '
p21
I1
sS'fuckers '
p22
I1
sS'best '
p23
I5
sS'fine '
p24
I2
sS'soon '
p25
I1
sS'instead '
p26
I10
sS'should '
p27
I21
sS'or '
p28
I3
sS'sunshine '
p29
I3
sS'just '
p30
I14
sS'rather '
p31
I334
sS'make '
p32
I2
sS'good '
p33
I6
sS'wouldn '
p34
I6
sS'leave '
p35
I3
sS'preferred '
p36
I2
sS'drink '
p37
I1
sS'might '
p38
I3
sS'dear, '
p39
I1
sS'lovely '
p40
I1
sS'thanks '
p41
I1
sS'maybe '
p42
I2
sS'perhaps '
p43
I2
sS'lieber '
p44
I12
sS'go '
p45
I9
sS'lover '
p46
I1
sS'dear '
p47
I149
sS'sprint '
p48
I1
sS'iove '
p49
I1
sS'here '
p50
I2
sS'sooner '
p51
I2
sS'wanna '
p52
I8
sS'want '
p53
I9
sS'dearest '
p54
I3
sS'likes '
p55
I2
sS'my '
p56
I5
sS'love '
p57
I5
sS'be '
p58
I1
sS'prefers '
p59
I1
sS'awfully '
p60
I1
sS'baby '
p61
I2
sS'like '
p62
I9
sS'first '
p63
I1
sS'on '
p64
I1
sS'you '
p65
I1
sS'don '
p66
I4
sS'darling '
p67
I8
sS'to '
p68
I1
sS'bloody '
p69
I1
sS'german '
p70
I1
sS'friend '
p71
I5
sS"'d "
p72
I11
sS'dearie '
p73
I1
sS'sylvia '
p74
I1
sS'shouldn '
p75
I5
sS"'t "
p76
I5
sS'these '
p77
I2
sS'wish '
p78
I2
sS'thank '
p79
I1
sS'coronary '
p80
I1
sS'liked '
p81
I1
sS'bad '
p82
I1
sS'wet '
p83
I1
sS'prefer '
p84
I62
sS'useless '
p85
I1
sS'hayat\\u0131m '
p86
I1
sS'" '
p87
I1
sS'sit '
p88
I3
sS'oh '
p89
I1
sS'awesome '
p90
I1
sS'nice '
p91
I2
sS'stick '
p92
I1
sS'honey '
p93
I1
sS'off '
p94
I1
sS'get '
p95
I1
stp96
a((lp97
S'eher'
p98
aS'Eher'
p99
a(dp100
S'record '
p101
I1
sS'slughorn '
p102
I1
sS'doubt '
p103
I1
sS'better '
p104
I3
sS'really '
p105
I3
sS'considerably '
p106
I1
sS'no '
p107
I4
sS'until '
p108
I1
sS'guess '
p109
I2
sS'fun '
p110
I2
sS'kind '
p111
I6
sS'duckie '
p112
I1
sS'early '
p113
I1
sS'telemarketers '
p114
I1
sS'likely '
p115
I13
sS'actually '
p116
I6
sS'quicker '
p117
I3
sS'like '
p118
I11
sS'hunt '
p119
I1
sS'appeared '
p120
I1
sS'kicking '
p121
I1
sS'before '
p122
I11
sS'rather '
p123
I61
sS'make '
p124
I1
sS'beenmore '
p125
I1
sS'prefer '
p126
I1
sS'is '
p127
I1
sS'try '
p128
I1
sS'much '
p129
I1
sS'so '
p130
I2
sS'playing '
p131
I1
sS'first '
p132
I2
sS'earlier '
p133
I8
sS'think '
p134
I2
sS'more '
p135
I263
sS'it '
p136
I3
sS'i '
p137
I4
sS'faster '
p138
I1
sS'bollocks '
p139
I1
sS'thumbs '
p140
I1
sS'neither '
p141
I1
sS'porch '
p142
I1
sS'maybe '
p143
I3
sS'pursuits '
p144
I2
sS'sort '
p145
I2
sS'delivering '
p146
I2
sS'sooner '
p147
I48
sS'as '
p148
I1
sS'not '
p149
I3
sS'quite '
p150
I1
sS'probably '
p151
I6
sS'way '
p152
I2
sS'closer '
p153
I6
stp154
a((lp155
S'ziemlich'
p156
aS'Ziemlich'
p157
a(dp158
S'heck '
p159
I1
sS'definitely '
p160
I2
sS'god\\u00a3\\u00acnice\\u00a3 '
p161
I1
sS'jules '
p162
I1
sS'pack '
p163
I1
sS'a '
p164
I8
sS'interesting '
p165
I1
sS'huge '
p166
I1
sS'almost '
p167
I10
sS'mighty '
p168
I1
sS'mean '
p169
I3
sS'extremely '
p170
I3
sS'kind '
p171
I75
sS'sort '
p172
I3
sS'actually '
p173
I2
sS'embarrassed '
p174
I1
sS'kinda '
p175
I16
sS"'t "
p176
I7
sS'sure '
p177
I1
sS'she '
p178
I1
sS'really '
p179
I110
sS'rather '
p180
I28
sS'aided '
p181
I1
sS'change '
p182
I1
sS'good '
p183
I1
sS'fairly '
p184
I26
sS'hell '
p185
I1
sS'himpretty '
p186
I1
sS'damn '
p187
I2
sS'pretty '
p188
I1153
sS'bars '
p189
I1
sS'an '
p190
I1
sS'dead '
p191
I1
sS'some '
p192
I5
sS'much '
p193
I3
sS'very '
p194
I99
sS'goofy '
p195
I2
sS'like '
p196
I3
sS'manson '
p197
I1
sS'enough '
p198
I2
sS'literally '
p199
I1
sS'little '
p200
I3
sS'bad '
p201
I1
sS'it '
p202
I2
sS'realily '
p203
I1
sS'about '
p204
I5
sS'relatively '
p205
I4
sS'whoa '
p206
I1
sS'plenty '
p207
I4
sS'i '
p208
I1
sS'pouring '
p209
I1
sS'sorts '
p210
I1
sS'daddy '
p211
I1
sS'so '
p212
I4
sS'way '
p213
I1
sS'- '
p214
I1
sS'doing '
p215
I1
sS'tons '
p216
I1
sS'real '
p217
I7
sS'all '
p218
I2
sS'bit '
p219
I15
sS'out '
p220
I1
sS'awful '
p221
I1
sS'close '
p222
I2
sS'not '
p223
I1
sS'whew '
p224
I1
sS'students '
p225
I1
sS'quite '
p226
I146
sS'totally '
p227
I2
sS'lot '
p228
I8
sS'yeah '
p229
I2
stp230
a((lp231
S'besser'
p232
aS'Besser'
p233
a(dp234
S'duct '
p235
I1
sS'better '
p236
I3479
sS'what '
p237
I1
sS'weed- '
p238
I1
sS'come '
p239
I1
sS'ok '
p240
I1
sS'trophy '
p241
I1
sS'disease '
p242
I1
sS'actually '
p243
I2
sS'wise '
p244
I1
sS'deal '
p245
I1
sS'relic '
p246
I1
sS'favors '
p247
I1
sS'bett '
p248
I1
sS'up '
p249
I2
sS'singing '
p250
I1
sS'applesauce '
p251
I1
sS'happier '
p252
I1
sS'smarter '
p253
I1
sS'lead '
p254
I1
sS'thank '
p255
I2
sS'fact '
p256
I3
sS'it '
p257
I4
sS'great '
p258
I1
sS'more '
p259
I51
sS'riding '
p260
I1
sS'sorry '
p261
I1
sS'expect '
p262
I1
sS'sense '
p263
I2
sS'help '
p264
I4
sS'bitbetter '
p265
I1
sS'talking '
p266
I3
sS'best '
p267
I69
sS'fine '
p268
I2
sS'want '
p269
I4
sS"'re "
p270
I1
sS'probably '
p271
I8
sS'stronger '
p272
I1
sS'getting '
p273
I6
sS'preferable '
p274
I3
sS'instead '
p275
I2
sS'should '
p276
I15
sS'improve '
p277
I1
sS'sake '
p278
I1
sS'suggest '
p279
I2
sS'beats '
p280
I15
sS'figure '
p281
I1
sS'youtube '
p282
I1
sS'that '
p283
I4
sS'rather '
p284
I12
sS'make '
p285
I1
sS'good '
p286
I15
sS'gettin '
p287
I1
sS'coming, '
p288
I1
sS'rest '
p289
I1
sS'time '
p290
I1
sS'scotchies '
p291
I1
sS'cured '
p292
I1
sS'might '
p293
I1
sS'think '
p294
I1
sS'say '
p295
I1
sS'ln '
p296
I1
sS'worse '
p297
I1
sS'go '
p298
I1
sS"'s "
p299
I2
sS'close '
p300
I1
sS'spirit '
p301
I1
sS'money '
p302
I1
sS'perfume '
p303
I1
sS'guess '
p304
I1
sS'appreciate '
p305
I1
sS'mmm '
p306
I1
sS'be '
p307
I17
sS'now '
p308
I3
sS'bigger '
p309
I2
sS'right '
p310
I12
sS'place '
p311
I2
sS'betterthis '
p312
I1
sS'squeeze '
p313
I1
sS'why '
p314
I1
sS'improvement '
p315
I4
sS'so '
p316
I1
sS'gardener '
p317
I1
sS'like '
p318
I1
sS'thats '
p319
I1
sS'you '
p320
I7
sS'don '
p321
I1
sS'beautiful '
p322
I2
sS'closer '
p323
I2
sS'easier '
p324
I6
sS'smart '
p325
I1
sS'would '
p326
I1
sS'mended '
p327
I1
sS'okay '
p328
I1
sS'and '
p329
I1
sS'nicer '
p330
I1
sS'get '
p331
I10
sS'whew '
p332
I1
sS'asking '
p333
I1
sS'better, '
p334
I3
sS'huh '
p335
I3
sS'season '
p336
I1
sS'sharper '
p337
I3
sS'over '
p338
I1
sS'mend '
p339
I1
sS'bet '
p340
I1
sS'shouldn '
p341
I4
sS'improving '
p342
I2
sS'well '
p343
I7
sS'stinky '
p344
I1
sS'playing '
p345
I1
sS'need '
p346
I2
sS'do '
p347
I1
sS'guessing '
p348
I1
sS'marshall '
p349
I1
sS'bad '
p350
I4
sS'beat '
p351
I2
sS'better- '
p352
I6
sS'move '
p353
I1
sS'i '
p354
I2
sS'heal '
p355
I1
sS'mild '
p356
I1
sS'crackling '
p357
I1
sS'different '
p358
I2
sS'improved '
p359
I3
sS'alone '
p360
I1
sS'betterthan '
p361
I2
sS'thing '
p362
I1
sS'park '
p363
I1
stp364
a((lp365
S'anstatt'
p366
aS'Anstatt'
p367
a(dp368
S'engaging '
p369
I1
sS'dena, '
p370
I1
sS'likeable '
p371
I2
sS'nana '
p372
I1
sS'instead '
p373
I208
sS'than '
p374
I2
sS'rather '
p375
I11
sS'naomi '
p376
I1
sS'not '
p377
I3
sS'messes '
p378
I1
sS'cocoa '
p379
I1
sS'opposed '
p380
I1
stp381
a((lp382
S'recht'
p383
aS'Recht'
p384
a(dp385
S'undercurrent '
p386
I1
sS'funeral '
p387
I1
sS'wise '
p388
I1
sS'silent '
p389
I1
sS'ok '
p390
I3
sS'shit '
p391
I1
sS'actually '
p392
I1
sS'lad '
p393
I1
sS'good '
p394
I6
sS'course '
p395
I1
sS'fair '
p396
I3
sS'hurting '
p397
I1
sS'something '
p398
I2
sS'really '
p399
I7
sS'with '
p400
I1
sS'mea '
p401
I2
sS'drama '
p402
I1
sS'toby '
p403
I1
sS'remus '
p404
I1
sS'rights '
p405
I14
sS'trotted '
p406
I1
sS'rightly '
p407
I1
sS'drawers '
p408
I1
sS'crying '
p409
I1
sS'it '
p410
I3
sS'about '
p411
I1
sS'more '
p412
I3
sS'tradition '
p413
I1
sS'cash '
p414
I1
sS'whatever '
p415
I2
sS'justice '
p416
I6
sS'guarantee '
p417
I1
sS'talking '
p418
I1
sS'fine '
p419
I12
sS'seven '
p420
I1
sS'euro '
p421
I1
sS'kinda '
p422
I2
sS'acorns '
p423
I1
sS'message '
p424
I1
sS'saint '
p425
I1
sS'certainly '
p426
I6
sS'correct '
p427
I15
sS'safe '
p428
I1
sS'absolutely '
p429
I1
sS'straight '
p430
I3
sS'allowed '
p431
I2
sS'should '
p432
I3
sS'mm '
p433
I1
sS'vanished '
p434
I1
sS'blinged '
p435
I1
sS'that '
p436
I3
sS'rather '
p437
I8
sS'yes '
p438
I1
sS'man '
p439
I1
sS'pretty '
p440
I43
sS'bless '
p441
I1
sS'is '
p442
I1
sS'time '
p443
I1
sS'mind '
p444
I1
sS'uncomfortable '
p445
I6
sS'crushed '
p446
I1
sS'dancing '
p447
I2
sS'entitled '
p448
I5
sS'ou '
p449
I1
sS'exactly '
p450
I2
sS'kindly '
p451
I1
sS'fresh '
p452
I1
sS'say '
p453
I2
sS'suits '
p454
I1
sS'send '
p455
I1
sS'point '
p456
I30
sS'emily '
p457
I1
sS'floats '
p458
I1
sS'keith '
p459
I1
sS'macpherson '
p460
I1
sS'apologize '
p461
I1
sS'justified '
p462
I2
sS'vaginal '
p463
I1
sS'stop '
p464
I1
sS'rightto '
p465
I1
sS'too '
p466
I4
sS'dirt '
p467
I1
sS'true '
p468
I7
sS'sense '
p469
I1
sS'incorrect '
p470
I1
sS'guess '
p471
I2
sS'fun '
p472
I1
sS'know '
p473
I1
sS'forgetting '
p474
I1
sS'non- '
p475
I1
sS'right, '
p476
I13
sS'serves '
p477
I2
sS'lots '
p478
I1
sS'idea '
p479
I1
sS'be '
p480
I1
sS'there '
p481
I1
sS'splendid '
p482
I1
sS'power '
p483
I1
sS'sure '
p484
I4
sS'fairly '
p485
I5
sS'right '
p486
I2440
sS'adorable '
p487
I1
sS'stubbornness '
p488
I1
sS'sixth '
p489
I1
sS'monsieur '
p490
I1
sS'like '
p491
I2
sS'din '
p492
I1
sS'olivia '
p493
I1
sS'what '
p494
I1
sS'reason '
p495
I11
sS'ballsto '
p496
I1
sS'oikeassa '
p497
I1
sS'wrong '
p498
I5
sS'okay '
p499
I12
sS'yeah '
p500
I5
sS'rig '
p501
I1
sS'notice '
p502
I1
sS'flakier '
p503
I1
sS'satisfy '
p504
I2
sS'pleasing '
p505
I1
sS'jealous '
p506
I1
sS'take '
p507
I2
sS'eyes '
p508
I1
sS'ya '
p509
I1
sS'authority '
p510
I1
sS'use '
p511
I1
sS'huh '
p512
I1
sS'sir '
p513
I2
sS'go '
p514
I1
sS'said '
p515
I1
sS'alright '
p516
I2
sS'kind '
p517
I2
sS'measure '
p518
I1
sS'settled '
p519
I1
sS'key '
p520
I1
sS"'t "
p521
I9
sS'useful '
p522
I1
sS'scarier '
p523
I1
sS'thank '
p524
I1
sS'boyfriend '
p525
I1
sS'i. '
p526
I2
sS'do '
p527
I4
sS'law '
p528
I23
sS'liking '
p529
I1
sS's '
p530
I1
sS'reach '
p531
I1
sS'4 '
p532
I1
sS'upright '
p533
I1
sS'very '
p534
I4
sS'business '
p535
I1
sS'walk '
p536
I1
sS'can '
p537
I1
sS'protect '
p538
I1
sS'story '
p539
I1
sS'indeed '
p540
I7
sS'listen '
p541
I1
sS'strapless '
p542
I1
sS'quite '
p543
I25
sS'simon '
p544
I1
sS'agree '
p545
I11
sS'correctly '
p546
I2
sS'been '
p547
I1
sS'stealer '
p548
I1
sS'mostly '
p549
I1
sS'click '
p550
I1
sS'alone '
p551
I1
sS'saying '
p552
I1
sS'cool '
p553
I1
sS'not '
p554
I5
sS'humanity '
p555
I1
sS'privilege '
p556
I1
sS'trial '
p557
I1
sS'officer '
p558
I1
sS'????????? '
p559
I1
stp560
a((lp561
S'rather'
p562
aS'Rather'
p563
a(dp564
S'rather '
p565
I6
stp566
a((lp567
S'gern'
p568
aS'Gern'
p569
a(dp570
S'stay '
p571
I1
sS'happy '
p572
I16
sS'no '
p573
I5
sS'would '
p574
I2
sS'dit '
p575
I1
sS'this, '
p576
I1
sS'loretta '
p577
I1
sS'course '
p578
I1
sS'iike '
p579
I2
sS'pleasure '
p580
I4
sS'thank '
p581
I4
sS'welcome '
p582
I12
sS'about '
p583
I1
sS'please '
p584
I4
sS'anything '
p585
I2
sS'all '
p586
I1
sS'shovel '
p587
I1
sS'badly '
p588
I2
sS'fine '
p589
I1
sS'have '
p590
I2
sS'ending '
p591
I1
sS'any '
p592
I1
sS'fun '
p593
I2
sS'quit '
p594
I1
sS'sheldon '
p595
I1
sS"'ll "
p596
I3
sS'rolls '
p597
I1
sS'mention '
p598
I1
sS'glad '
p599
I5
sS'rather '
p600
I6
sS'yes '
p601
I3
sS'mind '
p602
I6
sS'oblige '
p603
I1
sS'thanks '
p604
I5
sS'perhaps '
p605
I1
sS'enjoyed '
p606
I2
sS'enjoy '
p607
I4
sS'yep '
p608
I2
sS'forget '
p609
I1
sS'liked '
p610
I18
sS'cared '
p611
I1
sS'loved '
p612
I6
sS'wanna '
p613
I8
sS'want '
p614
I34
sS'worries '
p615
I1
sS'likes '
p616
I25
sS'appreciate '
p617
I1
sS'not '
p618
I1
sS'love '
p619
I93
sS'clever '
p620
I1
sS'wants '
p621
I2
sS'dork '
p622
I1
sS'brought '
p623
I1
sS'minute '
p624
I1
sS'sure '
p625
I23
sS'right '
p626
I2
sS'loves '
p627
I1
sS'much '
p628
I13
sS'chuckles '
p629
I1
sS'like '
p630
I411
sS'gern '
p631
I1
sS'... '
p632
I1
sS'okay '
p633
I2
sS'certainly '
p634
I1
sS'miss '
p635
I1
sS'hoping '
p636
I2
sS'care '
p637
I12
sS'take '
p638
I1
sS'waiting '
p639
I1
sS'to '
p640
I34
sS'interested '
p641
I1
sS"'d "
p642
I10
sS'wait, '
p643
I1
sS'p- '
p644
I1
sS'well '
p645
I1
sS'problem '
p646
I4
sS'wish '
p647
I22
sS'do '
p648
I6
sS'prefer '
p649
I1
sS'tempted '
p650
I2
sS'can '
p651
I4
sS'fond '
p652
I13
sS'looking '
p653
I1
sS'tell '
p654
I1
sS'anytime '
p655
I1
sS'nice '
p656
I1
sS'fundamentally '
p657
I1
sS'i '
p658
I2
sS'get '
p659
I1
sS'wanted '
p660
I2
sS'need '
p661
I9
sS'something '
p662
I1
sS'gladly '
p663
I7
sS'yeah '
p664
I4
stp665
a((lp666
S'statt'
p667
aS'Statt'
p668
a(dp669
S'happening '
p670
I5
sS'occur '
p671
I1
sS'rules '
p672
I1
sS'on '
p673
I4
sS'rather '
p674
I6
sS'spend '
p675
I1
sS'over '
p676
I1
sS'replace '
p677
I1
sS'instead '
p678
I94
sS'happen '
p679
I1
sS'place '
p680
I9
sS'lnstead '
p681
I1
sS'down '
p682
I7
sS'held '
p683
I2
sS'were '
p684
I1
sS'than '
p685
I1
sS'not '
p686
I3
stp687
a((lp688
S'vielmehr'
p689
aS'Vielmehr'
p690
a(dp691
S'much '
p692
I3
sS'of '
p693
I1
sS'did '
p694
I1
sS'fact '
p695
I6
sS'rather '
p696
I5
sS'smile '
p697
I1
sS'more '
p698
I3
sS'duls '
p699
I1
sS'or '
p700
I2
stp701
a((lp702
S'sehr'
p703
aS'Sehr'
p704
a(dp705
S'happy '
p706
I2
sS'am '
p707
I2
sS'sehr '
p708
I1
sS'mighty '
p709
I3
sS'kill '
p710
I1
sS'dyed '
p711
I1
sS'actually '
p712
I1
sS'perfect '
p713
I3
sS'many '
p714
I1
sS'really '
p715
I369
sS'absolutely '
p716
I1
sS'terrified '
p717
I1
sS'particularly '
p718
I1
sS'|| '
p719
I1
sS'perfectly '
p720
I6
sS'much, '
p721
I1
sS'sirk '
p722
I1
sS'seat '
p723
I1
sS'look '
p724
I3
sS'welcome '
p725
I1
sS'it '
p726
I12
sS'great '
p727
I18
sS'more '
p728
I2
sS'opens '
p729
I1
sS'please '
p730
I1
sS'mm- '
p731
I2
sS'- '
p732
I7
sS'all '
p733
I21
sS'badly '
p734
I21
sS'fine '
p735
I2
sS'awful '
p736
I2
sS'crazy '
p737
I1
sS'reaily '
p738
I2
sS'debbie '
p739
I1
sS'done '
p740
I1
sS'me '
p741
I1
sS'very '
p742
I4641
sS'testing '
p743
I1
sS'missed '
p744
I2
sS'extremely '
p745
I35
sS'presto '
p746
I1
sS'most '
p747
I36
sS'vey '
p748
I9
sS'uncool '
p749
I1
sS'that '
p750
I46
sS'rather '
p751
I5
sS'yes '
p752
I8
sS'good '
p753
I6
sS'pretty '
p754
I143
sS'she '
p755
I1
sS'brilliant '
p756
I1
sS'interesting '
p757
I2
sS'truly '
p758
I2
sS'flashlight '
p759
I1
sS'maybe '
p760
I1
sS'fonzie '
p761
I1
sS'enjoy '
p762
I1
sS'super '
p763
I5
sS"'s "
p764
I6
sS'close '
p765
I2
sS'absolute '
p766
I1
sS'lot '
p767
I94
sS'stand '
p768
I1
sS'quite '
p769
I76
sS'nasty '
p770
I1
sS'yourself '
p771
I1
sS'be '
p772
I1
sS'terribly '
p773
I12
sS'boss '
p774
I2
sS'attached '
p775
I1
sS'too '
p776
I47
sS'that\\u2019 '
p777
I1
sS"'rn "
p778
I1
sS'i '
p779
I8
sS'together '
p780
I1
sS'long '
p781
I1
sS'always '
p782
I2
sS'room '
p783
I1
sS'awfully '
p784
I5
sS'deep '
p785
I1
sS'much '
p786
I679
sS'so '
p787
I118
sS'sir '
p788
I2
sS'guest '
p789
I1
sS'hard '
p790
I51
sS'$40 '
p791
I1
sS'on '
p792
I1
sS'you '
p793
I33
sS'plenty '
p794
I3
sS'enough '
p795
I2
sS'clearly '
p796
I1
sS'angry '
p797
I1
sS'alot '
p798
I1
sS'are '
p799
I13
sS'muy '
p800
I2
sS'incredibly '
p801
I5
sS'big '
p802
I5
sS'highly '
p803
I1
sS'very, '
p804
I10
sS'far '
p805
I5
sS'exercise '
p806
I1
sS'go '
p807
I66
sS'greatly '
p808
I8
sS'kind '
p809
I9
sS'well '
p810
I6
sS'comfortable '
p811
I2
sS'like '
p812
I2
sS', '
p813
I1
sS'donkey '
p814
I1
sS'such '
p815
I2
sS'howie '
p816
I1
sS'excellent '
p817
I18
sS'how '
p818
I13
sS'damn '
p819
I2
sS'bad '
p820
I18
sS'does '
p821
I1
sS'a '
p822
I88
sS'an '
p823
I1
sS'singsongy '
p824
I1
sS'indeed '
p825
I1
sS'oh '
p826
I5
sS'awesome '
p827
I1
sS'ahead '
p828
I8
sS'nice '
p829
I10
sS'heh- '
p830
I1
sS'see '
p831
I1
sS'my '
p832
I2
sS'been '
p833
I6
sS'in '
p834
I1
sS'goody '
p835
I1
sS'way '
p836
I6
sS'real '
p837
I78
sS'deeply '
p838
I12
sS'aah '
p839
I1
sS'wanted '
p840
I1
sS'not '
p841
I1
sS'beautifully '
p842
I1
sS'still '
p843
I1
sS'suspense '
p844
I1
stp845
a((lp846
S'bevorzuge'
p847
aS'Bevorzuge'
p848
a(dp849
S'favour '
p850
I1
sS'oui '
p851
I1
sS'rather '
p852
I4
sS'giving '
p853
I2
sS'prefer '
p854
I65
sS'favor '
p855
I3
stp856
a((lp857
S'eigentlich'
p858
aS'Eigentlich'
p859
a(dp860
S'definitely '
p861
I1
sS'matter '
p862
I2
sS'going '
p863
I3
sS'offensive '
p864
I1
sS'only '
p865
I1
sS'originally '
p866
I4
sS'no '
p867
I1
sS'ever '
p868
I3
sS'technically '
p869
I41
sS'mean '
p870
I1
sS'actually '
p871
I1170
sS'anyways '
p872
I3
sS'deal '
p873
I2
sS'meant '
p874
I2
sS'then '
p875
I3
sS'really '
p876
I141
sS'true '
p877
I1
sS'up '
p878
I4
sS'although '
p879
I2
sS'rimming '
p880
I1
sS'faulkner '
p881
I1
sS'for '
p882
I1
sS'teknisesti '
p883
I1
sS'allyactu, '
p884
I1
sS'fact '
p885
I42
sS'it '
p886
I7
sS'almost '
p887
I1
sS'hmm '
p888
I1
sS'about '
p889
I8
sS'god '
p890
I1
sS'mm- '
p891
I1
sS'pancho '
p892
I1
sS'blocked '
p893
I1
sS'- '
p894
I1
sS'all '
p895
I1
sS'nor '
p896
I3
sS'realy '
p897
I1
sS'by '
p898
I2
sS'me '
p899
I1
sS'leaving '
p900
I1
sS'usually '
p901
I10
sS'jump '
p902
I1
sS'matthews '
p903
I1
sS'should '
p904
I1
sS'trebek '
p905
I1
sS'actually, '
p906
I41
sS'just '
p907
I1
sS'want '
p908
I1
sS'that '
p909
I1
sS'rather '
p910
I4
sS'pretty '
p911
I2
sS'is '
p912
I2
sS'acutally '
p913
I2
sS'doing '
p914
I4
sS'actally '
p915
I1
sS'anyway '
p916
I41
sS'guess '
p917
I2
sS'even '
p918
I17
sS'exactly '
p919
I19
sS'694th '
p920
I1
sS'think '
p921
I2
sS'segments '
p922
I1
sS'essentially '
p923
I6
sS'correlation '
p924
I1
sS'phone '
p925
I2
sS'honest '
p926
I1
sS'honestly '
p927
I2
sS'days '
p928
I1
sS'reahhy '
p929
I1
sS'practically '
p930
I1
sS'frankly '
p931
I2
sS'normally '
p932
I4
sS'actual '
p933
I4
sS'sleeve '
p934
I3
sS'616 '
p935
I1
sS'anymore '
p936
I1
sS'smoked '
p937
I1
sS'have '
p938
I2
sS'dylan '
p939
I1
sS'know '
p940
I6
sS'i '
p941
I16
sS'anywhere '
p942
I2
sS'always '
p943
I1
sS'hey '
p944
I2
sS'place '
p945
I3
sS'laughs '
p946
I1
sS'were '
p947
I1
sS'basically '
p948
I9
sS'much '
p949
I1
sS'so '
p950
I3
sS'shouldn '
p951
I1
sS'like '
p952
I5
sS'jay '
p953
I1
sS'on '
p954
I1
sS'ooh '
p955
I1
sS'you '
p956
I3
sS'hands '
p957
I1
sS'off '
p958
I1
sS'what '
p959
I1
sS'ollie '
p960
I1
sS'ordinarily '
p961
I1
sS'fact, '
p962
I5
sS'this '
p963
I2
sS'bother '
p964
I2
sS'are '
p965
I4
sS'wait '
p966
I1
sS'nothing '
p967
I1
sS'truth '
p968
I4
sS'who '
p969
I3
sS'relation '
p970
I1
sS'actuaily '
p971
I2
sS'person '
p972
I1
sS'yeah, '
p973
I1
sS'name, '
p974
I1
sS'thought '
p975
I1
sS'kind '
p976
I11
sS'well, '
p977
I3
sS'well '
p978
I11
sS'supposed '
p979
I32
sS'carollne '
p980
I1
sS'though '
p981
I2
sS'conclusions '
p982
I1
sS'do '
p983
I8
sS'guys '
p984
I1
sS'understand '
p985
I1
sS"'cause "
p986
I1
sS'teachers '
p987
I1
sS'came '
p988
I2
sS'grown- '
p989
I1
sS'literally '
p990
I1
sS'never '
p991
I1
sS'reluctance '
p992
I1
sS'people '
p993
I2
sS'mostly '
p994
I5
sS'not '
p995
I3
sS'any '
p996
I1
sS'idea '
p997
I2
stp998
a((lp999
S'auch'
p1000
aS'Auch'
p1001
a(dp1002
S'one '
p1003
I23
sS'feel '
p1004
I5
sS'matter '
p1005
I25
sS'better '
p1006
I4
sS'hope '
p1007
I1
sS'am '
p1008
I11
sS'sometimes '
p1009
I2
sS'ever '
p1010
I6
sS'come '
p1011
I1
sS'sweet '
p1012
I1
sS'luck '
p1013
I1
sS'lncluding '
p1014
I1
sS'included '
p1015
I2
sS'rest '
p1016
I1
sS'yes '
p1017
I1
sS'actually '
p1018
I9
sS'may '
p1019
I15
sS'course '
p1020
I3
sS'same '
p1021
I110
sS'did '
p1022
I36
sS'work '
p1023
I1
sS'then '
p1024
I5
sS'hav- '
p1025
I1
sS'really '
p1026
I5
sS'with '
p1027
I12
sS'up '
p1028
I2
sS'contrary '
p1029
I1
sS'seen '
p1030
I1
sS'although '
p1031
I5
sS'mother '
p1032
I2
sS"'ve "
p1033
I1
sS'try '
p1034
I1
sS'either '
p1035
I529
sS'belong '
p1036
I1
sS'for '
p1037
I12
sS'isn '
p1038
I1
sS'otherwise '
p1039
I1
sS'thinking '
p1040
I2
sS'includes '
p1041
I1
sS'it '
p1042
I20
sS'spying '
p1043
I1
sS'kids '
p1044
I1
sS'about '
p1045
I33
sS'please '
p1046
I1
sS'unpredictable '
p1047
I3
sS'the '
p1048
I2
sS'weil '
p1049
I1
sS'partly '
p1050
I5
sS'cing '
p1051
I1
sS'whatever '
p1052
I1
sS'next '
p1053
I1
sS'l '
p1054
I5
sS'all '
p1055
I21
sS'had '
p1056
I3
sS'yeah '
p1057
I1
sS'fine '
p1058
I5
sS'than '
p1059
I2
sS'including '
p1060
I27
sS'nor '
p1061
I35
sS"'re "
p1062
I20
sS'them '
p1063
I3
sS'also '
p1064
I1259
sS'join '
p1065
I3
sS'any '
p1066
I8
sS'done '
p1067
I1
sS'regardless '
p1068
I1
sS'anything '
p1069
I3
sS'else '
p1070
I4
sS'very '
p1071
I1
sS'lasers '
p1072
I1
sS'got '
p1073
I12
sS'be, '
p1074
I1
sS'has '
p1075
I3
sS'worth '
p1076
I1
sS'too, '
p1077
I16
sS"'ll "
p1078
I7
sS'as '
p1079
I262
sS'bargain '
p1080
I1
sS'besides '
p1081
I2
sS'i. '
p1082
I6
sS'or '
p1083
I13
sS'hormone- '
p1084
I2
sS'just '
p1085
I14
sS'she '
p1086
I1
sS'at '
p1087
I5
sS'want '
p1088
I7
sS'could '
p1089
I7
sS'that '
p1090
I19
sS'rather '
p1091
I3
sS'make '
p1092
I5
sS'good '
p1093
I7
sS'sounds '
p1094
I2
sS'pretty '
p1095
I2
sS'ain '
p1096
I2
sS'start '
p1097
I2
sS'is '
p1098
I28
sS'time '
p1099
I1
sS'both '
p1100
I2
sS'sarcastic '
p1101
I1
sS'anyway '
p1102
I6
sS'guess '
p1103
I1
sS'even '
p1104
I543
sS'involved '
p1105
I4
sS'exactly '
p1106
I1
sS'might '
p1107
I9
sS'think '
p1108
I4
sS'say '
p1109
I5
sS'despite '
p1110
I2
sS'aha '
p1111
I1
sS'probably '
p1112
I6
sS'therefore '
p1113
I1
sS'his '
p1114
I1
sS'stac- '
p1115
I1
sS'likewise '
p1116
I1
sS'go '
p1117
I3
sS'forget '
p1118
I1
sS'seh '
p1119
I1
sS"'s "
p1120
I47
sS'however '
p1121
I1
sS'lot '
p1122
I4
sS'yourself '
p1123
I4
sS'be '
p1124
I60
sS'but '
p1125
I18
sS'boss '
p1126
I1
sS'rub '
p1127
I1
sS'too '
p1128
I4075
sS'happens '
p1129
I1
sS'now '
p1130
I3
sS"'not "
p1131
I1
sS'myself '
p1132
I15
sS'anyime '
p1133
I1
sS'whole '
p1134
I1
sS'true '
p1135
I1
sS'have '
p1136
I79
sS'manufacturer '
p1137
I1
sS'every '
p1138
I2
sS'know '
p1139
I16
sS'my '
p1140
I1
sS'wonder '
p1141
I1
sS'used '
p1142
I1
sS'own '
p1143
I2
sS'love '
p1144
I8
sS'. '
p1145
I3
sS'wasn '
p1146
I3
sS'always '
p1147
I7
sS'there '
p1148
I13
sS'sure '
p1149
I10
sS'easy '
p1150
I1
sS'right '
p1151
I5
sS'won '
p1152
I2
sS'believe '
p1153
I1
sS'much '
p1154
I2
sS'so '
p1155
I149
sS'like '
p1156
I14
sS'miss '
p1157
I6
sS'on '
p1158
I2
sS'bong '
p1159
I1
sS'you '
p1160
I20
sS'noticed '
p1161
I1
sS'don '
p1162
I9
sS'doesn '
p1163
I3
sS'they '
p1164
I3
sS'goes '
p1165
I1
sS'what '
p1166
I1
sS'would '
p1167
I9
sS'was '
p1168
I17
sS'another '
p1169
I4
sS'dude '
p1170
I3
sS'neither '
p1171
I237
sS'are '
p1172
I23
sS'were '
p1173
I7
sS'certainly '
p1174
I8
sS'and '
p1175
I41
sS'bit '
p1176
I1
sS'nothing '
p1177
I3
sS'take '
p1178
I1
sS'apparently '
p1179
I1
sS'will '
p1180
I27
sS'to '
p1181
I35
sS'toome '
p1182
I1
sS'didn '
p1183
I2
sS'newton '
p1184
I1
sS'figured '
p1185
I1
sS'wherever '
p1186
I1
sS'gonna '
p1187
I13
sS'huh '
p1188
I2
sS'thought '
p1189
I1
sS"'d "
p1190
I1
sS'coming '
p1191
I2
sS"'io "
p1192
I1
sS'chuckling '
p1193
I1
sS'half '
p1194
I1
sS'well '
p1195
I28
sS'drunk '
p1196
I1
sS'out '
p1197
I1
sS'of '
p1198
I3
sS'though '
p1199
I6
sS'especially '
p1200
I1
sS'foryou '
p1201
I1
sS'areas '
p1202
I1
sS'should '
p1203
I10
sS'do '
p1204
I79
sS"'m "
p1205
I14
sS'way '
p1206
I9
sS'penny, '
p1207
I1
sS'bad '
p1208
I1
sS'havin '
p1209
I1
sS'cam '
p1210
I1
sS'some '
p1211
I23
sS'does '
p1212
I16
sS'a '
p1213
I25
sS'an '
p1214
I4
sS'can '
p1215
I22
sS'again '
p1216
I6
sS'back '
p1217
I6
sS'strapless '
p1218
I1
sS'yours '
p1219
I2
sS"'t "
p1220
I2
sS'caught '
p1221
I1
sS'agree '
p1222
I14
sS'see '
p1223
I1
sS'i '
p1224
I4
sS'been '
p1225
I2
sS'in '
p1226
I2
sS'being '
p1227
I3
sS'part '
p1228
I2
sS'fault '
p1229
I1
sS'here '
p1230
I4
sS', '
p1231
I14
sS'knows '
p1232
I1
sS'get '
p1233
I2
sS'shuts '
p1234
I1
sS'share '
p1235
I2
sS'night '
p1236
I1
sS'virginity '
p1237
I2
sS'great '
p1238
I4
sS'not '
p1239
I23
sS'still '
p1240
I21
sS'yet '
p1241
I1
stp1242
a((lp1243
S'vorziehe'
p1244
aS'Vorziehe'
p1245
a(dp1246
S'prefer '
p1247
I2
sS'rather '
p1248
I3
stp1249
a((lp1250
S'schon'
p1251
aS'Schon'
p1252
a(dp1253
S'one '
p1254
I9
sS'aii '
p1255
I1
sS'matter '
p1256
I9
sS'waiting '
p1257
I2
sS'going '
p1258
I17
sS'better '
p1259
I3
sS'only '
p1260
I2
sS'afraid '
p1261
I1
sS'am '
p1262
I18
sS'no '
p1263
I18
sS'ever '
p1264
I48
sS'chuckles '
p1265
I1
sS'the '
p1266
I2
sS'ok '
p1267
I11
sS'covered '
p1268
I2
sS'hey '
p1269
I2
sS'prefab '
p1270
I2
sS'hyped '
p1271
I2
sS'down '
p1272
I5
sS'nevermind '
p1273
I1
sS'mom '
p1274
I2
sS'actually '
p1275
I4
sS'rather '
p1276
I3
sS'beckett '
p1277
I1
sS'leh '
p1278
I1
sS'good '
p1279
I6
sS'cheesecake '
p1280
I1
sS'another '
p1281
I1
sS'already '
p1282
I1615
sS'did '
p1283
I55
sS'paste '
p1284
I1
sS'work '
p1285
I5
sS'something '
p1286
I3
sS'then '
p1287
I2
sS'really '
p1288
I3
sS'true '
p1289
I2
sS'up '
p1290
I16
sS'run '
p1291
I1
sS'seen '
p1292
I5
sS"'mon "
p1293
I17
sS'cheesy '
p1294
I1
sS'dead '
p1295
I1
sS'perfectly '
p1296
I1
sS'post '
p1297
I1
sS'manage '
p1298
I4
sS'cooper '
p1299
I1
sS'myself '
p1300
I1
sS'cut '
p1301
I1
sS'solution '
p1302
I2
sS'talk '
p1303
I1
sS'earlier '
p1304
I1
sS'it '
p1305
I677
sS'almost '
p1306
I7
sS'jordan '
p1307
I2
sS'childproofing '
p1308
I1
sS'about '
p1309
I3
sS'more '
p1310
I3
sS'classed '
p1311
I1
sS'save '
p1312
I4
sS'please '
p1313
I1
sS'sorry '
p1314
I4
sS'four '
p1315
I1
sS'suppose '
p1316
I1
sS'macs '
p1317
I1
sS"'ve "
p1318
I75
sS'whatever '
p1319
I1
sS'- '
p1320
I1
sS'all '
p1321
I266
sS'had '
p1322
I16
sS'oh '
p1323
I2
sS'fine '
p1324
I122
sS'any '
p1325
I5
sS'say '
p1326
I1
sS'partner '
p1327
I1
sS'have '
p1328
I43
sS"'re "
p1329
I5
sS've '
p1330
I4
sS'them '
p1331
I3
sS'short '
p1332
I1
sS'probably '
p1333
I6
sS'teach '
p1334
I1
sS'gaza '
p1335
I1
sS'soon '
p1336
I16
sS'shh '
p1337
I1
sS'appointment '
p1338
I4
sS'none '
p1339
I4
sS'me '
p1340
I23
sS'very '
p1341
I1
sS'getting '
p1342
I10
sS'got '
p1343
I10
sS'her '
p1344
I1
sS'has '
p1345
I5
sS'jo '
p1346
I1
sS"'ll "
p1347
I13
sS'goodness '
p1348
I1
sS'once '
p1349
I4
sS'having '
p1350
I1
sS'early '
p1351
I5
sS'by '
p1352
I4
sS'knew '
p1353
I1
sS'cinch '
p1354
I2
sS'gettin '
p1355
I1
sS'emplacements '
p1356
I1
sS'just '
p1357
I29
sS'she '
p1358
I5
sS'at '
p1359
I2
sS'laurie '
p1360
I1
sS'dig '
p1361
I1
sS'mention '
p1362
I2
sS'could '
p1363
I3
sS'before '
p1364
I167
sS'come '
p1365
I14
sS'find '
p1366
I1
sS'yes '
p1367
I14
sS'man '
p1368
I4
sS'move '
p1369
I3
sS"'em "
p1370
I1
sS'understood '
p1371
I1
sS'pretty '
p1372
I8
sS'goin '
p1373
I1
sS'start '
p1374
I4
sS'is '
p1375
I34
sS'time '
p1376
I3
sS'funny '
p1377
I1
sS'him '
p1378
I4
sS'doing '
p1379
I6
sS'thorpe '
p1380
I1
sS'anyway '
p1381
I2
sS'forever '
p1382
I2
sS'neodelchewaegeurae '
p1383
I1
sS'even '
p1384
I27
sS'leela '
p1385
I1
sS'after '
p1386
I1
sS'think '
p1387
I3
sS'rudi '
p1388
I1
sS'lovely '
p1389
I1
sS'taken '
p1390
I2
sS'fresh '
p1391
I1
sS'nothings '
p1392
I1
sS'told '
p1393
I1
sS'interview '
p1394
I1
sS'to '
p1395
I1
sS'tra '
p1396
I1
sS'maybe '
p1397
I1
sS'noodlebaum '
p1398
I1
sS'talked '
p1399
I3
sS"'dicksicle "
p1400
I1
sS'murdered '
p1401
I1
sS'go '
p1402
I82
sS'forget '
p1403
I4
sS'out '
p1404
I15
sS"'s "
p1405
I103
sS'happen '
p1406
I2
sS'starting '
p1407
I3
sS'forgive '
p1408
I1
sS'quite '
p1409
I24
sS'way '
p1410
I7
sS'always '
p1411
I5
sS'mine '
p1412
I2
sS'hear '
p1413
I4
sS'! '
p1414
I3
sS'but '
p1415
I1
sS'gracias '
p1416
I1
sS'anyone '
p1417
I2
sS'too '
p1418
I2
sS'innit '
p1419
I1
sS'there '
p1420
I1
sS'for '
p1421
I14
sS'headband '
p1422
I1
sS'shoulder '
p1423
I1
sS'guess '
p1424
I4
sS'takes '
p1425
I1
sS'done '
p1426
I25
sS'know '
p1427
I43
sS'difference '
p1428
I1
sS'else '
p1429
I2
sS'fit '
p1430
I1
sS'roommates '
p1431
I1
sS'nah '
p1432
I1
sS'long '
p1433
I5
sS'ready '
p1434
I2
sS'be '
p1435
I32
sS'on, '
p1436
I86
sS'now '
p1437
I66
sS'ringing '
p1438
I1
sS'sure '
p1439
I11
sS'baby '
p1440
I1
sS'home '
p1441
I1
sS'easy '
p1442
I1
sS'right '
p1443
I37
sS'hearda '
p1444
I1
sS'again '
p1445
I4
sS'enough '
p1446
I4
sS'were '
p1447
I3
sS'eventually '
p1448
I3
sS'so '
p1449
I114
sS'ah '
p1450
I1
sS'working '
p1451
I1
sS'from '
p1452
I4
sS'that '
p1453
I71
sS'on '
p1454
I1384
sS'tuck '
p1455
I1
sS'you '
p1456
I29
sS'last '
p1457
I1
sS'don '
p1458
I1
sS'beautiful '
p1459
I1
sS'alrey '
p1460
I1
sS'what '
p1461
I4
sS'would '
p1462
I2
sS'was '
p1463
I16
sS'scissors '
p1464
I1
sS'guy '
p1465
I1
sS'axe '
p1466
I1
sS'handle '
p1467
I1
sS'possibly '
p1468
I7
sS'okay '
p1469
I40
sS'are '
p1470
I13
sS'us '
p1471
I5
sS'would, '
p1472
I1
sS"'d "
p1473
I1
sS'burning '
p1474
I1
sS'gelato '
p1475
I1
sS'bit '
p1476
I1
sS'known '
p1477
I6
sS'comin '
p1478
I2
sS'experienced '
p1479
I2
sS'nothing '
p1480
I3
sS'head '
p1481
I1
sS'will '
p1482
I9
sS'bbeen '
p1483
I1
sS'yep '
p1484
I1
sS'alright '
p1485
I5
sS'vibrating '
p1486
I1
sS'gonna '
p1487
I14
sS'back '
p1488
I3
sS'elocuted '
p1489
I1
sS"' "
p1490
I2
sS'lame '
p1491
I1
sS'thought '
p1492
I1
sS'over '
p1493
I2
sS'said '
p1494
I4
sS'coming '
p1495
I5
sS'beginning '
p1496
I5
sS'kind '
p1497
I7
sS'quick '
p1498
I1
sS'heard '
p1499
I2
sS'well '
p1500
I7
sS'walked '
p1501
I2
sS'point '
p1502
I2
sS'mushrooms '
p1503
I1
sS'b& '
p1504
I1
sS'though '
p1505
I2
sS'like '
p1506
I1
sS', '
p1507
I10
sS"'t "
p1508
I4
sS'do '
p1509
I118
sS"'m "
p1510
I4
sS'since '
p1511
I9
sS'around '
p1512
I3
sS'worry '
p1513
I7
sS'late '
p1514
I1
sS'hurry '
p1515
I1
sS'some '
p1516
I5
sS'allan '
p1517
I1
sS'not '
p1518
I2
sS'does '
p1519
I22
sS'a '
p1520
I30
sS'an '
p1521
I1
sS'lee '
p1522
I1
sS'can '
p1523
I33
sS'sec '
p1524
I2
sS'horse '
p1525
I1
sS'happened '
p1526
I1
sS'talley '
p1527
I1
sS'never '
p1528
I24
sS'tell '
p1529
I1
sS'moving '
p1530
I4
sS'ahead '
p1531
I62
sS'nice '
p1532
I10
sS'al '
p1533
I3
sS'proceeds '
p1534
I1
sS'see '
p1535
I2
sS'i '
p1536
I39
sS'been '
p1537
I798
sS'in '
p1538
I4
sS'bollocks '
p1539
I1
sS'hey, '
p1540
I1
sS'scrub '
p1541
I1
sS'have, '
p1542
I1
sS'here '
p1543
I9
sS'deal '
p1544
I6
sS'get '
p1545
I6
sS'gone '
p1546
I6
sS'need '
p1547
I1
sS'cool '
p1548
I1
sS'yet '
p1549
I180
sS'calm '
p1550
I2
sS'hold '
p1551
I1
sS'thing '
p1552
I1
sS'lump '
p1553
I1
sS'still '
p1554
I2
sS'kiwe '
p1555
I2
sS'yeah '
p1556
I23
stp1557
a((lp1558
S'iieber'
p1559
aS'Iieber'
p1560
a(dp1561
S'better '
p1562
I2
sS'rather '
p1563
I3
sS'think '
p1564
I1
sS'timeframe '
p1565
I1
sS'dear '
p1566
I1
sS'prefer '
p1567
I1
sS'pass '
p1568
I1
stp1569
a((lp1570
S'ganz'
p1571
aS'Ganz'
p1572
a(dp1573
S'definitely '
p1574
I1
sS'aii '
p1575
I1
sS'bottom '
p1576
I2
sS'no '
p1577
I17
sS'chip '
p1578
I2
sS'mighty '
p1579
I1
sS'down '
p1580
I1
sS'yes '
p1581
I2
sS'kinda '
p1582
I3
sS'kerry '
p1583
I1
sS'really '
p1584
I100
sS'absolutely '
p1585
I9
sS'full '
p1586
I6
sS'although '
p1587
I1
sS'someonewould '
p1588
I1
sS'perfectly '
p1589
I9
sS'wa- '
p1590
I1
sS'expression '
p1591
I1
sS'little '
p1592
I5
sS'it '
p1593
I41
sS'the '
p1594
I1
sS'fully '
p1595
I12
sS'anything '
p1596
I1
sS'- '
p1597
I5
sS'all '
p1598
I395
sS'missing '
p1599
I1
sS'incarnation '
p1600
I1
sS'fine '
p1601
I2
sS'sounds '
p1602
I1
sS"'re "
p1603
I3
sS'totally '
p1604
I33
sS'altogether '
p1605
I1
sS'regardless '
p1606
I1
sS'a '
p1607
I63
sS'getting '
p1608
I1
sS'refuse '
p1609
I1
sS'and '
p1610
I4
sS'as '
p1611
I2
sS'ok '
p1612
I2
sS'smooth '
p1613
I1
sS'most '
p1614
I2
sS'second '
p1615
I1
sS'quiet '
p1616
I1
sS'completely '
p1617
I57
sS'because '
p1618
I2
sS'at '
p1619
I2
sS'brand- '
p1620
I1
sS'chill '
p1621
I1
sS'that '
p1622
I105
sS'rather '
p1623
I2
sS'self '
p1624
I1
sS'good '
p1625
I2
sS'pretty '
p1626
I58
sS'catching '
p1627
I1
sS'wow '
p1628
I1
sS'even '
p1629
I1
sS'she '
p1630
I2
sS'patients '
p1631
I1
sS'oh '
p1632
I2
sS'exactly '
p1633
I42
sS'tod '
p1634
I1
sS'everything '
p1635
I2
sS'seriously '
p1636
I2
sS'thanks '
p1637
I2
sS'you\\u2019 '
p1638
I1
sS'out '
p1639
I2
sS'fail '
p1640
I1
sS'dals '
p1641
I1
sS'without '
p1642
I3
sS'lot '
p1643
I9
sS'quite '
p1644
I233
sS'relatively '
p1645
I1
sS'way '
p1646
I9
sS'yourself '
p1647
I2
sS'ganz '
p1648
I22
sS'too '
p1649
I2
sS'whole '
p1650
I77
sS'complete '
p1651
I1
sS'know '
p1652
I1
sS'anywhere '
p1653
I1
sS'loads '
p1654
I1
sS'rela '
p1655
I1
sS'lots '
p1656
I1
sS'actuallyour '
p1657
I1
sS'in '
p1658
I4
sS'be '
p1659
I1
sS'there '
p1660
I1
sS'hey '
p1661
I2
sS'sure '
p1662
I10
sS'right '
p1663
I14
sS'so '
p1664
I14
sS'like '
p1665
I6
sS'on '
p1666
I5
sS'stamina '
p1667
I1
sS'you '
p1668
I15
sS'don '
p1669
I4
sS'they '
p1670
I1
sS'what '
p1671
I1
sS'straight '
p1672
I1
sS'plain '
p1673
I1
sS'okay '
p1674
I2
sS'everybody '
p1675
I2
sS'yeah '
p1676
I3
sS'certainly '
p1677
I3
sS'exact '
p1678
I1
sS'vey '
p1679
I1
sS'bit '
p1680
I4
sS'take '
p1681
I2
sS'real '
p1682
I44
sS'cooperate '
p1683
I1
sS'to '
p1684
I1
sS'far '
p1685
I2
sS'open '
p1686
I1
sS'brand '
p1687
I3
sS'side '
p1688
I1
sS'ma '
p1689
I1
sS'kind '
p1690
I9
sS'well '
p1691
I5
sS'top '
p1692
I4
sS"'t "
p1693
I4
sS'of '
p1694
I5
sS'dean '
p1695
I1
sS"'s "
p1696
I12
sS'concise '
p1697
I1
sS'come '
p1698
I1
sS'damn '
p1699
I3
sS'here '
p1700
I1
sS'giggles '
p1701
I1
sS'very '
p1702
I225
sS'sit '
p1703
I1
sS'never '
p1704
I1
sS'whoa '
p1705
I2
sS'strictly '
p1706
I3
sS'just '
p1707
I49
sS'nice '
p1708
I7
sS'i '
p1709
I18
sS'been '
p1710
I2
sS'piece '
p1711
I4
sS'lively '
p1712
I1
sS'tighter '
p1713
I1
sS'easiest '
p1714
I1
sS'total '
p1715
I1
sS'not '
p1716
I49
sS'something '
p1717
I3
sS'entirely '
p1718
I44
stp1719
a((lp1720
S'liebsten'
p1721
aS'Liebsten'
p1722
a(dp1723
S'favorite '
p1724
I33
sS'theseare '
p1725
I1
sS'loved '
p1726
I3
sS'wanna '
p1727
I1
sS'dede '
p1728
I1
sS"'d "
p1729
I4
sS'skinconnect '
p1730
I1
sS'want '
p1731
I1
sS'dearest '
p1732
I14
sS'difference '
p1733
I1
sS'most '
p1734
I5
sS'wish '
p1735
I2
sS'ugh '
p1736
I1
sS'love '
p1737
I4
sS'boyfriend '
p1738
I3
sS'favourite '
p1739
I2
sS'rather '
p1740
I2
sS'prefer '
p1741
I1
sS'real- '
p1742
I2
sS'like '
p1743
I2
sS'cleaners '
p1744
I1
sS'preferably '
p1745
I2
sS'darling '
p1746
I1
sS'get '
p1747
I1
sS'best '
p1748
I2
sS'sweethearts '
p1749
I1
sS'aah '
p1750
I1
sS'lover '
p1751
I1
sS'sweetheart '
p1752
I1
sS'not '
p1753
I1
sS'waiting '
p1754
I2
sS'beloved '
p1755
I1
stp1756
a((lp1757
S'nur'
p1758
aS'Nur'
p1759
a(dp1760
S'one '
p1761
I35
sS'checked '
p1762
I1
sS'matter '
p1763
I2
sS'merely '
p1764
I16
sS'stay '
p1765
I3
sS'uh '
p1766
I3
sS'only '
p1767
I5284
sS'am '
p1768
I1
sS'knock '
p1769
I1
sS'no '
p1770
I18
sS'ever '
p1771
I4
sS'come '
p1772
I5
sS'ok '
p1773
I2
sS'while '
p1774
I2
sS'llam '
p1775
I1
sS'gimme '
p1776
I1
sS'down '
p1777
I3
sS'making '
p1778
I2
sS'actually '
p1779
I1
sS'barely '
p1780
I1
sS'special '
p1781
I1
sS'then '
p1782
I1
sS'really '
p1783
I1
sS'with '
p1784
I4
sS'up '
p1785
I1
sS'although '
p1786
I1
sS'if '
p1787
I6
sS'and- '
p1788
I1
sS'between '
p1789
I7
sS'he '
p1790
I3
sS'either '
p1791
I2
sS'for '
p1792
I39
sS'look '
p1793
I8
sS'thinking '
p1794
I8
sS'little '
p1795
I2
sS'charlie '
p1796
I2
sS'it '
p1797
I58
sS'about '
p1798
I6
sS'more '
p1799
I3
sS'sleep '
p1800
I1
sS'opens '
p1801
I1
sS'just, '
p1802
I9
sS'please '
p1803
I4
sS'the '
p1804
I6
sS'caffrey '
p1805
I1
sS"'ve "
p1806
I2
sS'let '
p1807
I4
sS'anything '
p1808
I2
sS'- '
p1809
I6
sS'all '
p1810
I336
sS'had '
p1811
I2
sS'backstory '
p1812
I1
sS'oh '
p1813
I2
sS'fine '
p1814
I1
sS'than '
p1815
I19
sS'youjust '
p1816
I1
sS'want '
p1817
I3
sS'marco '
p1818
I1
sS'them '
p1819
I2
sS'jimbotron '
p1820
I1
sS'one- '
p1821
I5
sS'presents '
p1822
I1
sS'other '
p1823
I3
sS'very '
p1824
I1
sS'getting '
p1825
I2
sS'got '
p1826
I2
sS'simple '
p1827
I1
sS'as '
p1828
I19
sS'left '
p1829
I1
sS'having '
p1830
I1
sS'" '
p1831
I1
sS'messing '
p1832
I1
sS'just '
p1833
I13699
sS'because '
p1834
I3
sS'he\\u2019 '
p1835
I1
sS'at '
p1836
I8
sS'could '
p1837
I1
sS'that '
p1838
I21
sS'rather '
p1839
I2
sS'make '
p1840
I3
sS'are '
p1841
I2
sS'care '
p1842
I1
sS'is '
p1843
I356
sS'wearing '
p1844
I1
sS'ask '
p1845
I1
sS'doing '
p1846
I5
sS'anyway '
p1847
I1
sS'even '
p1848
I39
sS'eyes '
p1849
I2
sS'exactly '
p1850
I2
sS'might '
p1851
I1
sS'derrida '
p1852
I1
sS'fair '
p1853
I1
sS'say '
p1854
I1
sS'everything '
p1855
I1
sS'when '
p1856
I1
sS'maybe '
p1857
I1
sS'lol '
p1858
I1
sS'just- '
p1859
I1
sS'checking '
p1860
I1
sS'go '
p1861
I52
sS'forget '
p1862
I1
sS'out '
p1863
I2
sS"'s "
p1864
I41
sS'such '
p1865
I2
sS'by '
p1866
I4
sS'quite '
p1867
I1
sS'lonesome '
p1868
I1
sS'always '
p1869
I7
sS'fuck '
p1870
I1
sS'nobody '
p1871
I4
sS'dealing '
p1872
I4
sS'but '
p1873
I198
sS'too '
p1874
I1
sS'there '
p1875
I4
sS'hope '
p1876
I1
sS'have '
p1877
I14
sS'done '
p1878
I2
sS'know '
p1879
I1
sS'knit '
p1880
I1
sS'bring '
p1881
I3
sS'sorry '
p1882
I3
sS'long '
p1883
I1
sS'wants '
p1884
I1
sS'be '
p1885
I39
sS'gonna '
p1886
I4
sS'now '
p1887
I4
sS'practiced '
p1888
I1
sS'two '
p1889
I3
sS'faking '
p1890
I6
sS'sure '
p1891
I2
sS'whisper '
p1892
I1
sS'easy '
p1893
I1
sS'she '
p1894
I1
sS'won '
p1895
I3
sS'were '
p1896
I5
sS'... '
p1897
I1
sS'why '
p1898
I2
sS'much '
p1899
I1
sS'being '
p1900
I7
sS'from '
p1901
I1
sS'guest '
p1902
I2
sS'first '
p1903
I1
sS'shoot '
p1904
I1
sS'on '
p1905
I12
sS'ahead '
p1906
I57
sS'don '
p1907
I6
sS'consideration '
p1908
I1
sS'they '
p1909
I1
sS'what '
p1910
I1
sS'was '
p1911
I37
sS'this '
p1912
I2
sS'possibly '
p1913
I9
sS'wrong '
p1914
I1
sS'okay '
p1915
I5
sS'except '
p1916
I94
sS'give '
p1917
I5
sS'and '
p1918
I10
sS"'sjust "
p1919
I2
sS'my '
p1920
I1
sS'private '
p1921
I1
sS'wait '
p1922
I2
sS'nothing '
p1923
I35
sS'take '
p1924
I17
sS'sort '
p1925
I2
sS'once '
p1926
I1
sS'to '
p1927
I71
sS'playing '
p1928
I1
sS'airline '
p1929
I1
sS'so '
p1930
I5
sS'pity '
p1931
I2
sS"' "
p1932
I3
sS'simply '
p1933
I48
sS'kind '
p1934
I1
sS'well '
p1935
I7
sS'problem '
p1936
I1
sS"'t "
p1937
I51
sS'wish '
p1938
I1
sS'keep '
p1939
I4
sS'takes '
p1940
I1
sS'need '
p1941
I1
sS'apart '
p1942
I1
sS'do '
p1943
I2
sS"'m "
p1944
I1
sS'away '
p1945
I1
sS"'re "
p1946
I2
sS'pure '
p1947
I2
sS'ju '
p1948
I1
sS'pick '
p1949
I1
sS'a '
p1950
I43
sS'beef '
p1951
I1
sS'an '
p1952
I3
sS'can '
p1953
I1
sS'move '
p1954
I1
sS'never '
p1955
I2
sS'of '
p1956
I1
sS'strictly '
p1957
I4
sS'promise '
p1958
I1
sS'i '
p1959
I44
sS'you '
p1960
I10
sS'in '
p1961
I8
sS'products '
p1962
I1
sS'taking '
p1963
I1
sS'like '
p1964
I5
sS'get '
p1965
I15
sS'people '
p1966
I1
sS'alone '
p1967
I14
sS'saying '
p1968
I2
sS'justa '
p1969
I2
sS'not '
p1970
I58
sS'i\\u2019 '
p1971
I1
sS'thing '
p1972
I6
sS'still '
p1973
I1
sS'yeah '
p1974
I4
sS'oy '
p1975
I1
stp1976
a((lp1977
S'wollen'
p1978
aS'Wollen'
p1979
a(dp1980
S'going '
p1981
I17
sS'may '
p1982
I1
sS'uh '
p1983
I1
sS'd '
p1984
I7
sS'would '
p1985
I76
sS'mean '
p1986
I7
sS'barbara '
p1987
I1
sS'rubbish '
p1988
I1
sS'course '
p1989
I2
sS'deal '
p1990
I1
sS'work '
p1991
I1
sS'absolutely '
p1992
I1
sS'won '
p1993
I48
sS'follow '
p1994
I1
sS'try '
p1995
I16
sS'came '
p1996
I2
sS'anxious '
p1997
I1
sS'hmm '
p1998
I1
sS'about '
p1999
I1
sS'lolly '
p2000
I1
sS'please '
p2001
I7
sS'the '
p2002
I1
sS'doug '
p2003
I1
sS'expect '
p2004
I6
sS"'ve "
p2005
I3
sS'let '
p2006
I26
sS'- '
p2007
I2
sS'fine '
p2008
I2
sS'have '
p2009
I7
sS"'re "
p2010
I267
sS'say '
p2011
I7
sS'me '
p2012
I1
sS'luggage '
p2013
I2
sS'got '
p2014
I5
sS"'ll "
p2015
I22
sS'wanting '
p2016
I24
sS'desire '
p2017
I4
sS'meaning '
p2018
I1
sS'so '
p2019
I1
sS'shaii '
p2020
I2
sS'should '
p2021
I14
sS'aren '
p2022
I6
sS'tecumseh '
p2023
I1
sS'could '
p2024
I2
sS'come '
p2025
I5
sS'throw '
p2026
I1
sS'yes '
p2027
I1
sS'wouldn '
p2028
I7
sS'is '
p2029
I19
sS'contract '
p2030
I1
sS'yoursehf '
p2031
I1
sS'after '
p2032
I2
sS'think '
p2033
I1
sS'asked '
p2034
I2
sS'ho\\u0436e\\u0459 '
p2035
I1
sS'everything '
p2036
I1
sS'wantmore '
p2037
I1
sS'whwould '
p2038
I1
sS'maybe '
p2039
I4
sS'go '
p2040
I2
sS'leverage '
p2041
I1
sS"'s "
p2042
I18
sS'ambition '
p2043
I1
sS'decir '
p2044
I1
sS'way '
p2045
I2
sS'yourself '
p2046
I1
sS'for '
p2047
I6
sS'wanna '
p2048
I367
sS'want '
p2049
I3487
sS'own '
p2050
I1
sS'wants '
p2051
I32
sS'thomas '
p2052
I1
sS'hey '
p2053
I1
sS'sure '
p2054
I3
sS'rather '
p2055
I2
sS'planning '
p2056
I2
sS'if '
p2057
I3
sS'blows '
p2058
I1
sS'were '
p2059
I4
sS'why '
p2060
I8
sS'vuoi '
p2061
I1
sS'like '
p2062
I93
sS'you '
p2063
I3
sS'don '
p2064
I33
sS'they '
p2065
I2
sS'what '
p2066
I4
sS'karaml '
p2067
I1
sS'decide '
p2068
I2
sS'okay '
p2069
I1
sS'are '
p2070
I343
sS'us '
p2071
I1
sS'cute '
p2072
I1
sS'trying '
p2073
I48
sS'get '
p2074
I2
sS'care '
p2075
I4
sS'ask '
p2076
I7
sS'asking '
p2077
I1
sS'will '
p2078
I69
sS'to '
p2079
I30
sS'who '
p2080
I1
sS'choose '
p2081
I2
sS'fucker '
p2082
I2
sS'howard '
p2083
I1
sS'gonna '
p2084
I24
sS'fit '
p2085
I1
sS'yowant '
p2086
I1
sS"'d "
p2087
I11
sS'plan '
p2088
I4
sS'well '
p2089
I1
sS'point '
p2090
I2
sS'wish '
p2091
I25
sS'redu '
p2092
I1
sS'name '
p2093
I2
sS'jackie '
p2094
I1
sS'do '
p2095
I208
sS'guys '
p2096
I1
sS'how '
p2097
I7
sS'willing '
p2098
I2
sS'here '
p2099
I11
sS'prefer '
p2100
I1
sS'intending '
p2101
I1
sS'walk '
p2102
I1
sS'can '
p2103
I18
sS'maronl '
p2104
I1
sS'looking '
p2105
I2
sS'pleases '
p2106
I1
sS'purpose '
p2107
I1
sS'shall '
p2108
I44
sS'intend '
p2109
I2
sS'taking '
p2110
I1
sS'buy '
p2111
I1
sS'want, '
p2112
I5
sS'wanted '
p2113
I74
sS'need '
p2114
I50
sS'crane '
p2115
I1
sS'yeah '
p2116
I2
stp2117
a((lp2118
S'vorziehen'
p2119
aS'Vorziehen'
p2120
a(dp2121
S'preferable '
p2122
I1
sS'lester, '
p2123
I1
sS'rather '
p2124
I2
sS'not '
p2125
I1
sS'prefer '
p2126
I8
sS'ride '
p2127
I1
sS'efer '
p2128
I1
sS'choose '
p2129
I9
stp2130
a((lp2131
S'verlockendes'
p2132
aS'Verlockendes'
p2133
a(dp2134
S'rather '
p2135
I1
stp2136
a((lp2137
S'mir'
p2138
aS'Mir'
p2139
a(dp2140
S'feel '
p2141
I39
sS'hand '
p2142
I2
sS'm '
p2143
I2
sS'am '
p2144
I15
sS"'m- "
p2145
I1
sS'no '
p2146
I2
sS'rather '
p2147
I1
sS'down '
p2148
I1
sS'making '
p2149
I1
sS'personality '
p2150
I1
sS'uh '
p2151
I1
sS'borrow '
p2152
I1
sS'feeling '
p2153
I6
sS'really '
p2154
I11
sS'with '
p2155
I64
sS'up '
p2156
I8
sS'prom '
p2157
I1
sS'mea '
p2158
I1
sS'me, '
p2159
I84
sS'took '
p2160
I1
sS'\\u00bf '
p2161
I1
sS'for '
p2162
I6
sS'bandit '
p2163
I1
sS'look '
p2164
I1
sS'let '
p2165
I1
sS': '
p2166
I1
sS'bummer '
p2167
I1
sS'it '
p2168
I48
sS'college '
p2169
I1
sS'opinion '
p2170
I1
sS'about '
p2171
I2
sS'imagine '
p2172
I1
sS'please '
p2173
I2
sS'sorry '
p2174
I5
sS'pain '
p2175
I1
sS"'ve "
p2176
I4
sS'im '
p2177
I1
sS'present '
p2178
I1
sS'l '
p2179
I12
sS'all '
p2180
I4
sS'had '
p2181
I2
sS'fine '
p2182
I12
sS'have '
p2183
I27
sS'5 '
p2184
I1
sS'hurt '
p2185
I1
sS'me '
p2186
I26051
sS'very '
p2187
I3
sS'getting '
p2188
I13
sS'got '
p2189
I3
sS"'ll "
p2190
I2
sS'pl '
p2191
I1
sS'just '
p2192
I39
sS'at '
p2193
I1
sS'could '
p2194
I2
sS'that '
p2195
I21
sS'come '
p2196
I4
sS'yes '
p2197
I3
sS'good '
p2198
I2
sS'wouldn '
p2199
I1
sS'crying '
p2200
I1
sS'whatever '
p2201
I1
sS'mind '
p2202
I3
sS'nothing '
p2203
I1
sS'doing '
p2204
I1
sS'anyway '
p2205
I1
sS'listen '
p2206
I2
sS'drink '
p2207
I1
sS'distant '
p2208
I1
sS'told '
p2209
I1
sS'say '
p2210
I2
sS'phone '
p2211
I1
sS'grab '
p2212
I1
sS'go '
p2213
I1
sS'out '
p2214
I13
sS'didn '
p2215
I1
sS'close '
p2216
I2
sS'way '
p2217
I8
sS'mine '
p2218
I442
sS'! '
p2219
I2
sS'boy '
p2220
I3
sS'kensi '
p2221
I1
sS'myself '
p2222
I148
sS'mir '
p2223
I2
sS'worried '
p2224
I1
sS'said '
p2225
I3
sS'want '
p2226
I7
sS'i '
p2227
I3069
sS'everything '
p2228
I1
sS'love '
p2229
I1
sS'ready '
p2230
I1
sS'. '
p2231
I3
sS'thoughts '
p2232
I1
sS'now '
p2233
I2
sS'remember '
p2234
I1
sS'sure '
p2235
I1
sS'home '
p2236
I1
sS'brunch '
p2237
I1
sS'right '
p2238
I5
sS'place '
p2239
I6
sS'mist '
p2240
I1
sS'mewith '
p2241
I1
sS'much '
p2242
I4
sS'so '
p2243
I17
sS'fucking '
p2244
I1
sS'like '
p2245
I11
sS'on '
p2246
I6
sS'road '
p2247
I1
sS'you '
p2248
I15
sS'hands '
p2249
I1
sS'don '
p2250
I6
sS'what '
p2251
I4
sS'balance '
p2252
I1
sS'follow '
p2253
I1
sS'this '
p2254
I9
sS'... '
p2255
I2
sS'okay '
p2256
I4
sS'us '
p2257
I12
sS'methat '
p2258
I1
sS'yeah '
p2259
I6
sS'give '
p2260
I5
sS'miss '
p2261
I1
sS'trying '
p2262
I1
sS'get '
p2263
I3
sS'[ '
p2264
I1
sS'care '
p2265
I3
sS'put '
p2266
I4
sS'take '
p2267
I6
sS'to '
p2268
I68
sS'who '
p2269
I2
sS'tme '
p2270
I1
sS'gonna '
p2271
I10
sS'thought '
p2272
I1
sS'over '
p2273
I14
sS"'d "
p2274
I2
sS'ma '
p2275
I1
sS'paying '
p2276
I1
sS'brother '
p2277
I2
sS"' "
p2278
I1
sS'baggage '
p2279
I1
sS'well '
p2280
I1
sS'from '
p2281
I1
sS"'t "
p2282
I16
sS'of '
p2283
I5
sS'sorr '
p2284
I1
sS'keep '
p2285
I7
sS'name '
p2286
I2
sS', '
p2287
I7
sS'do '
p2288
I2
sS"'m "
p2289
I194
sS'such '
p2290
I4
sS'your '
p2291
I3
sS'away '
p2292
I2
sS'something '
p2293
I9
sS'understand '
p2294
I1
sS's '
p2295
I1
sS'some '
p2296
I4
sS'line '
p2297
I1
sS'a '
p2298
I8
sS'" '
p2299
I1
sS'can '
p2300
I4
sS'oh '
p2301
I5
sS'see '
p2302
I1
sS'my '
p2303
I1022
sS'been '
p2304
I33
sS'dunlop '
p2305
I1
sS'margaret '
p2306
I1
sS'here '
p2307
I27
sS'buy '
p2308
I1
sS'off '
p2309
I1
sS'read '
p2310
I1
sS'need '
p2311
I5
sS'sing '
p2312
I1
sS'not '
p2313
I11
sS'i\\u2019 '
p2314
I5
sS'thing '
p2315
I1
sS'heart '
p2316
I1
sS'back '
p2317
I2
stp2318
a((lp2319
S'h\xc3\xb6chstens'
p2320
aS'H\xc3\xb6chstens'
p2321
a(dp2322
S'tops, '
p2323
I1
sS'maybe '
p2324
I1
sS'best '
p2325
I1
sS'springtime '
p2326
I1
sS'only '
p2327
I6
sS'holllns '
p2328
I1
sS'rather '
p2329
I1
sS'than '
p2330
I8
sS'issues '
p2331
I1
sS'oldest '
p2332
I2
sS'max '
p2333
I1
sS'couple '
p2334
I1
sS'most '
p2335
I8
sS'tops '
p2336
I18
sS'yeah '
p2337
I1
stp2338
a((lp2339
S'hei\xc3\x9ft'
p2340
aS'Hei\xc3\x9ft'
p2341
a(dp2342
S'figured '
p2343
I1
sS'word '
p2344
I2
sS'nationalized '
p2345
I1
sS'what '
p2346
I2
sS'thought '
p2347
I1
sS'isa '
p2348
I1
sS'said '
p2349
I2
sS'mean '
p2350
I77
sS'called '
p2351
I95
sS'meaning '
p2352
I30
sS'malheureusement '
p2353
I1
sS'" '
p2354
I1
sS'heard '
p2355
I1
sS'words '
p2356
I3
sS'malik '
p2357
I2
sS'comes '
p2358
I1
sS'ugh '
p2359
I1
sS'thank '
p2360
I1
sS'biology '
p2361
I1
sS'meant '
p2362
I6
sS'do '
p2363
I2
sS'gotta '
p2364
I1
sS'rather '
p2365
I1
sS'understand '
p2366
I2
sS'goes '
p2367
I2
sS'call '
p2368
I6
sS'fourth '
p2369
I1
sS'is, '
p2370
I1
sS'premonition '
p2371
I1
sS's '
p2372
I2
sS'does '
p2373
I133
sS'so '
p2374
I4
sS'translates '
p2375
I2
sS'question '
p2376
I1
sS'name '
p2377
I309
sS'doesn '
p2378
I112
sS'isn '
p2379
I2
sS'tell '
p2380
I1
sS'they '
p2381
I2
sS'say '
p2382
I54
sS'titles '
p2383
I1
sS'was '
p2384
I7
sS'says '
p2385
I16
sS'means '
p2386
I344
sS'is '
p2387
I118
sS'are '
p2388
I12
sS'talking '
p2389
I1
sS'tzn '
p2390
I1
sS"'s "
p2391
I189
sS'saying '
p2392
I14
sS'named '
p2393
I19
sS"'re "
p2394
I2
sS'yourname '
p2395
I1
sS'peter '
p2396
I1
stp2397
a((lp2398
S'gerne'
p2399
aS'Gerne'
p2400
a(dp2401
S'glad '
p2402
I11
sS'happy '
p2403
I49
sS'would '
p2404
I7
sS'kinda '
p2405
I1
sS'course '
p2406
I6
sS'smashing '
p2407
I1
sS'delighted '
p2408
I2
sS'breathlng '
p2409
I1
sS'really '
p2410
I2
sS'ready '
p2411
I1
sS'pleasure '
p2412
I10
sS'try '
p2413
I1
sS'lo- '
p2414
I1
sS'thank '
p2415
I3
sS'iikes '
p2416
I1
sS'talk '
p2417
I1
sS'welcome '
p2418
I40
sS'center '
p2419
I2
sS'advertise '
p2420
I1
sS'please '
p2421
I7
sS'offer '
p2422
I2
sS'all '
p2423
I1
sS'badly '
p2424
I2
sS'fine '
p2425
I1
sS'have '
p2426
I3
sS'totally '
p2427
I1
sS'by '
p2428
I1
sS'trouble '
p2429
I1
sS'hate '
p2430
I1
sS"'ll "
p2431
I4
sS'desire '
p2432
I1
sS'liketo '
p2433
I2
sS'mention '
p2434
I1
sS'could '
p2435
I2
sS'necessary '
p2436
I1
sS'barking '
p2437
I1
sS'yes '
p2438
I2
sS'good '
p2439
I3
sS'mind '
p2440
I2
sS'younger '
p2441
I1
sS'surmising '
p2442
I1
sS'thanks '
p2443
I1
sS'midnight '
p2444
I1
sS'enjoyed '
p2445
I3
sS'enjoy '
p2446
I11
sS'go '
p2447
I1
sS'liked '
p2448
I26
sS'free '
p2449
I1
sS'be '
p2450
I5
sS'agreed '
p2451
I1
sS'attached '
p2452
I1
sS'loved '
p2453
I6
sS'wanna '
p2454
I11
sS'want '
p2455
I46
sS'likes '
p2456
I43
sS'appreciate '
p2457
I2
sS'love '
p2458
I163
sS'wants '
p2459
I2
sS'always '
p2460
I3
sS'sure '
p2461
I15
sS'rather '
p2462
I1
sS'loves '
p2463
I1
sS'interested '
p2464
I3
sS'like '
p2465
I909
sS'round '
p2466
I1
sS'ahead '
p2467
I3
sS'wondering '
p2468
I2
sS'nucky '
p2469
I1
sS'eagles '
p2470
I1
sS'keen '
p2471
I2
sS'means '
p2472
I1
sS'certainly '
p2473
I2
sS'care '
p2474
I1
sS'nothing '
p2475
I1
sS'take '
p2476
I3
sS'will '
p2477
I2
sS'to '
p2478
I75
sS'fain '
p2479
I1
sS'much '
p2480
I15
sS'happily '
p2481
I4
sS'working '
p2482
I1
sS'carrots '
p2483
I1
sS'dying '
p2484
I1
sS"'d "
p2485
I5
sS'bet '
p2486
I1
sS'problem '
p2487
I2
sS'wish '
p2488
I6
sS'do '
p2489
I6
sS'willing '
p2490
I4
sS'prefer '
p2491
I1
sS'oh '
p2492
I1
sS'spend '
p2493
I1
sS'anytime '
p2494
I1
sS'nice '
p2495
I1
sS'chooses '
p2496
I2
sS'thing '
p2497
I1
sS'get '
p2498
I1
sS'wanted '
p2499
I4
sS'need '
p2500
I2
sS'great '
p2501
I1
sS'not '
p2502
I7
sS'gladly '
p2503
I13
sS'yeah '
p2504
I2
stp2505
a((lp2506
S'lieb'
p2507
aS'Lieb'
p2508
a(dp2509
S'sweet '
p2510
I39
sS'angels '
p2511
I1
sS'loved '
p2512
I5
sS'bye '
p2513
I2
sS'hove '
p2514
I1
sS'charm '
p2515
I1
sS'kind '
p2516
I9
sS'appreciate '
p2517
I1
sS'\\u0441\\u0443\\u043f\\u0435\\u0440\\u0433\\u0435\\u0440\\u043e\\u044f '
p2518
I1
sS'alllson '
p2519
I1
sS'quiet '
p2520
I1
sS'pleasant '
p2521
I1
sS'love '
p2522
I131
sS'value '
p2523
I1
sS'. '
p2524
I2
sS'glad '
p2525
I1
sS'rather '
p2526
I1
sS'good '
p2527
I5
sS'if '
p2528
I1
sS'prefer '
p2529
I1
sS'is '
p2530
I1
sS'docile '
p2531
I6
sS'loves '
p2532
I4
sS'much '
p2533
I13
sS'friendly '
p2534
I2
sS'like '
p2535
I8
sS'fond '
p2536
I4
sS'lovely '
p2537
I5
sS'finality '
p2538
I1
sS'kiss '
p2539
I1
sS'nice '
p2540
I22
sS'smart '
p2541
I1
sS'daddy '
p2542
I1
sS'okay '
p2543
I1
sS'grandpa '
p2544
I1
sS'cute '
p2545
I5
sS'nice, '
p2546
I1
sS'fine '
p2547
I1
sS'angel '
p2548
I1
sS'dear '
p2549
I9
sS'care '
p2550
I4
sS'\\u2013 '
p2551
I1
stp2552
a((lp2553
S'angebauter'
p2554
aS'Angebauter'
p2555
a(dp2556
S'rather '
p2557
I1
stp2558
a((lp2559
S'bohei'
p2560
aS'Bohei'
p2561
a(dp2562
S'rather '
p2563
I1
stp2564
a((lp2565
S'gew\xc3\xbcnscht'
p2566
aS'Gew\xc3\xbcnscht'
p2567
a(dp2568
S'desire '
p2569
I1
sS'wished '
p2570
I21
sS'wish '
p2571
I20
sS'myself '
p2572
I1
sS'entire '
p2573
I1
sS'asked '
p2574
I5
sS'rather '
p2575
I1
sS'wanted '
p2576
I16
sS'wishes '
p2577
I2
sS'requested '
p2578
I10
sS'hoping '
p2579
I1
sS'wanting '
p2580
I1
sS'ought '
p2581
I1
sS'hoped '
p2582
I2
sS'together '
p2583
I1
sS'imagined '
p2584
I1
stp2585
a((lp2586
S'tue'
p2587
aS'Tue'
p2588
a(dp2589
S'floor '
p2590
I1
sS'whirring '
p2591
I1
sS'going '
p2592
I1
sS'eliot '
p2593
I1
sS'doing, '
p2594
I1
sS'am '
p2595
I79
sS'jules '
p2596
I1
sS'do, '
p2597
I7
sS'contestant '
p2598
I1
sS'hip '
p2599
I1
sS"'ll "
p2600
I6
sS'husband '
p2601
I1
sS'later '
p2602
I1
sS'put '
p2603
I2
sS'know '
p2604
I1
sS'news, '
p2605
I1
sS'obviously '
p2606
I1
sS'hurt '
p2607
I1
sS'slimy '
p2608
I1
sS'mom '
p2609
I1
sS'perfect '
p2610
I1
sS'pooping '
p2611
I1
sS'sou '
p2612
I2
sS'just '
p2613
I1
sS'did '
p2614
I9
sS'doinng '
p2615
I2
sS'do '
p2616
I623
sS"'m "
p2617
I72
sS'rather '
p2618
I1
sS'make '
p2619
I1
sS'man '
p2620
I1
sS'hers '
p2621
I1
sS'wouldn '
p2622
I1
sS'easy '
p2623
I1
sS'won '
p2624
I5
sS'act '
p2625
I5
sS'if '
p2626
I1
sS'all '
p2627
I1
sS'try '
p2628
I1
sS'aldous '
p2629
I1
sS'oprah '
p2630
I1
sS'doing '
p2631
I175
sS'promise '
p2632
I1
sS"'m- "
p2633
I1
sS'girl, '
p2634
I1
sS'mind '
p2635
I1
sS'thank '
p2636
I1
sS'cos '
p2637
I1
sS'funny '
p2638
I1
sS'\\u00c1breme '
p2639
I1
sS'whoa '
p2640
I1
sS'kids '
p2641
I1
sS'don '
p2642
I43
sS'lord '
p2643
I1
sS'death '
p2644
I1
sS'stopping '
p2645
I1
sS'behaved '
p2646
I1
sS'sorry '
p2647
I1
sS'daddy '
p2648
I1
sS'blond '
p2649
I1
sS'shotgun '
p2650
I1
sS'feels '
p2651
I1
sS'stark '
p2652
I5
sS'-- '
p2653
I1
sS'unemployed '
p2654
I1
sS'pretend '
p2655
I4
sS'gun '
p2656
I1
sS'hang '
p2657
I1
sS'archimedes '
p2658
I2
sS'philanthropist '
p2659
I1
sS'moe '
p2660
I1
sS'not '
p2661
I1
sS'breat '
p2662
I1
sS'will '
p2663
I17
sS'donotdo '
p2664
I2
sS'always '
p2665
I1
sS'french '
p2666
I2
stp2667
a((lp2668
S'geneigt'
p2669
aS'Geneigt'
p2670
a(dp2671
S'open '
p2672
I1
sS'deafness '
p2673
I1
sS'hungry, '
p2674
I1
sS'rather '
p2675
I1
sS'inclined '
p2676
I3
stp2677
a((lp2678
S'willst'
p2679
aS'Willst'
p2680
a(dp2681
S'feel '
p2682
I1
sS'sweet '
p2683
I1
sS'desires '
p2684
I1
sS'going '
p2685
I34
sS'no '
p2686
I3
sS'd '
p2687
I4
sS'would '
p2688
I89
sS'hi '
p2689
I1
sS'mean '
p2690
I6
sS'regn '
p2691
I1
sS'did '
p2692
I12
sS'doosh '
p2693
I1
sS'decide '
p2694
I3
sS'then '
p2695
I1
sS'really '
p2696
I1
sS'with '
p2697
I1
sS'ready '
p2698
I3
sS'if '
p2699
I5
sS'opposed '
p2700
I3
sS'freshen '
p2701
I1
sS'mistake '
p2702
I1
sS'pop '
p2703
I1
sS'howard, '
p2704
I1
sS'ls '
p2705
I1
sS'youthe '
p2706
I1
sS'boston '
p2707
I1
sS'it '
p2708
I1
sS'decision '
p2709
I1
sS'hmm '
p2710
I1
sS'odavkde '
p2711
I1
sS'please '
p2712
I5
sS'seal '
p2713
I1
sS'expect '
p2714
I4
sS'offer '
p2715
I1
sS'let '
p2716
I1
sS'- '
p2717
I15
sS'fine '
p2718
I3
sS'peeping '
p2719
I1
sS'\\u2026 '
p2720
I1
sS'have '
p2721
I6
sS"'re "
p2722
I251
sS'dunk '
p2723
I1
sS'suit '
p2724
I1
sS'louise '
p2725
I1
sS'me '
p2726
I1
sS'getting '
p2727
I2
sS'got '
p2728
I2
sS'refuse '
p2729
I1
sS'has '
p2730
I1
sS'wt '
p2731
I1
sS"'ll "
p2732
I16
sS'wanting '
p2733
I5
sS'decided '
p2734
I1
sS'should '
p2735
I5
sS'fix '
p2736
I2
sS'aren '
p2737
I30
sS'menetk\xc3\xb6 '
p2738
I1
sS'quest '
p2739
I1
sS'could '
p2740
I5
sS'come '
p2741
I2
sS'wouldn '
p2742
I1
sS'trade '
p2743
I1
sS'is '
p2744
I20
sS'mind '
p2745
I2
sS'haunt '
p2746
I1
sS'clean '
p2747
I1
sS'choise '
p2748
I1
sS'might '
p2749
I1
sS'think '
p2750
I1
sS'say '
p2751
I8
sS'bucketload '
p2752
I1
sS'maybe '
p2753
I6
sS'go '
p2754
I7
sS"'s "
p2755
I10
sS'voc\xc3\xaa '
p2756
I1
sS'arent '
p2757
I1
sS'way '
p2758
I6
sS'yourself '
p2759
I25
sS'share '
p2760
I1
sS'fuck '
p2761
I3
sS'trav '
p2762
I1
sS'money '
p2763
I1
sS'emma '
p2764
I1
sS'for '
p2765
I1
sS'wanna '
p2766
I774
sS'want '
p2767
I4169
sS'worst '
p2768
I3
sS'jack '
p2769
I1
sS'bring '
p2770
I1
sS'nah '
p2771
I1
sS'own '
p2772
I1
sS'wants '
p2773
I2
sS'always '
p2774
I2
sS'hey '
p2775
I2
sS'rather '
p2776
I1
sS'cocks '
p2777
I1
sS'planning '
p2778
I4
sS'won '
p2779
I45
sS'choice '
p2780
I1
sS'why '
p2781
I6
sS'insist '
p2782
I1
sS'so '
p2783
I4
sS'chuckles '
p2784
I1
sS'name '
p2785
I4
sS'ahead '
p2786
I1
sS'don '
p2787
I26
sS'wait- '
p2788
I1
sS'they '
p2789
I1
sS'what '
p2790
I16
sS'conversationalist '
p2791
I1
sS't\\u00fa '
p2792
I2
sS'wilt '
p2793
I1
sS'okay '
p2794
I3
sS'are '
p2795
I683
sS'haah '
p2796
I1
sS'wil '
p2797
I1
sS"'ya "
p2798
I2
sS'give '
p2799
I3
sS'and '
p2800
I2
sS'trying '
p2801
I27
sS'get '
p2802
I2
sS'care '
p2803
I16
sS'ask '
p2804
I1
sS'take '
p2805
I7
sS'asking '
p2806
I1
sS'will '
p2807
I97
sS'to '
p2808
I14
sS'ya '
p2809
I1
sS'built- '
p2810
I1
sS'gonna '
p2811
I82
sS"'d "
p2812
I7
sS'shouldn '
p2813
I4
sS'well '
p2814
I3
sS'quibbler '
p2815
I1
sS'point '
p2816
I2
sS'wish '
p2817
I12
sS'like '
p2818
I84
sS'do '
p2819
I390
sS'excellent '
p2820
I1
sS'how '
p2821
I2
sS'willing '
p2822
I4
sS'call '
p2823
I1
sS'prefer '
p2824
I1
sS'win '
p2825
I1
sS'some '
p2826
I1
sS'does '
p2827
I2
sS'\\u007f6ant '
p2828
I1
sS'can '
p2829
I26
sS'fancy '
p2830
I2
sS'oh '
p2831
I4
sS'looking '
p2832
I3
sS'tell '
p2833
I1
sS'michelle '
p2834
I2
sS'i '
p2835
I3
sS'you '
p2836
I2
sS'intend '
p2837
I2
sS'wouhd '
p2838
I1
sS'want, '
p2839
I5
sS'ride '
p2840
I1
sS'wanted '
p2841
I63
sS'need '
p2842
I19
sS'infatuation '
p2843
I1
sS'rebecca '
p2844
I1
sS'yeah '
p2845
I2
sS'which '
p2846
I1
stp2847
a((lp2848
S'sogar'
p2849
aS'Sogar'
p2850
a(dp2851
S'heck '
p2852
I1
sS'rabb '
p2853
I1
sS'far '
p2854
I1
sS'got '
p2855
I2
sS'sometimes '
p2856
I1
sS'almost '
p2857
I2
sS'would '
p2858
I1
sS"'ll "
p2859
I1
sS'as '
p2860
I1
sS'every '
p2861
I1
sS'meggy '
p2862
I1
sS'yup '
p2863
I1
sS'them '
p2864
I2
sS'actually '
p2865
I104
sS'evenetter '
p2866
I1
sS'dedicate '
p2867
I1
sS'*** '
p2868
I1
sS'half '
p2869
I1
sS'do '
p2870
I2
sS'really '
p2871
I1
sS'rather '
p2872
I1
sS'painfully '
p2873
I1
sS'yes '
p2874
I1
sS"'em "
p2875
I1
sS'dad- '
p2876
I1
sS'turned '
p2877
I1
sS'including '
p2878
I3
sS'no '
p2879
I1
sS'much '
p2880
I5
sS'very '
p2881
I1
sS'smarter '
p2882
I1
sS'can '
p2883
I1
sS'even '
p2884
I1058
sS'indeed '
p2885
I8
sS'fact '
p2886
I33
sS'blair '
p2887
I1
sS'it '
p2888
I3
sS'quite '
p2889
I1
sS'they '
p2890
I1
sS'turkey '
p2891
I1
sS'jules '
p2892
I1
sS'i '
p2893
I3
sS'god '
p2894
I1
sS'maybe '
p2895
I1
sS'way '
p2896
I1
sS'one '
p2897
I2
sS'us '
p2898
I1
sS'deeply '
p2899
I1
sS'and '
p2900
I2
sS'he '
p2901
I1
sS'ooh, '
p2902
I1
sS'dangerous '
p2903
I1
sS'friends '
p2904
I1
sS'also '
p2905
I2
sS'lot '
p2906
I11
sS'debulk '
p2907
I1
sS'look '
p2908
I1
sS'yet '
p2909
I2
stp2910
a((lp2911
S'wohl'
p2912
aS'Wohl'
p2913
a(dp2914
S'one '
p2915
I1
sS'going '
p2916
I1
sS'may '
p2917
I11
sS'thusly '
p2918
I1
sS'what '
p2919
I1
sS'would '
p2920
I9
sS'messed '
p2921
I1
sS'mean '
p2922
I5
sS'looks '
p2923
I8
sS'welfare '
p2924
I4
sS'making '
p2925
I1
sS'better '
p2926
I3
sS'course '
p2927
I1
sS'did '
p2928
I1
sS'health '
p2929
I1
sS'then '
p2930
I1
sS'wonder '
p2931
I14
sS'up '
p2932
I2
sS'afraid '
p2933
I4
sS'isn '
p2934
I1
sS'benefit '
p2935
I3
sS'neccesary '
p2936
I1
sS'it '
p2937
I3
sS'about '
p2938
I2
sS'sorry '
p2939
I1
sS'expect '
p2940
I3
sS'least '
p2941
I1
sS'apparently '
p2942
I4
sS'talking '
p2943
I1
sS'all '
p2944
I3
sS'fine '
p2945
I2
sS'have '
p2946
I20
sS"'re "
p2947
I5
sS'probably '
p2948
I183
sS'seem '
p2949
I8
sS'best '
p2950
I2
sS'else '
p2951
I1
sS'very '
p2952
I1
sS'getting '
p2953
I1
sS'got '
p2954
I3
sS'salud '
p2955
I1
sS'bye '
p2956
I6
sS'leaving '
p2957
I1
sS'likely '
p2958
I2
sS'seems '
p2959
I13
sS'sake '
p2960
I6
sS'just '
p2961
I15
sS'healthy '
p2962
I1
sS'fancy '
p2963
I2
sS'that '
p2964
I3
sS'rather '
p2965
I1
sS'yes '
p2966
I2
sS'good '
p2967
I39
sS'safety '
p2968
I1
sS'wouldn '
p2969
I1
sS'pretty '
p2970
I3
sS'is '
p2971
I4
sS'mind '
p2972
I1
sS'uncomfortable '
p2973
I3
sS'trait '
p2974
I1
sS'bter '
p2975
I1
sS'drink '
p2976
I1
sS'might '
p2977
I16
sS'think '
p2978
I156
sS'maybe '
p2979
I4
sS'perhaps '
p2980
I4
sS'enjoy '
p2981
I3
sS'out '
p2982
I3
sS"'s "
p2983
I2
sS'must '
p2984
I97
sS'quite '
p2985
I2
sS'uvula '
p2986
I1
sS'doubt '
p2987
I2
sS'too '
p2988
I1
sS'really '
p2989
I4
sS'for '
p2990
I1
sS'guess '
p2991
I168
sS'zadrovya '
p2992
I1
sS'know '
p2993
I3
sS'i '
p2994
I1
sS'obviously '
p2995
I9
sS'richie '
p2996
I1
sS'a '
p2997
I1
sS'cheers '
p2998
I19
sS'be '
p2999
I68
sS'now '
p3000
I2
sS'dreams '
p3001
I1
sS'suppose '
p3002
I33
sS'right '
p3003
I17
sS'believe '
p3004
I1
sS'much '
p3005
I2
sS'sir '
p3006
I2
sS'like '
p3007
I15
sS'don '
p3008
I3
sS'certainhy '
p3009
I1
sS'was '
p3010
I1
sS'feeling '
p3011
I1
sS'means '
p3012
I2
sS'possibly '
p3013
I5
sS'are '
p3014
I1
sS'opportunity '
p3015
I1
sS'certainly '
p3016
I3
sS'greater '
p3017
I8
sS'bit '
p3018
I2
sS'he '
p3019
I1
sS'take '
p3020
I2
sS'will '
p3021
I1
sS'to '
p3022
I10
sS'wonders '
p3023
I1
sS'gonna '
p3024
I6
sS'huh '
p3025
I2
sS'bet '
p3026
I5
sS'precisely '
p3027
I1
sS'well '
p3028
I50
sS'supposed '
p3029
I1
sS'comfortable '
p3030
I46
sS', '
p3031
I1
sS'do '
p3032
I8
sS"'m "
p3033
I1
sS'sick '
p3034
I1
sS"'t "
p3035
I12
sS'business '
p3036
I1
sS'bajillionaire '
p3037
I1
sS'looking '
p3038
I1
sS'nice '
p3039
I1
sS'well- '
p3040
I2
sS'long '
p3041
I2
sS'shuffle '
p3042
I1
sS'knows '
p3043
I1
sS'not '
p3044
I1
sS'bottoms- '
p3045
I1
stp3046
a((lp3047
S'liz'
p3048
aS'Liz'
p3049
a(dp3050
S'dix '
p3051
I1
sS'lemon '
p3052
I3
sS'uh '
p3053
I2
sS'trees '
p3054
I1
sS'marquee '
p3055
I1
sS'new '
p3056
I1
sS'see '
p3057
I1
sS'no '
p3058
I3
sS'dad '
p3059
I1
sS'hey '
p3060
I1
sS'jack '
p3061
I1
sS'earn '
p3062
I1
sS'down '
p3063
I2
sS'disembark '
p3064
I1
sS'conversation '
p3065
I1
sS'donaghy '
p3066
I1
sS'oaks '
p3067
I1
sS'staring '
p3068
I1
sS'i '
p3069
I1
sS'just '
p3070
I1
sS'ugh '
p3071
I1
sS'shirt '
p3072
I1
sS'plan '
p3073
I1
sS'dnieper '
p3074
I1
sS'sue '
p3075
I1
sS'hemorrhoid '
p3076
I1
sS'metaphor '
p3077
I1
sS'haven '
p3078
I1
sS'cover '
p3079
I1
sS'good '
p3080
I1
sS'rather '
p3081
I1
sS'2 '
p3082
I1
sS'pages '
p3083
I1
sS'team '
p3084
I1
sS'lighting '
p3085
I1
sS'painting '
p3086
I1
sS'thank '
p3087
I2
sS'vote '
p3088
I1
sS'sit '
p3089
I1
sS'cleaners '
p3090
I1
sS'success '
p3091
I1
sS'oh '
p3092
I2
sS'tray '
p3093
I2
sS'kidding '
p3094
I1
sS'awards '
p3095
I1
sS'great '
p3096
I1
sS'liz '
p3097
I213
sS'invaded '
p3098
I1
sS'meeting '
p3099
I1
sS'corrective '
p3100
I1
sS'dude '
p3101
I1
sS'thanks '
p3102
I1
sS'bananas '
p3103
I1
sS'this '
p3104
I1
sS'ken '
p3105
I1
sS'we '
p3106
I2
sS'all '
p3107
I1
sS'checking '
p3108
I1
sS'jenna '
p3109
I4
sS'wearing '
p3110
I1
sS'night '
p3111
I1
sS'domani '
p3112
I1
sS'crazy '
p3113
I2
sS'liz, '
p3114
I2
sS'yeah '
p3115
I2
sS'tacos '
p3116
I1
sS'tracy '
p3117
I1
sS'insinuates '
p3118
I1
sS'something '
p3119
I1
stp3120
a((lp3121
S'ankommen'
p3122
aS'Ankommen'
p3123
a(dp3124
S'live '
p3125
I3
sS'before '
p3126
I1
sS'driving '
p3127
I1
sS'arrive '
p3128
I26
sS'given '
p3129
I2
sS'coming '
p3130
I4
sS'jump '
p3131
I1
sS'poltergeist '
p3132
I1
sS'bluff '
p3133
I3
sS'there '
p3134
I1
sS'rather '
p3135
I1
sS'compete '
p3136
I2
sS'home '
p3137
I1
sS'arrival '
p3138
I1
sS'chances '
p3139
I9
sS'land '
p3140
I4
sS'arriving '
p3141
I2
sS'chance '
p3142
I5
sS'mabel '
p3143
I2
sS'beaten '
p3144
I1
sS'get '
p3145
I19
sS'reach '
p3146
I1
sS'take '
p3147
I1
sS'here '
p3148
I1
sS'back '
p3149
I1
stp3150
a((lp3151
S'das'
p3152
aS'Das'
p3153
a(dp3154
S'better '
p3155
I1
sS': '
p3156
I1
sS'ever '
p3157
I4
sS'this, '
p3158
I12
sS'deal '
p3159
I1
sS'meant '
p3160
I2
sS'really '
p3161
I25
sS'up '
p3162
I5
sS'uh- '
p3163
I2
sS'glorious '
p3164
I1
sS'winning '
p3165
I1
sS'hmm '
p3166
I4
sS'today '
p3167
I2
sS'remains '
p3168
I1
sS'- '
p3169
I287
sS'wally '
p3170
I1
sS'sounds '
p3171
I3
sS'luck '
p3172
I1
sS'weak '
p3173
I1
sS't '
p3174
I6
sS'shit '
p3175
I3
sS'else '
p3176
I1
sS'me '
p3177
I6
sS'it" '
p3178
I3
sS'akator '
p3179
I1
sS'running '
p3180
I1
sS'should '
p3181
I4
sS'answer '
p3182
I1
sS'that '
p3183
I46087
sS'make '
p3184
I3
sS'health '
p3185
I1
sS'him '
p3186
I6
sS'oduvek '
p3187
I1
sS'say '
p3188
I6
sS'everything '
p3189
I18
sS'them, '
p3190
I1
sS'maybe '
p3191
I8
sS'must '
p3192
I1
sS'here '
p3193
I132
sS'pieces '
p3194
I1
sS'\\u007f\\u007fthis '
p3195
I1
sS'lako '
p3196
I1
sS'guess '
p3197
I3
sS'know '
p3198
I6
sS'tha\\u009ds '
p3199
I9
sS'always '
p3200
I1
sS'stitches '
p3201
I1
sS'right '
p3202
I18
sS'believe '
p3203
I1
sS'sir '
p3204
I1
sS'thatat '
p3205
I1
sS'whose '
p3206
I1
sS'off '
p3207
I1
sS'three '
p3208
I1
sS'handle '
p3209
I1
sS'wrong '
p3210
I5
sS'certainly '
p3211
I4
sS'and '
p3212
I45
sS'ofjerusalem '
p3213
I1
sS'nothing '
p3214
I14
sS'take '
p3215
I9
sS'mr. '
p3216
I2
sS'big '
p3217
I1
sS'461 '
p3218
I1
sS'none '
p3219
I2
sS'shouldn '
p3220
I1
sS'half '
p3221
I1
sS"'t "
p3222
I9
sS'keep '
p3223
I1
sS', '
p3224
I11
sS'baseball '
p3225
I1
sS'talk '
p3226
I1
sS'listen '
p3227
I1
sS'somebody '
p3228
I1
sS'being '
p3229
I3
sS'thou '
p3230
I1
sS'ho '
p3231
I1
sS'boat '
p3232
I1
sS'harry '
p3233
I1
sS'sascha '
p3234
I1
sS'its '
p3235
I9
sS'uh '
p3236
I19
sS'no '
p3237
I182
sS'the '
p3238
I24243
sS'ok '
p3239
I2
sS'paulie '
p3240
I1
sS'shh '
p3241
I1
sS'looks '
p3242
I1
sS'making '
p3243
I1
sS'wow '
p3244
I11
sS'course '
p3245
I2
sS'already '
p3246
I6
sS'did '
p3247
I12
sS'it\\u2019 '
p3248
I21
sS'then '
p3249
I13
sS'heels '
p3250
I1
sS'if '
p3251
I2
sS'look '
p3252
I27
sS'thinking '
p3253
I1
sS'little '
p3254
I1
sS'happened '
p3255
I1
sS'it '
p3256
I17691
sS'kids '
p3257
I1
sS'great '
p3258
I2
sS'this- '
p3259
I1
sS'l '
p3260
I2
sS'all '
p3261
I43
sS'our '
p3262
I61
sS'fine '
p3263
I5
sS'than '
p3264
I1
sS'gent '
p3265
I1
sS'have '
p3266
I3
sS"'re "
p3267
I5
sS'th '
p3268
I9
sS'never '
p3269
I3
sS'soon '
p3270
I1
sS'small '
p3271
I2
sS'as '
p3272
I14
sS'mm '
p3273
I1
sS'or '
p3274
I3
sS'bookie '
p3275
I1
sS'at '
p3276
I1
sS'could '
p3277
I1
sS'yes '
p3278
I38
sS'lt '
p3279
I9
sS'is '
p3280
I12
sS'hoodoo '
p3281
I1
sS'even '
p3282
I1
sS'believed '
p3283
I1
sS'pointedly '
p3284
I1
sS'things '
p3285
I21
sS'go '
p3286
I1
sS'happening '
p3287
I10
sS'but '
p3288
I34
sS'too '
p3289
I7
sS'makes '
p3290
I1
sS'tha '
p3291
I3
sS'mrs. '
p3292
I1
sS'mmm '
p3293
I1
sS'i- '
p3294
I4
sS'cora\\u00e3o '
p3295
I1
sS'be '
p3296
I10
sS'remember '
p3297
I1
sS'wimps '
p3298
I1
sS'her '
p3299
I36
sS'first '
p3300
I1
sS'ted '
p3301
I1
sS'don '
p3302
I14
sS'serious '
p3303
I3
sS'was '
p3304
I2
sS'except '
p3305
I3
sS'give '
p3306
I2
sS'to '
p3307
I53
sS'dawn '
p3308
I1
sS'wh '
p3309
I1
sS'gonna '
p3310
I16
sS'huh '
p3311
I1
sS'bet '
p3312
I1
sS'coming '
p3313
I6
sS'well '
p3314
I157
sS'aw '
p3315
I1
sS'flirting '
p3316
I1
sS'dohis '
p3317
I1
sS'ths '
p3318
I1
sS'do '
p3319
I37
sS'guys '
p3320
I1
sS'understand '
p3321
I3
sS'damn '
p3322
I1
sS'congratulations '
p3323
I1
sS'cam '
p3324
I1
sS'sklp '
p3325
I1
sS'very '
p3326
I4
sS'o- '
p3327
I1
sS'an '
p3328
I13
sS'judgments '
p3329
I1
sS'confirm '
p3330
I1
sS'tell '
p3331
I16
sS'see '
p3332
I8
sS'das '
p3333
I10
sS'because '
p3334
I3
sS'* '
p3335
I2
sS'tehd\xc3\xa4 '
p3336
I1
sS'saying '
p3337
I1
sS'not '
p3338
I24
sS'yeah '
p3339
I79
sS'one '
p3340
I33
sS'word '
p3341
I1
sS'it\xc3\xa9 '
p3342
I2
sS'rather '
p3343
I1
sS'mean '
p3344
I38
sS'gitti '
p3345
I1
sS'true '
p3346
I2
sS'try '
p3347
I1
sS'boubacar '
p3348
I1
sS'about '
p3349
I22
sS'please '
p3350
I5
sS'would '
p3351
I4
sS'talking '
p3352
I1
sS'dumbass '
p3353
I1
sS'ain '
p3354
I1
sS'will, '
p3355
I1
sS'them '
p3356
I58
sS'write '
p3357
I1
sS'sheldon '
p3358
I1
sS'into '
p3359
I1
sS'end '
p3360
I2
sS'having '
p3361
I3
sS'face '
p3362
I1
sS'figure '
p3363
I1
sS'come '
p3364
I11
sS'man '
p3365
I1
sS'date '
p3366
I2
sS'he '
p3367
I330
sS'whatever '
p3368
I2
sS'sets '
p3369
I1
sS'doing '
p3370
I11
sS'after '
p3371
I1
sS'exactly '
p3372
I4
sS'thanks '
p3373
I9
sS'his '
p3374
I89
sS'sort '
p3375
I4
sS"'s "
p3376
I165
sS'those '
p3377
I382
sS'picture '
p3378
I1
sS'that, '
p3379
I42
sS'that\\u2019 '
p3380
I20
sS'done '
p3381
I2
sS'spanish '
p3382
I1
sS'straighter '
p3383
I1
sS'on, '
p3384
I1
sS'there '
p3385
I537
sS'hey '
p3386
I24
sS'fucking '
p3387
I7
sS'like '
p3388
I25
sS'thats '
p3389
I41
sS'fudge '
p3390
I1
sS'dude '
p3391
I1
sS'okay '
p3392
I21
sS'care '
p3393
I5
sS'olmaz '
p3394
I1
sS'will '
p3395
I6
sS'who '
p3396
I90
sS'tabs '
p3397
I1
sS'cheer '
p3398
I1
sS'kind '
p3399
I1
sS'where '
p3400
I4
sS'meet '
p3401
I4
sS'blame '
p3402
I1
sS'well, '
p3403
I3
sS'these '
p3404
I657
sS'of '
p3405
I5
sS'phil '
p3406
I1
sS"'m "
p3407
I2
sS'dad '
p3408
I4
sS'your '
p3409
I287
sS'away '
p3410
I1
sS'mean, '
p3411
I1
sS'how '
p3412
I62
sS'some '
p3413
I6
sS'smoke '
p3414
I1
sS'" '
p3415
I15
sS'can '
p3416
I3
sS'sit '
p3417
I1
sS'lamb '
p3418
I1
sS'hello '
p3419
I3
sS'i '
p3420
I1910
sS'sure '
p3421
I26
sS'people '
p3422
I2
sS'damage '
p3423
I1
sS'get '
p3424
I3
sS'madjembe '
p3425
I2
sS'sam '
p3426
I2
sS'bell '
p3427
I1
sS'pasta '
p3428
I1
sS'cool '
p3429
I1
sS'i\\u2019 '
p3430
I3
sS'thing '
p3431
I33
sS'which '
p3432
I276
sS'going '
p3433
I3
sS'only '
p3434
I2
sS'am '
p3435
I1
sS'actually '
p3436
I8
sS'perfect '
p3437
I1
sS'y- '
p3438
I1
sS'work '
p3439
I1
sS'oh, '
p3440
I3
sS'sovereign '
p3441
I1
sS'hes '
p3442
I1
sS'surprised '
p3443
I1
sS'( '
p3444
I29
sS'sorry '
p3445
I5
sS'let '
p3446
I37
sS'we '
p3447
I349
sS'ha '
p3448
I1
sS'el '
p3449
I2
sS'degree '
p3450
I1
sS'lurching '
p3451
I1
sS'any '
p3452
I3
sS"'ll "
p3453
I5
sS'deserve '
p3454
I1
sS'just '
p3455
I47
sS'theirs '
p3456
I1
sS'before '
p3457
I1
sS'tonight '
p3458
I1
sS'tara '
p3459
I1
sS'good '
p3460
I22
sS'their '
p3461
I14
sS'indeed '
p3462
I7
sS'stuff '
p3463
I6
sS'she '
p3464
I110
sS'might '
p3465
I3
sS'think '
p3466
I4
sS'yours '
p3467
I3
sS'totally '
p3468
I2
sS'father '
p3469
I1
sS'out '
p3470
I2
sS'such '
p3471
I12
sS'happen '
p3472
I1
sS'um '
p3473
I6
sS'quite '
p3474
I3
sS'stop '
p3475
I5
sS'mine '
p3476
I3
sS'nobody '
p3477
I1
sS'now '
p3478
I46
sS'for '
p3479
I58
sS'tall '
p3480
I1
sS'every '
p3481
I3
sS'jack '
p3482
I1
sS'. '
p3483
I1
sS'wasn '
p3484
I1
sS'why '
p3485
I22
sS'so '
p3486
I393
sS'ah '
p3487
I9
sS'rahl '
p3488
I1
sS'doesn '
p3489
I1
sS'couldn '
p3490
I2
sS'you '
p3491
I1617
sS'they '
p3492
I740
sS'what '
p3493
I408
sS'john '
p3494
I1
sS'another '
p3495
I1
sS'agnew '
p3496
I1
sS'this '
p3497
I24232
sS'break- '
p3498
I1
sS'dish '
p3499
I1
sS'[ '
p3500
I40
sS'wait '
p3501
I6
sS'thls '
p3502
I3
sS'yes, '
p3503
I1
sS'everybody '
p3504
I4
sS"' "
p3505
I28
sS'spoiler '
p3506
I1
sS'-- '
p3507
I3
sS'hell '
p3508
I1
sS'# '
p3509
I2
sS'jesus '
p3510
I1
sS'hurry '
p3511
I1
sS'does '
p3512
I5
sS'a '
p3513
I454
sS'god '
p3514
I4
sS'crystal '
p3515
I1
sS'oh '
p3516
I109
sS'whoa '
p3517
I2
sS'my '
p3518
I105
sS'raccoon, '
p3519
I1
sS'in '
p3520
I6
sS'coffee '
p3521
I2
sS'something '
p3522
I39
sS'simpson, '
p3523
I1
sS'back '
p3524
I2
stp3525
a((lp3526
S'action'
p3527
aS'Action'
p3528
a(dp3529
S'uhh '
p3530
I1
sS'angle '
p3531
I1
sS'and '
p3532
I1
sS'rather '
p3533
I1
sS'charlotte '
p3534
I1
sS'sounds '
p3535
I1
sS'basement '
p3536
I1
sS'edward '
p3537
I1
sS'lot '
p3538
I1
sS'action '
p3539
I79
sS'trouble '
p3540
I1
stp3541
a((lp3542
S'metallplatte'
p3543
aS'Metallplatte'
p3544
a(dp3545
S'bureau '
p3546
I1
sS'rather '
p3547
I1
stp3548
a((lp3549
S'kiarzukommen'
p3550
aS'Kiarzukommen'
p3551
a(dp3552
tp3553
a((lp3554
S'setzte'
p3555
aS'Setzte'
p3556
a(dp3557
S'staked '
p3558
I1
sS'pushed '
p3559
I2
sS'go '
p3560
I1
sS'set '
p3561
I5
sS'sit '
p3562
I1
sS'reset '
p3563
I1
sS'posted '
p3564
I1
sS'rather '
p3565
I1
sS'routnely '
p3566
I1
sS'sat '
p3567
I10
sS'putting '
p3568
I2
sS'bet '
p3569
I2
sS'put '
p3570
I17
sS'chased '
p3571
I1
sS'betting '
p3572
I2
sS'sets '
p3573
I1
sS'lit '
p3574
I1
sS'dropped '
p3575
I4
sS'went '
p3576
I1
stp3577
a((lp3578
S'rate'
p3579
aS'Rate'
p3580
a(dp3581
S'sex '
p3582
I1
sS"'m "
p3583
I1
sS'better '
p3584
I2
sS'hint '
p3585
I1
sS'statistics '
p3586
I1
sS'ok '
p3587
I1
sS'advise '
p3588
I13
sS'know '
p3589
I1
sS'instalment '
p3590
I1
sS'merry '
p3591
I1
sS'suggest '
p3592
I8
sS'payment '
p3593
I1
sS'bill '
p3594
I1
sS'urge '
p3595
I1
sS'installment '
p3596
I2
sS'rather '
p3597
I1
sS'make '
p3598
I1
sS'strongly '
p3599
I1
sS'consulting '
p3600
I1
sS'blew '
p3601
I1
sS'stupid '
p3602
I1
sS'advised '
p3603
I2
sS'advising '
p3604
I1
sS'whiffing '
p3605
I1
sS'number '
p3606
I1
sS'think '
p3607
I2
sS'you '
p3608
I4
sS'don '
p3609
I2
sS"'e "
p3610
I1
sS'consult '
p3611
I1
sS'encourage '
p3612
I2
sS'merely '
p3613
I1
sS'recommend '
p3614
I1
sS'advice '
p3615
I3
sS'rate '
p3616
I11
sS'guessing '
p3617
I7
sS'guess '
p3618
I122
sS'killed '
p3619
I1
sS'amazing '
p3620
I1
sS'know- '
p3621
I1
sS'lucky '
p3622
I1
stp3623
a((lp3624
S'mehr'
p3625
aS'Mehr'
p3626
a(dp3627
S'aii '
p3628
I2
sS'matter '
p3629
I2
sS'going '
p3630
I5
sS'better '
p3631
I70
sS'no '
p3632
I3
sS'ever '
p3633
I3
sS'the '
p3634
I1
sS'down '
p3635
I1
sS'tired '
p3636
I1
sS'many '
p3637
I3
sS'work '
p3638
I3
sS'then '
p3639
I2
sS'really '
p3640
I3
sS'up '
p3641
I8
sS'stopped '
p3642
I36
sS'few '
p3643
I1
sS'won '
p3644
I3
sS'kilos '
p3645
I1
sS'dead '
p3646
I2
sS'focus '
p3647
I1
sS'for '
p3648
I1
sS'nothing '
p3649
I2
sS'it '
p3650
I22
sS'forgotten '
p3651
I1
sS'about '
p3652
I3
sS'more '
p3653
I5646
sS'empty '
p3654
I1
sS'anything '
p3655
I4
sS'next '
p3656
I1
sS'- '
p3657
I1
sS'help '
p3658
I2
sS'all '
p3659
I67
sS'talking '
p3660
I2
sS'best '
p3661
I14
sS'unacceptable '
p3662
I1
sS'ohh '
p3663
I1
sS'have '
p3664
I20
sS'them '
p3665
I2
sS'totally '
p3666
I1
sS'any '
p3667
I13
sS'else '
p3668
I54
sS'me '
p3669
I2
sS'getting '
p3670
I2
sS'quit '
p3671
I1
sS'end '
p3672
I3
sS'as '
p3673
I3
sS'left '
p3674
I95
sS'harder '
p3675
I7
sS'most '
p3676
I2
sS'farther '
p3677
I1
sS'just '
p3678
I2
sS'finished '
p3679
I2
sS'that '
p3680
I171
sS'come '
p3681
I3
sS'find '
p3682
I1
sS'used '
p3683
I1
sS'pretty '
p3684
I1
sS'mainly '
p3685
I3
sS'time '
p3686
I7
sS'stay '
p3687
I1
sS'uncomfortable '
p3688
I1
sS'mnh '
p3689
I1
sS'remembers '
p3690
I1
sS'lots '
p3691
I1
sS'even '
p3692
I36
sS'eyes '
p3693
I1
sS'everything '
p3694
I1
sS'able '
p3695
I11
sS'days '
p3696
I3
sS'worse '
p3697
I10
sS'stops '
p3698
I1
sS'sort '
p3699
I2
sS'less '
p3700
I3
sS'go '
p3701
I11
sS'forget '
p3702
I1
sS'out '
p3703
I63
sS"'s "
p3704
I1
sS'plus '
p3705
I2
sS'stand '
p3706
I6
sS'play '
p3707
I1
sS'here '
p3708
I1
sS'stop '
p3709
I34
sS'easymore '
p3710
I1
sS'muuta '
p3711
I1
sS'anyone '
p3712
I1
sS'too '
p3713
I1
sS'live '
p3714
I2
sS'now '
p3715
I42
sS'anymore '
p3716
I1472
sS'rs '
p3717
I1
sS'want '
p3718
I10
sS'done '
p3719
I21
sS'other '
p3720
I14
sS'serendipity '
p3721
I1
sS'bored '
p3722
I1
sS'last '
p3723
I2
sS'hotter '
p3724
I1
sS'nothings '
p3725
I1
sS'love '
p3726
I1
sS'. '
p3727
I1
sS'be '
p3728
I68
sS'there '
p3729
I1
sS'mitts '
p3730
I1
sS'remember '
p3731
I52
sS'bigger '
p3732
I9
sS'beyond '
p3733
I25
sS'rather '
p3734
I1
sS'pockets '
p3735
I1
sS'much '
p3736
I33
sS'so '
p3737
I2
sS'fucking '
p3738
I1
sS'like '
p3739
I1
sS'on '
p3740
I4
sS'off '
p3741
I11
sS'closer '
p3742
I1
sS'plenty '
p3743
I1
sS'another '
p3744
I10
sS'this '
p3745
I8
sS'enough '
p3746
I5
sS'tried '
p3747
I1
sS'anylonger '
p3748
I1
sS'give '
p3749
I16
sS'greater '
p3750
I1
sS'old '
p3751
I1
sS'further '
p3752
I14
sS'either '
p3753
I1
sS'take '
p3754
I3
sS'worthier '
p3755
I1
sS'others '
p3756
I6
sS'to '
p3757
I20
sS'lost '
p3758
I9
sS'far '
p3759
I2
sS'gonna '
p3760
I23
sS'over '
p3761
I4
sS'rising '
p3762
I1
sS'past '
p3763
I2
sS'water '
p3764
I2
sS'words '
p3765
I1
sS'extra '
p3766
I10
sS'of '
p3767
I1
sS'keep '
p3768
I12
sS', '
p3769
I1
sS"'m "
p3770
I1
sS'since '
p3771
I4
sS'away '
p3772
I2
sS'sick '
p3773
I2
sS'money '
p3774
I1
sS'worry '
p3775
I1
sS'late '
p3776
I3
sS'some '
p3777
I13
sS'details '
p3778
I1
sS'not '
p3779
I3
sS"'t "
p3780
I5
sS'can '
p3781
I1
sS'again '
p3782
I110
sS'increased '
p3783
I1
sS'forgot '
p3784
I4
sS'longer '
p3785
I245
sS'see '
p3786
I2
sS'i '
p3787
I2
sS'been '
p3788
I14
sS'in '
p3789
I2
sS'representing '
p3790
I1
sS'lot '
p3791
I1
sS'speak '
p3792
I1
sS'real '
p3793
I1
sS'gone '
p3794
I52
sS'need '
p3795
I2
sS'back '
p3796
I28
sS'thing '
p3797
I1
sS'still '
p3798
I13
sS'something '
p3799
I5
stp3800
a((lp3801
S'guckt'
p3802
aS'Guckt'
p3803
a(dp3804
S'watching '
p3805
I2
sS'happy '
p3806
I1
sS'bovver '
p3807
I1
sS'where '
p3808
I1
sS'giving '
p3809
I2
sS'tattoo '
p3810
I1
sS'looks '
p3811
I7
sS'comes '
p3812
I1
sS'sickness '
p3813
I1
sS'facing '
p3814
I1
sS'staring '
p3815
I1
sS'look '
p3816
I35
sS'shoebox '
p3817
I1
sS'rather '
p3818
I1
sS'peeking '
p3819
I1
sS'owls '
p3820
I1
sS'is '
p3821
I2
sS'watch '
p3822
I3
sS'looked '
p3823
I2
sS'ls '
p3824
I1
sS'looking '
p3825
I22
sS'gauge '
p3826
I1
sS'see '
p3827
I1
sS'selfish '
p3828
I1
sS'are '
p3829
I1
sS'tables '
p3830
I2
sS'check '
p3831
I4
sS'youreal '
p3832
I1
sS'watches '
p3833
I3
stp3834
a((lp3835
S'etwas'
p3836
aS'Etwas'
p3837
a(dp3838
S'one '
p3839
I29
sS'feel '
p3840
I1
sS'certain '
p3841
I1
sS'word '
p3842
I4
sS'uh '
p3843
I1
sS'plenty '
p3844
I1
sS'matter '
p3845
I2
sS'would '
p3846
I1
sS'kinda '
p3847
I11
sS'talk '
p3848
I1
sS'up '
p3849
I1
sS'dennis '
p3850
I1
sS'few '
p3851
I5
sS'strange '
p3852
I1
sS'try '
p3853
I1
sS'personal '
p3854
I2
sS'surprises '
p3855
I1
sS'little '
p3856
I944
sS'it '
p3857
I26
sS'ever '
p3858
I1
sS'about '
p3859
I7
sS'more '
p3860
I9
sS'god '
p3861
I1
sS'obligation '
p3862
I1
sS"'ve "
p3863
I2
sS'anything '
p3864
I1087
sS'avoiding '
p3865
I1
sS'story '
p3866
I2
sS'any '
p3867
I76
sS'else '
p3868
I3
sS'food '
p3869
I1
sS'getting '
p3870
I1
sS'somewhere '
p3871
I3
sS'her '
p3872
I1
sS'record '
p3873
I1
sS'something, '
p3874
I9
sS'stuff '
p3875
I12
sS'just '
p3876
I10
sS'could '
p3877
I1
sS'that '
p3878
I1
sS'come '
p3879
I1
sS'make '
p3880
I1
sS'rhythm '
p3881
I1
sS'saw '
p3882
I1
sS'whatever '
p3883
I1
sS'mind '
p3884
I1
sS'sestii '
p3885
I1
sS'presence '
p3886
I2
sS'blue '
p3887
I1
sS'might '
p3888
I1
sS'maybe '
p3889
I1
sS'somethinng '
p3890
I1
sS'sort '
p3891
I2
sS'things '
p3892
I80
sS'go '
p3893
I1
sS'out '
p3894
I2
sS"'s "
p3895
I5
sS'happen '
p3896
I1
sS'must '
p3897
I1
sS'add '
p3898
I2
sS'quite '
p3899
I2
sS'here '
p3900
I1
sS'felt '
p3901
I1
sS'wanna '
p3902
I2
sS'have '
p3903
I8
sS'know '
p3904
I4
sS'a '
p3905
I399
sS'own '
p3906
I2
sS'. '
p3907
I1
sS'idea '
p3908
I1
sS'be '
p3909
I1
sS'thread '
p3910
I1
sS'there '
p3911
I3
sS'soomething '
p3912
I3
sS'rather '
p3913
I1
sS'right '
p3914
I1
sS'like '
p3915
I8
sS'on '
p3916
I1
sS'somethng '
p3917
I3
sS'you '
p3918
I4
sS'information '
p3919
I1
sS'what '
p3920
I32
sS'was '
p3921
I1
sS'another '
p3922
I3
sS'dif '
p3923
I1
sS'this '
p3924
I8
sS'... '
p3925
I1
sS'wrong '
p3926
I2
sS'somethingfor '
p3927
I1
sS'we '
p3928
I1
sS'bit '
p3929
I270
sS'care '
p3930
I1
sS'nothing '
p3931
I37
sS'to '
p3932
I42
sS'gift '
p3933
I2
sS'gonna '
p3934
I1
sS'kind '
p3935
I41
sS'heard '
p3936
I1
sS'well '
p3937
I1
sS'scoffs '
p3938
I1
sS'of '
p3939
I1
sS', '
p3940
I2
sS'do '
p3941
I6
sS"'m "
p3942
I2
sS'somethi '
p3943
I1
sS'somewhat '
p3944
I7
sS'linked '
p3945
I1
sS'somethingshe '
p3946
I1
sS'some '
p3947
I1367
sS'slightly '
p3948
I16
sS'taste '
p3949
I2
sS'business '
p3950
I2
sS'an '
p3951
I9
sS'never '
p3952
I2
sS'tell '
p3953
I1
sS'somethin '
p3954
I28
sS'simon '
p3955
I1
sS'hear '
p3956
I1
sS'shared '
p3957
I1
sS'piece '
p3958
I1
sS'part '
p3959
I2
sS'someone '
p3960
I4
sS'especially '
p3961
I1
sS'get '
p3962
I2
sS'somthing '
p3963
I1
sS'stepping '
p3964
I1
sS'not '
p3965
I1
sS'thing '
p3966
I177
sS'something '
p3967
I6664
stp3968
a((lp3969
S'korb'
p3970
aS'Korb'
p3971
a(dp3972
S'dumped '
p3973
I6
sS'chuckles '
p3974
I1
sS'single '
p3975
I1
sS'roost '
p3976
I1
sS'picnic '
p3977
I1
sS'game '
p3978
I1
sS'rather '
p3979
I1
sS'heisman '
p3980
I1
sS'basket '
p3981
I38
sS'bucket '
p3982
I1
sS'hoop '
p3983
I2
sS'including '
p3984
I1
sS'anyways '
p3985
I1
stp3986
a((lp3987
S'als'
p3988
aS'Als'
p3989
a(dp3990
S'feel '
p3991
I1
sS'while '
p3992
I76
sS'only '
p3993
I6
sS'that '
p3994
I46
sS'the '
p3995
I85
sS'timewhen '
p3996
I1
sS'morethan '
p3997
I1
sS'did '
p3998
I1
sS'then '
p3999
I38
sS'with '
p4000
I15
sS'up '
p4001
I1
sS'iike '
p4002
I8
sS'if '
p4003
I12
sS'dead '
p4004
I1
sS'pretending '
p4005
I12
sS'al '
p4006
I4
sS'senator '
p4007
I1
sS'about '
p4008
I1
sS'( '
p4009
I1
sS'moment '
p4010
I2
sS'because '
p4011
I2
sS'- '
p4012
I8
sS'all '
p4013
I3
sS'than '
p4014
I5051
sS"'re "
p4015
I1
sS'piu '
p4016
I1
sS'gayle '
p4017
I1
sS'last '
p4018
I1
sS'as '
p4019
I3515
sS'once '
p4020
I46
sS'job '
p4021
I1
sS'past '
p4022
I3
sS'by '
p4023
I16
sS'just '
p4024
I6
sS'yourselfwhen '
p4025
I1
sS'at '
p4026
I8
sS'before '
p4027
I20
sS'rather '
p4028
I1
sS'is '
p4029
I6
sS'time '
p4030
I39
sS'day '
p4031
I15
sS'even '
p4032
I3
sS'after '
p4033
I40
sS'when '
p4034
I4686
sS'seeing '
p4035
I2
sS'um '
p4036
I1
sS'telling '
p4037
I1
sS'way '
p4038
I1
sS'share '
p4039
I1
sS'above '
p4040
I3
sS'but '
p4041
I128
sS'for '
p4042
I96
sS'rs '
p4043
I1
sS'offered '
p4044
I1
sS'times '
p4045
I1
sS'under '
p4046
I1
sS'be '
p4047
I34
sS'now '
p4048
I2
sS'50 '
p4049
I1
sS'beyond '
p4050
I5
sS'favor '
p4051
I1
sS'acting '
p4052
I1
sS'were '
p4053
I1
sS'so '
p4054
I29
sS'from '
p4055
I38
sS'like '
p4056
I2869
sS'on '
p4057
I5
sS'pretends '
p4058
I1
sS'couldn '
p4059
I1
sS'you '
p4060
I4
sS'what '
p4061
I12
sS'was '
p4062
I12
sS'are '
p4063
I1
sS'pretend '
p4064
I72
sS'and '
p4065
I35
sS'earth '
p4066
I1
sS'he '
p4067
I1
sS'to '
p4068
I41
sS'being '
p4069
I33
sS'where '
p4070
I3
sS'over '
p4071
I50
sS"' "
p4072
I2
sS'-- '
p4073
I1
sS'of '
p4074
I15
sS'though '
p4075
I1
sS', '
p4076
I1
sS'since '
p4077
I11
sS'your '
p4078
I1
sS'how '
p4079
I3
sS'th '
p4080
I1
sS'a '
p4081
I334
sS'ka- '
p4082
I1
sS'an '
p4083
I8
sS'consider '
p4084
I10
sS'see '
p4085
I1
sS'i '
p4086
I9
sS'in '
p4087
I42
sS'highlighted '
p4088
I1
sS'en '
p4089
I1
sS'night '
p4090
I4
sS'not '
p4091
I1
stp4092
a((lp4093
S'beides'
p4094
aS'Beides'
p4095
a(dp4096
S'drunk '
p4097
I1
sS'does '
p4098
I1
sS'neither '
p4099
I1
sS'build '
p4100
I1
sS'all '
p4101
I1
sS'those '
p4102
I2
sS'both '
p4103
I158
sS'them '
p4104
I1
sS'rather '
p4105
I1
sS'utopian '
p4106
I1
sS'take '
p4107
I3
sS'none '
p4108
I1
sS'seriously '
p4109
I1
sS'things '
p4110
I1
sS'either '
p4111
I6
sS'chicken '
p4112
I1
stp4113
a.