(lp0
((lp1
S'm\xc3\xb6glicherweise'
p2
aS'M\xc3\xb6glicherweise'
p3
a(dp4
S'definitely '
p5
I1
sS'may '
p6
I37
sS'shove '
p7
I1
sS'guess '
p8
I1
sS'or '
p9
I1
sS'fortunately '
p10
I2
sS'possibility '
p11
I2
sS'neil '
p12
I1
sS'possible '
p13
I13
sS'could '
p14
I3
sS'owner '
p15
I1
sS'department '
p16
I1
sS'prob '
p17
I1
sS'maybe '
p18
I60
sS'tell '
p19
I1
sS'might '
p20
I44
sS'potentially '
p21
I12
sS'red '
p22
I1
sS'consider '
p23
I1
sS'chance '
p24
I2
sS'possibly '
p25
I64
sS'we '
p26
I1
sS'perhaps '
p27
I15
sS'takumi '
p28
I2
sS'iron '
p29
I1
sS'cool '
p30
I1
sS'probably '
p31
I60
stp32
a((lp33
S'm\xc3\xb6glich'
p34
aS'M\xc3\xb6glich'
p35
a(dp36
S'one '
p37
I2
sS'sweet '
p38
I1
sS'possible, '
p39
I1
sS'better '
p40
I1
sS'nervous '
p41
I1
sS'memories '
p42
I1
sS'cereal '
p43
I1
sS'forbid '
p44
I1
sS'posible '
p45
I1
sS'absolutely '
p46
I1
sS'admit '
p47
I1
sS'kn '
p48
I1
sS'lot '
p49
I1
sS'allowed '
p50
I1
sS'breathlessly '
p51
I1
sS'mom '
p52
I1
sS'should '
p53
I1
sS'bet '
p54
I1
sS'deserve '
p55
I1
sS'possibility '
p56
I5
sS'likely '
p57
I3
sS'options '
p58
I1
sS'possible '
p59
I647
sS'master '
p60
I1
sS'all, '
p61
I1
sS'be '
p62
I19
sS'could '
p63
I26
sS'asap '
p64
I11
sS'true '
p65
I1
sS'option '
p66
I8
sS'theory '
p67
I1
sS'suppose '
p68
I1
sS'how '
p69
I2
sS'againhow '
p70
I1
sS'mother '
p71
I1
sS'sustainable '
p72
I1
sS'deliver '
p73
I1
sS'liable '
p74
I1
sS'believe '
p75
I3
sS'try '
p76
I2
sS'chicken '
p77
I1
sS'mogu\\u0436e '
p78
I2
sS'can '
p79
I87
sS'alive '
p80
I2
sS'poss\xc3\xadvel '
p81
I1
sS'graiman '
p82
I1
sS'oh '
p83
I1
sS'possibly '
p84
I26
sS'might '
p85
I9
sS'impossible '
p86
I20
sS'possibhe '
p87
I1
sS'say '
p88
I1
sS'p. '
p89
I6
sS'chance '
p90
I4
sS'able '
p91
I33
sS'tripped '
p92
I2
sS'maybe '
p93
I23
sS'wrong '
p94
I1
sS'paper '
p95
I1
sS'perhaps '
p96
I1
sS'argument '
p97
I1
sS'time '
p98
I1
sS'best '
p99
I2
sS'later '
p100
I1
sS'happening '
p101
I2
sS'may '
p102
I1
sS'happen '
p103
I12
sS'must '
p104
I1
sS'fire, '
p105
I1
sS'vendors '
p106
I1
sS'dad '
p107
I1
sS'probably '
p108
I3
sS'way '
p109
I13
sS'weakness '
p110
I1
sS'conroy '
p111
I1
stp112
a((lp113
S'unm\xc3\xb6glich'
p114
aS'Unm\xc3\xb6glich'
p115
a(dp116
S'outrageous '
p117
I1
sS'lemon '
p118
I1
sS'no '
p119
I32
sS'innocent '
p120
I1
sS'coming '
p121
I1
sS'cannot '
p122
I7
sS'ended '
p123
I1
sS'dehydrated '
p124
I1
sS"'t "
p125
I24
sS'sake '
p126
I1
sS'can '
p127
I1
sS'possible '
p128
I49
sS'be '
p129
I1
sS'could '
p130
I1
sS'impossibility '
p131
I5
sS'absolutely '
p132
I1
sS'crazy '
p133
I1
sS'limit '
p134
I1
sS'unsustainable '
p135
I1
sS'enzyme '
p136
I1
sS'not '
p137
I1
sS'question '
p138
I4
sS'impossibly '
p139
I1
sS'hard '
p140
I1
sS'couldn '
p141
I1
sS'impossible '
p142
I392
sS'impossible, '
p143
I1
sS'disaster '
p144
I1
sS'exploit '
p145
I1
sS'unacceptabhe '
p146
I1
sS'chance '
p147
I1
sS'tear '
p148
I1
sS'possibly '
p149
I23
sS'nielsen '
p150
I1
sS'terrible '
p151
I1
sS'awful '
p152
I1
sS'lmpossible '
p153
I2
sS'wait '
p154
I1
sS'put '
p155
I2
sS'unable '
p156
I2
sS'stressed '
p157
I1
sS'way '
p158
I15
stp159
a((lp160
S'vielleicht'
p161
aS'Vielleicht'
p162
a(dp163
S'one '
p164
I1
sS'may '
p165
I703
sS'uh '
p166
I1
sS'am '
p167
I1
sS'richard '
p168
I1
sS'no '
p169
I8
sS'ever '
p170
I1
sS'poderia '
p171
I1
sS'would '
p172
I2
sS'ok '
p173
I1
sS'um '
p174
I1
sS'mom '
p175
I2
sS'god '
p176
I2
sS't\xc3\xa4m\xc3\xa4 '
p177
I1
sS'sleepover '
p178
I1
sS'did '
p179
I1
sS'possible '
p180
I7
sS'it\\u2019 '
p181
I1
sS'then '
p182
I2
sS'wonder '
p183
I1
sS'true '
p184
I1
sS'if '
p185
I51
sS'turn '
p186
I1
sS'listen '
p187
I1
sS'try '
p188
I1
sS'shots '
p189
I1
sS'hope '
p190
I1
sS'martini '
p191
I1
sS'everyone '
p192
I1
sS'thinking '
p193
I3
sS'it '
p194
I20
sS'about '
p195
I2
sS'beep '
p196
I1
sS'\\u0442\\u0435\\u0431\\u044f '
p197
I1
sS'( '
p198
I1
sS'chance '
p199
I7
sS'mm- '
p200
I1
sS'weil '
p201
I1
sS'let '
p202
I4
sS'thoseout '
p203
I1
sS'we '
p204
I4
sS'- '
p205
I15
sS'all '
p206
I1
sS'guess '
p207
I4
sS'probably '
p208
I189
sS'any '
p209
I2
sS'me '
p210
I1
sS'and '
p211
I4
sS'course '
p212
I1
sS'likely '
p213
I1
sS'should '
p214
I3
sS'or '
p215
I4
sS'maybe, '
p216
I5
sS'just '
p217
I6
sS'because '
p218
I1
sS'could '
p219
I65
sS'that '
p220
I8
sS'yes '
p221
I4
sS'good '
p222
I1
sS'lies '
p223
I1
sS'wait '
p224
I1
sS'start '
p225
I1
sS'is '
p226
I2
sS'mind '
p227
I11
sS'she '
p228
I9
sS'even '
p229
I6
sS'perhaps, '
p230
I1
sS'might '
p231
I994
sS'think '
p232
I1
sS'say '
p233
I3
sS'suosiollisella '
p234
I1
sS'bowl '
p235
I1
sS'maybe '
p236
I6386
sS'perhaps '
p237
I720
sS'such '
p238
I5
sS'happen '
p239
I4
sS'must '
p240
I2
sS'starting '
p241
I1
sS'quite '
p242
I2
sS'delicate '
p243
I1
sS'but '
p244
I3
sS'now '
p245
I1
sS'whwhat '
p246
I1
sS'for '
p247
I2
sS'wanna '
p248
I1
sS'have '
p249
I8
sS'know '
p250
I2
sS'i '
p251
I70
sS'be '
p252
I14
sS'there '
p253
I5
sS'hey '
p254
I3
sS'suppose '
p255
I2
sS'right '
p256
I1
sS'encores '
p257
I1
sS'batman '
p258
I1
sS'why '
p259
I5
sS'so '
p260
I7
sS'ah '
p261
I2
sS'employees '
p262
I1
sS'sopranos '
p263
I1
sS'like '
p264
I17
sS'jay '
p265
I1
sS'relays '
p266
I1
sS'you '
p267
I14
sS'don '
p268
I2
sS'they '
p269
I4
sS'what '
p270
I13
sS'someone '
p271
I1
sS'hopefully '
p272
I5
sS'possibly '
p273
I19
sS'okay '
p274
I3
sS'except '
p275
I1
sS'decent '
p276
I1
sS'later '
p277
I1
sS'perchance '
p278
I1
sS'probable '
p279
I1
sS'andrea '
p280
I1
sS'he '
p281
I5
sS'teaches '
p282
I1
sS'who '
p283
I1
sS'maby '
p284
I1
sS'wondering '
p285
I1
sS'eventually '
p286
I13
sS'sister '
p287
I1
sS"'d "
p288
I1
sS'bet '
p289
I1
sS'kind '
p290
I1
sS'bret '
p291
I1
sS'well, '
p292
I1
sS'well '
p293
I14
sS'crocker '
p294
I1
sS'wondered '
p295
I3
sS'look '
p296
I1
sS'heart '
p297
I1
sS'how '
p298
I10
sS'jesus '
p299
I1
sS'some '
p300
I6
sS'crusoe '
p301
I1
sS'not '
p302
I1
sS'a '
p303
I3
sS'maybes '
p304
I2
sS'puts '
p305
I1
sS'an '
p306
I1
sS'can '
p307
I2
sS'oh '
p308
I8
sS'tell '
p309
I1
sS'see '
p310
I3
sS'my '
p311
I2
sS'\\u043c\\u0438\\u043b\\u044b\\u0439 '
p312
I1
sS'also '
p313
I1
sS'unless '
p314
I1
sS'hug '
p315
I1
sS'n '
p316
I1
sS'fifteen '
p317
I1
sS'yeah '
p318
I9
sS'do '
p319
I3
sS'something '
p320
I5
stp321
a((lp322
S'wahrscheinlich'
p323
aS'Wahrscheinlich'
p324
a(dp325
S'probablyjust '
p326
I1
sS'oppenheimer '
p327
I1
sS'js '
p328
I1
sS'may '
p329
I15
sS'frogs '
p330
I1
sS'wintersgill '
p331
I1
sS'sister '
p332
I1
sS': '
p333
I1
sS'reckon '
p334
I2
sS'convince '
p335
I1
sS'guess '
p336
I12
sS'probabhy '
p337
I2
sS'obviously '
p338
I2
sS'likely '
p339
I68
sS'tombstone '
p340
I1
sS'uglies '
p341
I1
sS'chance '
p342
I1
sS'already '
p343
I2
sS'shot '
p344
I1
sS'possible '
p345
I2
sS'racist '
p346
I1
sS'be '
p347
I2
sS'approximately '
p348
I1
sS'that '
p349
I4
sS'necessary '
p350
I1
sS'lines '
p351
I1
sS'sure '
p352
I3
sS'suppose '
p353
I3
sS'watches '
p354
I1
sS'fill '
p355
I1
sS'mm '
p356
I1
sS'stupid '
p357
I1
sS'propably '
p358
I1
sS'eventually '
p359
I3
sS'truth '
p360
I1
sS'doing '
p361
I1
sS'pony '
p362
I1
sS'yes '
p363
I1
sS'chances '
p364
I7
sS'maybe '
p365
I12
sS'it '
p366
I5
sS'might '
p367
I24
sS'supposedly '
p368
I1
sS'they '
p369
I1
sS'think '
p370
I9
sS'i '
p371
I2
sS'white '
p372
I1
sS'when '
p373
I1
sS'- '
p374
I1
sS'wasprobably '
p375
I1
sS'possibly '
p376
I10
sS'perhaps '
p377
I1
sS'apparently '
p378
I1
sS'gone '
p379
I1
sS'probable '
p380
I3
sS'odds '
p381
I1
sS'wanted '
p382
I1
sS'awful '
p383
I1
sS'odds- '
p384
I1
sS'must '
p385
I9
sS'possibility '
p386
I1
sS'probably '
p387
I1050
sS'wamapoke '
p388
I1
sS'yeah '
p389
I1
stp390
a((lp391
S'nur'
p392
aS'Nur'
p393
a(dp394
S'one '
p395
I35
sS'checked '
p396
I1
sS'matter '
p397
I2
sS'merely '
p398
I16
sS'stay '
p399
I3
sS'uh '
p400
I3
sS'only '
p401
I5284
sS'am '
p402
I1
sS'knock '
p403
I1
sS'no '
p404
I18
sS'ever '
p405
I4
sS'come '
p406
I5
sS'ok '
p407
I2
sS'while '
p408
I2
sS'llam '
p409
I1
sS'gimme '
p410
I1
sS'down '
p411
I3
sS'making '
p412
I2
sS'actually '
p413
I1
sS'barely '
p414
I1
sS'special '
p415
I1
sS'then '
p416
I1
sS'really '
p417
I1
sS'with '
p418
I4
sS'up '
p419
I1
sS'although '
p420
I1
sS'if '
p421
I6
sS'and- '
p422
I1
sS'between '
p423
I7
sS'he '
p424
I3
sS'either '
p425
I2
sS'for '
p426
I39
sS'look '
p427
I8
sS'thinking '
p428
I8
sS'little '
p429
I2
sS'charlie '
p430
I2
sS'it '
p431
I58
sS'about '
p432
I6
sS'more '
p433
I3
sS'sleep '
p434
I1
sS'opens '
p435
I1
sS'just, '
p436
I9
sS'please '
p437
I4
sS'the '
p438
I6
sS'caffrey '
p439
I1
sS"'ve "
p440
I2
sS'let '
p441
I4
sS'anything '
p442
I2
sS'- '
p443
I6
sS'all '
p444
I336
sS'had '
p445
I2
sS'backstory '
p446
I1
sS'oh '
p447
I2
sS'fine '
p448
I1
sS'than '
p449
I19
sS'youjust '
p450
I1
sS'want '
p451
I3
sS'marco '
p452
I1
sS'them '
p453
I2
sS'jimbotron '
p454
I1
sS'one- '
p455
I5
sS'presents '
p456
I1
sS'other '
p457
I3
sS'very '
p458
I1
sS'getting '
p459
I2
sS'got '
p460
I2
sS'simple '
p461
I1
sS'as '
p462
I19
sS'left '
p463
I1
sS'having '
p464
I1
sS'" '
p465
I1
sS'messing '
p466
I1
sS'just '
p467
I13699
sS'because '
p468
I3
sS'he\\u2019 '
p469
I1
sS'at '
p470
I8
sS'could '
p471
I1
sS'that '
p472
I21
sS'rather '
p473
I2
sS'make '
p474
I3
sS'are '
p475
I2
sS'care '
p476
I1
sS'is '
p477
I356
sS'wearing '
p478
I1
sS'ask '
p479
I1
sS'doing '
p480
I5
sS'anyway '
p481
I1
sS'even '
p482
I39
sS'eyes '
p483
I2
sS'exactly '
p484
I2
sS'might '
p485
I1
sS'derrida '
p486
I1
sS'fair '
p487
I1
sS'say '
p488
I1
sS'everything '
p489
I1
sS'when '
p490
I1
sS'maybe '
p491
I1
sS'lol '
p492
I1
sS'just- '
p493
I1
sS'checking '
p494
I1
sS'go '
p495
I52
sS'forget '
p496
I1
sS'out '
p497
I2
sS"'s "
p498
I41
sS'such '
p499
I2
sS'by '
p500
I4
sS'quite '
p501
I1
sS'lonesome '
p502
I1
sS'always '
p503
I7
sS'fuck '
p504
I1
sS'nobody '
p505
I4
sS'dealing '
p506
I4
sS'but '
p507
I198
sS'too '
p508
I1
sS'there '
p509
I4
sS'hope '
p510
I1
sS'have '
p511
I14
sS'done '
p512
I2
sS'know '
p513
I1
sS'knit '
p514
I1
sS'bring '
p515
I3
sS'sorry '
p516
I3
sS'long '
p517
I1
sS'wants '
p518
I1
sS'be '
p519
I39
sS'gonna '
p520
I4
sS'now '
p521
I4
sS'practiced '
p522
I1
sS'two '
p523
I3
sS'faking '
p524
I6
sS'sure '
p525
I2
sS'whisper '
p526
I1
sS'easy '
p527
I1
sS'she '
p528
I1
sS'won '
p529
I3
sS'were '
p530
I5
sS'... '
p531
I1
sS'why '
p532
I2
sS'much '
p533
I1
sS'being '
p534
I7
sS'from '
p535
I1
sS'guest '
p536
I2
sS'first '
p537
I1
sS'shoot '
p538
I1
sS'on '
p539
I12
sS'ahead '
p540
I57
sS'don '
p541
I6
sS'consideration '
p542
I1
sS'they '
p543
I1
sS'what '
p544
I1
sS'was '
p545
I37
sS'this '
p546
I2
sS'possibly '
p547
I9
sS'wrong '
p548
I1
sS'okay '
p549
I5
sS'except '
p550
I94
sS'give '
p551
I5
sS'and '
p552
I10
sS"'sjust "
p553
I2
sS'my '
p554
I1
sS'private '
p555
I1
sS'wait '
p556
I2
sS'nothing '
p557
I35
sS'take '
p558
I17
sS'sort '
p559
I2
sS'once '
p560
I1
sS'to '
p561
I71
sS'playing '
p562
I1
sS'airline '
p563
I1
sS'so '
p564
I5
sS'pity '
p565
I2
sS"' "
p566
I3
sS'simply '
p567
I48
sS'kind '
p568
I1
sS'well '
p569
I7
sS'problem '
p570
I1
sS"'t "
p571
I51
sS'wish '
p572
I1
sS'keep '
p573
I4
sS'takes '
p574
I1
sS'need '
p575
I1
sS'apart '
p576
I1
sS'do '
p577
I2
sS"'m "
p578
I1
sS'away '
p579
I1
sS"'re "
p580
I2
sS'pure '
p581
I2
sS'ju '
p582
I1
sS'pick '
p583
I1
sS'a '
p584
I43
sS'beef '
p585
I1
sS'an '
p586
I3
sS'can '
p587
I1
sS'move '
p588
I1
sS'never '
p589
I2
sS'of '
p590
I1
sS'strictly '
p591
I4
sS'promise '
p592
I1
sS'i '
p593
I44
sS'you '
p594
I10
sS'in '
p595
I8
sS'products '
p596
I1
sS'taking '
p597
I1
sS'like '
p598
I5
sS'get '
p599
I15
sS'people '
p600
I1
sS'alone '
p601
I14
sS'saying '
p602
I2
sS'justa '
p603
I2
sS'not '
p604
I58
sS'i\\u2019 '
p605
I1
sS'thing '
p606
I6
sS'still '
p607
I1
sS'yeah '
p608
I4
sS'oy '
p609
I1
stp610
a((lp611
S'\xc3\xbcberhaupt'
p612
aS'\xc3\xbcberhaupt'
p613
a(dp614
S'weren '
p615
I4
sS'showed '
p616
I2
sS'happy '
p617
I2
sS'no '
p618
I2
sS'ever '
p619
I142
sS'anybody '
p620
I4
sS'konu\\u015fmak '
p621
I2
sS'actually '
p622
I18
sS'anyways '
p623
I6
sS'really '
p624
I16
sS'absolutely '
p625
I18
sS'shout '
p626
I2
sS'fact '
p627
I4
sS'surprised '
p628
I2
sS'anything '
p629
I64
sS'downplay '
p630
I4
sS'whatever '
p631
I10
sS'all '
p632
I40
sS'evengetting '
p633
I2
sS'talking '
p634
I4
sS'wo0 '
p635
I2
sS'totally '
p636
I8
sS'altogether '
p637
I2
sS'any '
p638
I46
sS'heck '
p639
I4
sS'got '
p640
I2
sS'ything '
p641
I2
sS'completely '
p642
I2
sS'vivian '
p643
I2
sS'anyway '
p644
I256
sS'at '
p645
I560
sS'that '
p646
I2
sS'general '
p647
I2
sS'is '
p648
I2
sS'doing '
p649
I22
sS'she '
p650
I2
sS'even '
p651
I844
sS'25o1 '
p652
I2
sS'fuckin '
p653
I2
sS'everything '
p654
I4
sS'44 '
p655
I2
sS'anyonepossibly '
p656
I2
sS'sweater '
p657
I2
sS'listening '
p658
I4
sS'here '
p659
I4
sS'fuck '
p660
I2
sS'anyone '
p661
I12
sS'dime '
p662
I6
sS'absulotely '
p663
I2
sS'have '
p664
I28
sS'distinguish '
p665
I2
sS'know '
p666
I4
sS'anywhere '
p667
I2
sS'coughlng '
p668
I2
sS'all, '
p669
I2
sS'sure '
p670
I2
sS'begin '
p671
I8
sS'place '
p672
I8
sS'so '
p673
I2
sS'fucking '
p674
I6
sS'doesn '
p675
I2
sS'first '
p676
I36
sS'rhonda '
p677
I2
sS'don '
p678
I8
sS'this '
p679
I4
sS'possibly '
p680
I18
sS'bother '
p681
I2
sS'us '
p682
I2
sS'bit '
p683
I4
sS'nothing '
p684
I4
sS'anyth '
p685
I4
sS'ego '
p686
I2
sS'far '
p687
I4
sS'type '
p688
I2
sS'none '
p689
I4
sS'seme '
p690
I2
sS'whatsoever '
p691
I4
sS'often '
p692
I2
sS'do '
p693
I2
sS'guys '
p694
I4
sS'hell '
p695
I4
sS'anyhow '
p696
I2
sS'music '
p697
I4
sS'admittedly '
p698
I2
sS'business '
p699
I2
sS'way '
p700
I4
sS'people '
p701
I4
sS'get '
p702
I4
sS'todo '
p703
I2
sS'cool '
p704
I6
sS'not '
p705
I10
sS'thing '
p706
I6
sS'still '
p707
I2
sS'entirely '
p708
I2
stp709
a((lp710
S'vermutlich'
p711
aS'Vermutlich'
p712
a(dp713
S'alcoholic '
p714
I1
sS'may '
p715
I5
sS'maybe '
p716
I4
sS'would '
p717
I1
sS'guess '
p718
I30
sS'likely '
p719
I3
sS'butler '
p720
I1
sS'supposed '
p721
I13
sS'course '
p722
I1
sS'possible '
p723
I2
sS'shatner '
p724
I1
sS'be '
p725
I1
sS'guess, '
p726
I2
sS'suppose '
p727
I26
sS'presumably '
p728
I19
sS'misspoke '
p729
I1
sS'or '
p730
I1
sS'enough '
p731
I1
sS'proposal '
p732
I1
sS'gue '
p733
I1
sS'might '
p734
I10
sS'think '
p735
I1
sS'surely '
p736
I1
sS'supposedly '
p737
I4
sS'possibly '
p738
I8
sS'perhaps '
p739
I3
sS'confused '
p740
I1
sS'all '
p741
I1
sS'presumed '
p742
I3
sS'guessing '
p743
I1
sS'bet '
p744
I1
sS'probably '
p745
I423
stp746
a((lp747
S'denn'
p748
aS'Denn'
p749
a(dp750
S'matter '
p751
I38
sS'going '
p752
I67
sS'lad '
p753
I1
sS'uh '
p754
I1
sS'what '
p755
I24
sS'no '
p756
I3
sS'ever '
p757
I9
sS'the '
p758
I9
sS'mean '
p759
I15
sS'kill '
p760
I1
sS'touch\xc3\xa9 '
p761
I1
sS'wonderbra '
p762
I1
sS'fickie '
p763
I1
sS'tara '
p764
I1
sS'actually '
p765
I4
sS'assignment '
p766
I2
sS'deal '
p767
I2
sS'did '
p768
I10
sS'possible '
p769
I2
sS'hurting '
p770
I1
sS'then '
p771
I109
sS'really '
p772
I2
sS'with '
p773
I8
sS'up '
p774
I26
sS'invited '
p775
I1
sS'if '
p776
I1
sS'straightjackets '
p777
I1
sS'occasion '
p778
I1
sS'bothering '
p779
I1
sS"'course "
p780
I1
sS'do, '
p781
I1
sS'look '
p782
I3
sS'thinking '
p783
I1
sS'evelyn '
p784
I1
sS'happened '
p785
I9
sS'cause '
p786
I545
sS'it '
p787
I95
sS'about '
p788
I61
sS'manfred '
p789
I1
sS'god '
p790
I2
sS'would '
p791
I6
sS'perche '
p792
I3
sS'mm- '
p793
I1
sS'hanged '
p794
I1
sS'- '
p795
I1
sS'anything '
p796
I2
sS'are '
p797
I7
sS'all '
p798
I11
sS'oause '
p799
I1
sS'talking '
p800
I5
sS'degree '
p801
I1
sS'than '
p802
I3
sS'want '
p803
I9
sS'brothel '
p804
I1
sS'fuckface '
p805
I1
sS'heck '
p806
I4
sS'tipton '
p807
I1
sS'else '
p808
I5
sS'me '
p809
I3
sS'got '
p810
I16
sS'sheldon '
p811
I1
sS'becae '
p812
I1
sS'strange '
p813
I1
sS'as '
p814
I6
sS'bec '
p815
I3
sS'weird '
p816
I1
sS'should '
p817
I2
sS'aren '
p818
I1
sS'because '
p819
I1340
sS'at '
p820
I3
sS'furniture '
p821
I1
sS'young '
p822
I1
sS'could '
p823
I5
sS'that '
p824
I61
sS'come '
p825
I4
sS'find '
p826
I1
sS'disappear '
p827
I1
sS'good '
p828
I4
sS'disgruntled '
p829
I1
sS'even '
p830
I12
sS'goin '
p831
I2
sS'is '
p832
I68
sS'thus '
p833
I1
sS'doing '
p834
I200
sS'yes '
p835
I1
sS'anyway '
p836
I4
sS'cos '
p837
I62
sS'after '
p838
I2
sS'exactly '
p839
I7
sS'many '
p840
I1
sS'think '
p841
I7
sS'doin '
p842
I3
sS'not- '
p843
I1
sS'say '
p844
I1
sS'father '
p845
I1
sS'when '
p846
I2
sS'eating '
p847
I1
sS'su '
p848
I1
sS'sort '
p849
I1
sS'go '
p850
I4
sS'happening '
p851
I10
sS'learn '
p852
I1
sS"'s "
p853
I11
sS'such '
p854
I4
sS'happen '
p855
I3
sS'must '
p856
I1
sS'stand '
p857
I1
sS'horrible '
p858
I2
sS'here '
p859
I7
sS'gotten '
p860
I1
sS'fuck '
p861
I6
sS'! '
p862
I1
sS'but '
p863
I3
sS'boss '
p864
I1
sS'there '
p865
I3
sS'for '
p866
I145
sS'eotteokhanl '
p867
I1
sS'\\u043e\\u0442\\u0446\\u0430 '
p868
I1
sS'burned '
p869
I1
sS'done '
p870
I3
sS'know '
p871
I4
sS'have '
p872
I15
sS'handicapped '
p873
I1
sS'be '
p874
I6
sS'now '
p875
I13
sS'trip '
p876
I1
sS'suppose '
p877
I1
sS'right '
p878
I2
sS', '
p879
I1
sS'why '
p880
I1
sS'much '
p881
I1
sS'so '
p882
I6
sS'except '
p883
I1
sS'name '
p884
I3
sS'on '
p885
I3
sS'towers '
p886
I1
sS'you '
p887
I13
sS'don '
p888
I2
sS'cooking '
p889
I1
sS"'cause "
p890
I169
sS'wen '
p891
I1
sS'was '
p892
I2
sS'this '
p893
I3
sS'possibly '
p894
I8
sS'wrong '
p895
I52
sS'plans '
p896
I6
sS'expect '
p897
I1
sS'and '
p898
I3
sS'earth '
p899
I1
sS'[ '
p900
I2
sS'put '
p901
I1
sS'to '
p902
I3
sS'vetting '
p903
I1
sS'gonna '
p904
I27
sS'brings '
p905
I1
sS'kind '
p906
I4
sS'german '
p907
I1
sS'bethe '
p908
I1
sS'guy '
p909
I2
sS"'d "
p910
I1
sS'donkeys '
p911
I1
sS"' "
p912
I1
sS'well '
p913
I1
sS'supposed '
p914
I82
sS'problem '
p915
I1
sS"'t "
p916
I12
sS'out '
p917
I1
sS'like '
p918
I12
sS'commutation '
p919
I1
sS'burying '
p920
I1
sS'do '
p921
I64
sS'since '
p922
I5
sS'guys '
p923
I9
sS'hell '
p924
I52
sS'martin '
p925
I1
sS'nose '
p926
I2
sS'pregnophiles '
p927
I1
sS'does '
p928
I4
sS'very '
p929
I1
sS'" '
p930
I4
sS'junior '
p931
I1
sS'can '
p932
I3
sS'sake '
p933
I2
sS'story '
p934
I1
sS'because, '
p935
I1
sS'again '
p936
I1
sS'looking '
p937
I1
sS'tell '
p938
I1
sS'nice '
p939
I2
sS'see '
p940
I9
sS'i '
p941
I1
sS'been '
p942
I4
sS'in '
p943
I2
sS'afternoon '
p944
I1
sS'kinds '
p945
I1
sS'unless '
p946
I2
sS'way '
p947
I1
sS'?? '
p948
I1
sS'get '
p949
I7
sS'gone '
p950
I1
sS'not '
p951
I8
sS'thing '
p952
I3
sS'yeah '
p953
I1
stp954
a((lp955
S'eventuell'
p956
aS'Eventuell'
p957
a(dp958
S'i- '
p959
I1
sS'possibly '
p960
I7
sS'may '
p961
I11
sS'possible '
p962
I1
sS'eventually '
p963
I17
sS'later '
p964
I1
sS'maybe '
p965
I20
sS'looking '
p966
I1
sS'might '
p967
I16
sS'potentially '
p968
I1
sS'happen '
p969
I1
sS'encounter '
p970
I1
sS'chance '
p971
I1
sS'gone '
p972
I1
sS'perhaps '
p973
I1
stp974
a((lp975
S'schon'
p976
aS'Schon'
p977
a(dp978
S'one '
p979
I9
sS'aii '
p980
I1
sS'matter '
p981
I9
sS'waiting '
p982
I2
sS'going '
p983
I17
sS'better '
p984
I3
sS'only '
p985
I2
sS'afraid '
p986
I1
sS'am '
p987
I18
sS'no '
p988
I18
sS'ever '
p989
I48
sS'chuckles '
p990
I1
sS'the '
p991
I2
sS'ok '
p992
I11
sS'covered '
p993
I2
sS'hey '
p994
I2
sS'prefab '
p995
I2
sS'hyped '
p996
I2
sS'down '
p997
I5
sS'nevermind '
p998
I1
sS'mom '
p999
I2
sS'actually '
p1000
I4
sS'rather '
p1001
I3
sS'beckett '
p1002
I1
sS'leh '
p1003
I1
sS'good '
p1004
I6
sS'cheesecake '
p1005
I1
sS'another '
p1006
I1
sS'already '
p1007
I1615
sS'did '
p1008
I55
sS'paste '
p1009
I1
sS'work '
p1010
I5
sS'something '
p1011
I3
sS'then '
p1012
I2
sS'really '
p1013
I3
sS'true '
p1014
I2
sS'up '
p1015
I16
sS'run '
p1016
I1
sS'seen '
p1017
I5
sS"'mon "
p1018
I17
sS'cheesy '
p1019
I1
sS'dead '
p1020
I1
sS'perfectly '
p1021
I1
sS'post '
p1022
I1
sS'manage '
p1023
I4
sS'cooper '
p1024
I1
sS'myself '
p1025
I1
sS'cut '
p1026
I1
sS'solution '
p1027
I2
sS'talk '
p1028
I1
sS'earlier '
p1029
I1
sS'it '
p1030
I677
sS'almost '
p1031
I7
sS'jordan '
p1032
I2
sS'childproofing '
p1033
I1
sS'about '
p1034
I3
sS'more '
p1035
I3
sS'classed '
p1036
I1
sS'save '
p1037
I4
sS'please '
p1038
I1
sS'sorry '
p1039
I4
sS'four '
p1040
I1
sS'suppose '
p1041
I1
sS'macs '
p1042
I1
sS"'ve "
p1043
I75
sS'whatever '
p1044
I1
sS'- '
p1045
I1
sS'all '
p1046
I266
sS'had '
p1047
I16
sS'oh '
p1048
I2
sS'fine '
p1049
I122
sS'any '
p1050
I5
sS'say '
p1051
I1
sS'partner '
p1052
I1
sS'have '
p1053
I43
sS"'re "
p1054
I5
sS've '
p1055
I4
sS'them '
p1056
I3
sS'short '
p1057
I1
sS'probably '
p1058
I6
sS'teach '
p1059
I1
sS'gaza '
p1060
I1
sS'soon '
p1061
I16
sS'shh '
p1062
I1
sS'appointment '
p1063
I4
sS'none '
p1064
I4
sS'me '
p1065
I23
sS'very '
p1066
I1
sS'getting '
p1067
I10
sS'got '
p1068
I10
sS'her '
p1069
I1
sS'has '
p1070
I5
sS'jo '
p1071
I1
sS"'ll "
p1072
I13
sS'goodness '
p1073
I1
sS'once '
p1074
I4
sS'having '
p1075
I1
sS'early '
p1076
I5
sS'by '
p1077
I4
sS'knew '
p1078
I1
sS'cinch '
p1079
I2
sS'gettin '
p1080
I1
sS'emplacements '
p1081
I1
sS'just '
p1082
I29
sS'she '
p1083
I5
sS'at '
p1084
I2
sS'laurie '
p1085
I1
sS'dig '
p1086
I1
sS'mention '
p1087
I2
sS'could '
p1088
I3
sS'before '
p1089
I167
sS'come '
p1090
I14
sS'find '
p1091
I1
sS'yes '
p1092
I14
sS'man '
p1093
I4
sS'move '
p1094
I3
sS"'em "
p1095
I1
sS'understood '
p1096
I1
sS'pretty '
p1097
I8
sS'goin '
p1098
I1
sS'start '
p1099
I4
sS'is '
p1100
I34
sS'time '
p1101
I3
sS'funny '
p1102
I1
sS'him '
p1103
I4
sS'doing '
p1104
I6
sS'thorpe '
p1105
I1
sS'anyway '
p1106
I2
sS'forever '
p1107
I2
sS'neodelchewaegeurae '
p1108
I1
sS'even '
p1109
I27
sS'leela '
p1110
I1
sS'after '
p1111
I1
sS'think '
p1112
I3
sS'rudi '
p1113
I1
sS'lovely '
p1114
I1
sS'taken '
p1115
I2
sS'fresh '
p1116
I1
sS'nothings '
p1117
I1
sS'told '
p1118
I1
sS'interview '
p1119
I1
sS'to '
p1120
I1
sS'tra '
p1121
I1
sS'maybe '
p1122
I1
sS'noodlebaum '
p1123
I1
sS'talked '
p1124
I3
sS"'dicksicle "
p1125
I1
sS'murdered '
p1126
I1
sS'go '
p1127
I82
sS'forget '
p1128
I4
sS'out '
p1129
I15
sS"'s "
p1130
I103
sS'happen '
p1131
I2
sS'starting '
p1132
I3
sS'forgive '
p1133
I1
sS'quite '
p1134
I24
sS'way '
p1135
I7
sS'always '
p1136
I5
sS'mine '
p1137
I2
sS'hear '
p1138
I4
sS'! '
p1139
I3
sS'but '
p1140
I1
sS'gracias '
p1141
I1
sS'anyone '
p1142
I2
sS'too '
p1143
I2
sS'innit '
p1144
I1
sS'there '
p1145
I1
sS'for '
p1146
I14
sS'headband '
p1147
I1
sS'shoulder '
p1148
I1
sS'guess '
p1149
I4
sS'takes '
p1150
I1
sS'done '
p1151
I25
sS'know '
p1152
I43
sS'difference '
p1153
I1
sS'else '
p1154
I2
sS'fit '
p1155
I1
sS'roommates '
p1156
I1
sS'nah '
p1157
I1
sS'long '
p1158
I5
sS'ready '
p1159
I2
sS'be '
p1160
I32
sS'on, '
p1161
I86
sS'now '
p1162
I66
sS'ringing '
p1163
I1
sS'sure '
p1164
I11
sS'baby '
p1165
I1
sS'home '
p1166
I1
sS'easy '
p1167
I1
sS'right '
p1168
I37
sS'hearda '
p1169
I1
sS'again '
p1170
I4
sS'enough '
p1171
I4
sS'were '
p1172
I3
sS'eventually '
p1173
I3
sS'so '
p1174
I114
sS'ah '
p1175
I1
sS'working '
p1176
I1
sS'from '
p1177
I4
sS'that '
p1178
I71
sS'on '
p1179
I1384
sS'tuck '
p1180
I1
sS'you '
p1181
I29
sS'last '
p1182
I1
sS'don '
p1183
I1
sS'beautiful '
p1184
I1
sS'alrey '
p1185
I1
sS'what '
p1186
I4
sS'would '
p1187
I2
sS'was '
p1188
I16
sS'scissors '
p1189
I1
sS'guy '
p1190
I1
sS'axe '
p1191
I1
sS'handle '
p1192
I1
sS'possibly '
p1193
I7
sS'okay '
p1194
I40
sS'are '
p1195
I13
sS'us '
p1196
I5
sS'would, '
p1197
I1
sS"'d "
p1198
I1
sS'burning '
p1199
I1
sS'gelato '
p1200
I1
sS'bit '
p1201
I1
sS'known '
p1202
I6
sS'comin '
p1203
I2
sS'experienced '
p1204
I2
sS'nothing '
p1205
I3
sS'head '
p1206
I1
sS'will '
p1207
I9
sS'bbeen '
p1208
I1
sS'yep '
p1209
I1
sS'alright '
p1210
I5
sS'vibrating '
p1211
I1
sS'gonna '
p1212
I14
sS'back '
p1213
I3
sS'elocuted '
p1214
I1
sS"' "
p1215
I2
sS'lame '
p1216
I1
sS'thought '
p1217
I1
sS'over '
p1218
I2
sS'said '
p1219
I4
sS'coming '
p1220
I5
sS'beginning '
p1221
I5
sS'kind '
p1222
I7
sS'quick '
p1223
I1
sS'heard '
p1224
I2
sS'well '
p1225
I7
sS'walked '
p1226
I2
sS'point '
p1227
I2
sS'mushrooms '
p1228
I1
sS'b& '
p1229
I1
sS'though '
p1230
I2
sS'like '
p1231
I1
sS', '
p1232
I10
sS"'t "
p1233
I4
sS'do '
p1234
I118
sS"'m "
p1235
I4
sS'since '
p1236
I9
sS'around '
p1237
I3
sS'worry '
p1238
I7
sS'late '
p1239
I1
sS'hurry '
p1240
I1
sS'some '
p1241
I5
sS'allan '
p1242
I1
sS'not '
p1243
I2
sS'does '
p1244
I22
sS'a '
p1245
I30
sS'an '
p1246
I1
sS'lee '
p1247
I1
sS'can '
p1248
I33
sS'sec '
p1249
I2
sS'horse '
p1250
I1
sS'happened '
p1251
I1
sS'talley '
p1252
I1
sS'never '
p1253
I24
sS'tell '
p1254
I1
sS'moving '
p1255
I4
sS'ahead '
p1256
I62
sS'nice '
p1257
I10
sS'al '
p1258
I3
sS'proceeds '
p1259
I1
sS'see '
p1260
I2
sS'i '
p1261
I39
sS'been '
p1262
I798
sS'in '
p1263
I4
sS'bollocks '
p1264
I1
sS'hey, '
p1265
I1
sS'scrub '
p1266
I1
sS'have, '
p1267
I1
sS'here '
p1268
I9
sS'deal '
p1269
I6
sS'get '
p1270
I6
sS'gone '
p1271
I6
sS'need '
p1272
I1
sS'cool '
p1273
I1
sS'yet '
p1274
I180
sS'calm '
p1275
I2
sS'hold '
p1276
I1
sS'thing '
p1277
I1
sS'lump '
p1278
I1
sS'still '
p1279
I2
sS'kiwe '
p1280
I2
sS'yeah '
p1281
I23
stp1282
a((lp1283
S'wom\xc3\xb6glich'
p1284
aS'Wom\xc3\xb6glich'
p1285
a(dp1286
S'possibly '
p1287
I5
sS'may '
p1288
I18
sS'all '
p1289
I1
sS'mommy '
p1290
I1
sS'maybe '
p1291
I14
sS'and '
p1292
I1
sS'might '
p1293
I17
sS'wouldn '
p1294
I1
sS'probably '
p1295
I15
sS'perhaps '
p1296
I15
stp1297
a((lp1298
S'wohl'
p1299
aS'Wohl'
p1300
a(dp1301
S'one '
p1302
I1
sS'going '
p1303
I1
sS'may '
p1304
I11
sS'thusly '
p1305
I1
sS'what '
p1306
I1
sS'would '
p1307
I9
sS'messed '
p1308
I1
sS'mean '
p1309
I5
sS'looks '
p1310
I8
sS'welfare '
p1311
I4
sS'making '
p1312
I1
sS'better '
p1313
I3
sS'course '
p1314
I1
sS'did '
p1315
I1
sS'health '
p1316
I1
sS'then '
p1317
I1
sS'wonder '
p1318
I14
sS'up '
p1319
I2
sS'afraid '
p1320
I4
sS'isn '
p1321
I1
sS'benefit '
p1322
I3
sS'neccesary '
p1323
I1
sS'it '
p1324
I3
sS'about '
p1325
I2
sS'sorry '
p1326
I1
sS'expect '
p1327
I3
sS'least '
p1328
I1
sS'apparently '
p1329
I4
sS'talking '
p1330
I1
sS'all '
p1331
I3
sS'fine '
p1332
I2
sS'have '
p1333
I20
sS"'re "
p1334
I5
sS'probably '
p1335
I183
sS'seem '
p1336
I8
sS'best '
p1337
I2
sS'else '
p1338
I1
sS'very '
p1339
I1
sS'getting '
p1340
I1
sS'got '
p1341
I3
sS'salud '
p1342
I1
sS'bye '
p1343
I6
sS'leaving '
p1344
I1
sS'likely '
p1345
I2
sS'seems '
p1346
I13
sS'sake '
p1347
I6
sS'just '
p1348
I15
sS'healthy '
p1349
I1
sS'fancy '
p1350
I2
sS'that '
p1351
I3
sS'rather '
p1352
I1
sS'yes '
p1353
I2
sS'good '
p1354
I39
sS'safety '
p1355
I1
sS'wouldn '
p1356
I1
sS'pretty '
p1357
I3
sS'is '
p1358
I4
sS'mind '
p1359
I1
sS'uncomfortable '
p1360
I3
sS'trait '
p1361
I1
sS'bter '
p1362
I1
sS'drink '
p1363
I1
sS'might '
p1364
I16
sS'think '
p1365
I156
sS'maybe '
p1366
I4
sS'perhaps '
p1367
I4
sS'enjoy '
p1368
I3
sS'out '
p1369
I3
sS"'s "
p1370
I2
sS'must '
p1371
I97
sS'quite '
p1372
I2
sS'uvula '
p1373
I1
sS'doubt '
p1374
I2
sS'too '
p1375
I1
sS'really '
p1376
I4
sS'for '
p1377
I1
sS'guess '
p1378
I168
sS'zadrovya '
p1379
I1
sS'know '
p1380
I3
sS'i '
p1381
I1
sS'obviously '
p1382
I9
sS'richie '
p1383
I1
sS'a '
p1384
I1
sS'cheers '
p1385
I19
sS'be '
p1386
I68
sS'now '
p1387
I2
sS'dreams '
p1388
I1
sS'suppose '
p1389
I33
sS'right '
p1390
I17
sS'believe '
p1391
I1
sS'much '
p1392
I2
sS'sir '
p1393
I2
sS'like '
p1394
I15
sS'don '
p1395
I3
sS'certainhy '
p1396
I1
sS'was '
p1397
I1
sS'feeling '
p1398
I1
sS'means '
p1399
I2
sS'possibly '
p1400
I5
sS'are '
p1401
I1
sS'opportunity '
p1402
I1
sS'certainly '
p1403
I3
sS'greater '
p1404
I8
sS'bit '
p1405
I2
sS'he '
p1406
I1
sS'take '
p1407
I2
sS'will '
p1408
I1
sS'to '
p1409
I10
sS'wonders '
p1410
I1
sS'gonna '
p1411
I6
sS'huh '
p1412
I2
sS'bet '
p1413
I5
sS'precisely '
p1414
I1
sS'well '
p1415
I50
sS'supposed '
p1416
I1
sS'comfortable '
p1417
I46
sS', '
p1418
I1
sS'do '
p1419
I8
sS"'m "
p1420
I1
sS'sick '
p1421
I1
sS"'t "
p1422
I12
sS'business '
p1423
I1
sS'bajillionaire '
p1424
I1
sS'looking '
p1425
I1
sS'nice '
p1426
I1
sS'well- '
p1427
I2
sS'long '
p1428
I2
sS'shuffle '
p1429
I1
sS'knows '
p1430
I1
sS'not '
p1431
I1
sS'bottoms- '
p1432
I1
stp1433
a((lp1434
S'blo\xc3\x9f'
p1435
aS'Blo\xc3\x9f'
p1436
a(dp1437
S'anesthesiologist '
p1438
I1
sS'matter '
p1439
I1
sS'merely '
p1440
I20
sS'going '
p1441
I8
sS'better '
p1442
I2
sS'only '
p1443
I45
sS'filming '
p1444
I1
sS'ever '
p1445
I2
sS'with '
p1446
I1
sS'simply '
p1447
I2
sS'hesitate '
p1448
I2
sS'but '
p1449
I5
sS'mean '
p1450
I1
sS'bullshit '
p1451
I1
sS'nerves '
p1452
I1
sS'doa '
p1453
I1
sS"'t "
p1454
I1
sS'purely '
p1455
I1
sS'just '
p1456
I420
sS'wrestle '
p1457
I1
sS'know '
p1458
I1
sS'want '
p1459
I1
sS'do '
p1460
I6
sS'gonna '
p1461
I5
sS'wonder '
p1462
I1
sS'absolutely '
p1463
I1
sS'up '
p1464
I3
sS'dare '
p1465
I1
sS'sure '
p1466
I1
sS'baby '
p1467
I1
sS'hell '
p1468
I2
sS'right '
p1469
I1
sS'turned '
p1470
I1
sS'is '
p1471
I3
sS'huge '
p1472
I1
sS'put '
p1473
I2
sS'26, '
p1474
I1
sS'doing '
p1475
I1
sS'came '
p1476
I1
sS'wrestling '
p1477
I1
sS'be '
p1478
I1
sS'stringing '
p1479
I1
sS'it '
p1480
I2
sS'forbid '
p1481
I1
sS'don '
p1482
I11
sS'knock '
p1483
I1
sS'way '
p1484
I4
sS'was '
p1485
I1
sS'mustn '
p1486
I1
sS'young '
p1487
I1
sS'... '
p1488
I4
sS'possibly '
p1489
I4
sS'wrong '
p1490
I3
sS'could '
p1491
I1
sS'waelreonl '
p1492
I1
sS'except '
p1493
I2
sS'all '
p1494
I2
sS'get '
p1495
I2
sS'had '
p1496
I1
sS'william '
p1497
I1
sS'supposingly '
p1498
I1
sS'saying '
p1499
I1
sS'shocked '
p1500
I1
sS'experience '
p1501
I1
sS'nothing '
p1502
I5
sS'slghs '
p1503
I1
sS'notju '
p1504
I1
sS'fuck '
p1505
I1
stp1506
a((lp1507
S'k\xc3\xb6nnte'
p1508
aS'K\xc3\xb6nnte'
p1509
a(dp1510
S'could, '
p1511
I1
sS'may '
p1512
I274
sS'am '
p1513
I2
sS'no '
p1514
I1
sS'would '
p1515
I91
sS'looks '
p1516
I1
sS'renaissance '
p1517
I1
sS'did '
p1518
I3
sS'possible '
p1519
I1
sS'if '
p1520
I10
sS"'aurais "
p1521
I1
sS'\\u00bf '
p1522
I1
sS'swear, '
p1523
I1
sS'about '
p1524
I1
sS'greensleevers '
p1525
I1
sS'chance '
p1526
I4
sS"'ve "
p1527
I4
sS'had '
p1528
I2
sS'guess '
p1529
I2
sS'probably '
p1530
I4
sS'any '
p1531
I1
sS'has '
p1532
I2
sS"'ll "
p1533
I18
sS'likely '
p1534
I2
sS'should '
p1535
I14
sS'completely '
p1536
I1
sS'could '
p1537
I3774
sS'wouldn '
p1538
I6
sS'sounds '
p1539
I1
sS'is '
p1540
I26
sS'mind '
p1541
I2
sS'might '
p1542
I932
sS'think '
p1543
I4
sS'rye '
p1544
I1
sS'able '
p1545
I6
sS'thanks '
p1546
I1
sS'maybe '
p1547
I13
sS'perhaps '
p1548
I4
sS'mightn '
p1549
I1
sS'sort '
p1550
I2
sS'things '
p1551
I1
sS'check '
p1552
I1
sS"'s "
p1553
I32
sS'dd '
p1554
I1
sS'makes '
p1555
I3
sS'horse '
p1556
I1
sS'know '
p1557
I3
sS'have '
p1558
I1
sS'mmm '
p1559
I1
sS'didn '
p1560
I1
sS'be '
p1561
I2
sS'tiniest '
p1562
I1
sS'sure '
p1563
I2
sS'suppose '
p1564
I1
sS'careof '
p1565
I1
sS'right '
p1566
I1
sS'fulfil '
p1567
I1
sS'were '
p1568
I2
sS'why '
p1569
I1
sS'like '
p1570
I2
sS'couldn '
p1571
I153
sS'you '
p1572
I1
sS'don '
p1573
I1
sS'cultivate '
p1574
I1
sS'ought '
p1575
I1
sS'was '
p1576
I8
sS'possibly '
p1577
I2
sS'give '
p1578
I1
sS'will '
p1579
I2
sS'hang '
p1580
I1
sS'gonna '
p1581
I1
sS'thought '
p1582
I2
sS'xmas '
p1583
I1
sS"'d "
p1584
I41
sS'kind '
p1585
I1
sS'whispering '
p1586
I1
sS'possibility '
p1587
I1
sS', '
p1588
I1
sS'do '
p1589
I13
sS"'m "
p1590
I11
sS'well '
p1591
I1
sS'does '
p1592
I4
sS'can '
p1593
I323
sS'incognito '
p1594
I1
sS'i '
p1595
I1
sS'coulda '
p1596
I2
sS'need '
p1597
I1
sS'something '
p1598
I2
stp1599
a((lp1600
S'verschieben'
p1601
aS'Verschieben'
p1602
a(dp1603
S'other '
p1604
I1
sS'later '
p1605
I1
sS'float '
p1606
I1
sS'slow '
p1607
I1
sS'suspend '
p1608
I1
sS'rescheduled '
p1609
I1
sS'trip '
p1610
I2
sS'scramble '
p1611
I1
sS'postponing '
p1612
I2
sS'shifting '
p1613
I2
sS'postpone '
p1614
I17
sS'move '
p1615
I12
sS'possibly '
p1616
I2
sS'off '
p1617
I1
sS'jus '
p1618
I1
sS'another '
p1619
I1
sS'shift '
p1620
I1
sS'reschedule '
p1621
I8
sS'push '
p1622
I1
sS'pin '
p1623
I2
sS'changed '
p1624
I1
sS'thrust '
p1625
I1
sS'table '
p1626
I1
sS'delay '
p1627
I2
sS'rain '
p1628
I5
sS'postponed '
p1629
I1
stp1630
a((lp1631
S'mal'
p1632
aS'Mal'
p1633
a(dp1634
S'one '
p1635
I43
sS'hand '
p1636
I1
sS'better '
p1637
I2
sS'lets '
p1638
I4
sS'that '
p1639
I2
sS'pictures '
p1640
I1
sS'sometimes '
p1641
I5
sS'ever '
p1642
I280
sS'party '
p1643
I1
sS'break '
p1644
I2
sS'change '
p1645
I1
sS'tashte '
p1646
I1
sS'man '
p1647
I3
sS'already '
p1648
I1
sS'way '
p1649
I1
sS'borrow '
p1650
I2
sS'step '
p1651
I1
sS'visit '
p1652
I2
sS'then '
p1653
I1
sS'gotta '
p1654
I1
sS'really '
p1655
I1
sS'with '
p1656
I1
sS'up '
p1657
I48
sS'ticket '
p1658
I2
sS'case '
p1659
I1
sS'turn '
p1660
I2
sS'try '
p1661
I39
sS'focus '
p1662
I1
sS'doubling '
p1663
I1
sS'sign '
p1664
I1
sS'j\xc3\xb8rgen '
p1665
I1
sS'look '
p1666
I45
sS'soldier '
p1667
I1
sS'talk '
p1668
I6
sS'it '
p1669
I25
sS'forum '
p1670
I1
sS'about '
p1671
I18
sS'more '
p1672
I2
sS'please '
p1673
I4
sS'moment '
p1674
I4
sS'pass '
p1675
I2
sS'start '
p1676
I2
sS"'ve "
p1677
I1
sS'let '
p1678
I218
sS'we '
p1679
I1
sS'mark '
p1680
I4
sS'help '
p1681
I1
sS'all '
p1682
I6
sS'had '
p1683
I2
sS'want '
p1684
I1
sS'them '
p1685
I2
sS'twice '
p1686
I49
sS'along '
p1687
I1
sS'by '
p1688
I2
sS'why '
p1689
I1
sS'me '
p1690
I129
sS'got '
p1691
I1
sS'somewhere '
p1692
I1
sS'sucker '
p1693
I1
sS'has '
p1694
I1
sS"'ll "
p1695
I2
sS'needs '
p1696
I1
sS'once '
p1697
I390
sS'down '
p1698
I5
sS'second '
p1699
I44
sS'should '
p1700
I6
sS'sake '
p1701
I13
sS'just '
p1702
I26
sS'because '
p1703
I2
sS'at '
p1704
I3
sS'figure '
p1705
I1
sS'hit '
p1706
I1
sS'occasions '
p1707
I3
sS'before '
p1708
I22
sS'come '
p1709
I7
sS'make '
p1710
I8
sS'kid '
p1711
I4
sS'date '
p1712
I2
sS'goes '
p1713
I2
sS'giiiii '
p1714
I1
sS'paint '
p1715
I4
sS'time '
p1716
I2463
sS'mind '
p1717
I2
sS'day '
p1718
I11
sS'put '
p1719
I1
sS'she '
p1720
I1
sS'even '
p1721
I1422
sS'gross '
p1722
I1
sS'drink '
p1723
I1
sS'loud '
p1724
I4
sS'think '
p1725
I15
sS'screw '
p1726
I1
sS'through '
p1727
I3
sS'met '
p1728
I2
sS'elephant '
p1729
I1
sS'secon '
p1730
I1
sS'say '
p1731
I5
sS'council '
p1732
I2
sS'shot '
p1733
I1
sS'maybe '
p1734
I1
sS'push '
p1735
I1
sS'show '
p1736
I6
sS'go '
p1737
I89
sS'check '
p1738
I22
sS'out '
p1739
I38
sS"'s "
p1740
I10
sS'happen '
p1741
I1
sS'quite '
p1742
I1
sS'piss '
p1743
I1
sS'here '
p1744
I37
sS'yourself '
p1745
I5
sS'fuck '
p1746
I6
sS'! '
p1747
I3
sS'now '
p1748
I3
sS'multiplied '
p1749
I4
sS'for '
p1750
I18
sS'wanna '
p1751
I3
sS'have '
p1752
I30
sS'hey '
p1753
I2
sS'know '
p1754
I16
sS'times '
p1755
I524
sS'lookit '
p1756
I1
sS'be '
p1757
I11
sS'gonna '
p1758
I16
sS'slept '
p1759
I1
sS'ass '
p1760
I2
sS'splendid '
p1761
I1
sS'minute '
p1762
I91
sS'used '
p1763
I38
sS'baby '
p1764
I2
sS'easy '
p1765
I1
sS'right '
p1766
I5
sS'version '
p1767
I2
sS'someday '
p1768
I6
sS'pee '
p1769
I4
sS'driveway '
p1770
I1
sS'much '
p1771
I2
sS'fucking '
p1772
I3
sS'marshal '
p1773
I1
sS'first '
p1774
I1
sS'shoot '
p1775
I1
sS'on '
p1776
I30
sS'you '
p1777
I10
sS'off '
p1778
I3
sS'tlme '
p1779
I2
sS'see '
p1780
I72
sS'what '
p1781
I7
sS'pay '
p1782
I1
sS'good '
p1783
I1
sS'dude '
p1784
I1
sS'this '
p1785
I22
sS'possibly '
p1786
I2
sS'wrong '
p1787
I1
sS'okay '
p1788
I4
sS'us '
p1789
I1
sS'give '
p1790
I6
sS'going '
p1791
I4
sS'toby '
p1792
I1
sS'wait '
p1793
I2
sS'ask '
p1794
I4
sS'take '
p1795
I35
sS'eyes '
p1796
I1
sS'time, '
p1797
I15
sS'to '
p1798
I41
sS'ya '
p1799
I1
sS'yeah, '
p1800
I1
sS'tme '
p1801
I3
sS'use '
p1802
I10
sS'huh '
p1803
I3
sS'over '
p1804
I11
sS"'d "
p1805
I2
sS'meet '
p1806
I1
sS'grief '
p1807
I3
sS'transcrypt '
p1808
I1
sS'appearance '
p1809
I3
sS'heard '
p1810
I1
sS'half '
p1811
I1
sS'well '
p1812
I3
sS"'t "
p1813
I1
sS'sec '
p1814
I8
sS'of '
p1815
I3
sS', '
p1816
I42
sS'peek '
p1817
I1
sS'since '
p1818
I1
sS'around '
p1819
I2
sS'happens '
p1820
I1
sS'hell '
p1821
I3
sS'hecontain '
p1822
I1
sS'sometime '
p1823
I27
sS'some '
p1824
I34
sS'710 '
p1825
I1
sS'a '
p1826
I144
sS'little '
p1827
I1
sS'walk '
p1828
I1
sS'timehe '
p1829
I1
sS'can '
p1830
I1
sS'again '
p1831
I469
sS'ace '
p1832
I1
sS'listen '
p1833
I4
sS'tell '
p1834
I6
sS'vault '
p1835
I1
sS'mal '
p1836
I3
sS'nice '
p1837
I3
sS'trips '
p1838
I1
sS'bathroom '
p1839
I1
sS'sudden '
p1840
I1
sS'i '
p1841
I3
sS'been '
p1842
I3
sS'taking '
p1843
I1
sS'someone '
p1844
I4
sS'get '
p1845
I53
sS'night '
p1846
I3
sS'need '
p1847
I1
sS'dates '
p1848
I1
sS'cool '
p1849
I1
sS'back '
p1850
I1
sS'slurps '
p1851
I1
sS'hold '
p1852
I2
sS'ti '
p1853
I2
sS'do '
p1854
I3
sS'something '
p1855
I33
stp1856
a((lp1857
S'da'
p1858
aS'Da'
p1859
a(dp1860
S'one '
p1861
I101
sS'while '
p1862
I5
sS'going '
p1863
I20
sS'checkpoint '
p1864
I1
sS'showed '
p1865
I3
sS"'ll "
p1866
I1
sS'seeing '
p1867
I4
sS'arriving '
p1868
I2
sS"'cause "
p1869
I1
sS'no '
p1870
I6
sS'cop '
p1871
I1
sS'the '
p1872
I27
sS'arrived '
p1873
I44
sS'curfew '
p1874
I1
sS'mean '
p1875
I1
sS'shh '
p1876
I1
sS'looks '
p1877
I1
sS'bedroom '
p1878
I1
sS'down '
p1879
I13
sS'somebody '
p1880
I1
sS'away '
p1881
I5
sS'( '
p1882
I1
sS'boiler '
p1883
I1
sS'good '
p1884
I2
sS'ugh '
p1885
I1
sS'speaking '
p1886
I5
sS'then '
p1887
I64
sS'spot '
p1888
I1
sS'with '
p1889
I46
sS'up '
p1890
I36
sS'ready '
p1891
I1
sS'if '
p1892
I8
sS'town '
p1893
I1
sS'corner '
p1894
I2
sS'frederik '
p1895
I1
sS'keys '
p1896
I1
sS'pop '
p1897
I1
sS'look '
p1898
I42
sS'betadine '
p1899
I1
sS'tell '
p1900
I1
sS': '
p1901
I1
sS'hear '
p1902
I2
sS'came '
p1903
I4
sS'possibly '
p1904
I1
sS'it '
p1905
I590
sS'found '
p1906
I4
sS'present '
p1907
I4
sS'god '
p1908
I2
sS'let '
p1909
I1
sS'little '
p1910
I2
sS'we '
p1911
I40
sS'next '
p1912
I1
sS'- '
p1913
I24
sS'all '
p1914
I10
sS'missing '
p1915
I1
sS'talking '
p1916
I3
sS'close '
p1917
I1
sS'relatives '
p1918
I1
sS'approaching '
p1919
I1
sS"'re "
p1920
I7
sS'them '
p1921
I5
sS'yet '
p1922
I1
sS'mom '
p1923
I1
sS'men '
p1924
I1
sS'by '
p1925
I2
sS'whoa '
p1926
I1
sS'watching '
p1927
I1
sS'me '
p1928
I2
sS'getting '
p1929
I1
sS'somewhere '
p1930
I2
sS'got '
p1931
I41
sS'math '
p1932
I1
sS'straight '
p1933
I1
sS'quick '
p1934
I1
sS'as '
p1935
I75
sS'left '
p1936
I6
sS'having '
p1937
I1
sS'listening '
p1938
I1
sS'frank '
p1939
I1
sS'penn '
p1940
I1
sS'insofar '
p1941
I1
sS'just '
p1942
I14
sS'because '
p1943
I132
sS'at '
p1944
I21
sS'could '
p1945
I1
sS'that '
p1946
I871
sS'come '
p1947
I14
sS'motherfucker '
p1948
I1
sS'yes '
p1949
I10
sS'man '
p1950
I10
sS'available '
p1951
I2
sS'suv '
p1952
I1
sS'goes '
p1953
I1
sS'dat '
p1954
I1
sS'wait '
p1955
I1
sS'is '
p1956
I4
sS'time '
p1957
I2
sS'mind '
p1958
I3
sS'stay '
p1959
I3
sS'put '
p1960
I1
sS'doing '
p1961
I304
sS'gotcha '
p1962
I1
sS'friend '
p1963
I1
sS'lf '
p1964
I1
sS'she '
p1965
I6
sS'cos '
p1966
I4
sS'celebici '
p1967
I1
sS'after '
p1968
I1
sS'might '
p1969
I1
sS'think '
p1970
I2
sS'doin '
p1971
I2
sS'taken '
p1972
I3
sS'there, '
p1973
I18
sS'already '
p1974
I1
sS'when '
p1975
I24
sS'ones '
p1976
I1
sS'maybe '
p1977
I3
sS'his '
p1978
I2
sS'through '
p1979
I1
sS'were '
p1980
I2
sS'go '
p1981
I22
sS'kezza '
p1982
I1
sS'out '
p1983
I34
sS"'s "
p1984
I5
sS'ere '
p1985
I3
sS'dear '
p1986
I1
sS'lot '
p1987
I4
sS'those '
p1988
I4
sS'here '
p1989
I1560
sS'ah '
p1990
I1
sS'be '
p1991
I2
sS'exist '
p1992
I1
sS'heck '
p1993
I1
sS'boy '
p1994
I1
sS'but '
p1995
I11
sS'here\xc3\xa1 '
p1996
I1
sS'naturally '
p1997
I1
sS'there '
p1998
I9002
sS'for '
p1999
I15
sS'makes '
p2000
I1
sS'calling '
p2001
I1
sS'given '
p2002
I2
sS'bitch '
p2003
I1
sS'i '
p2004
I131
sS'eton '
p2005
I1
sS'yummy '
p2006
I1
sS'spinal '
p2007
I1
sS'been '
p2008
I1
sS'ererne '
p2009
I1
sS'hermes '
p2010
I1
sS'always '
p2011
I1
sS'now '
p2012
I28
sS'hey '
p2013
I14
sS'sure '
p2014
I2
sS'home '
p2015
I40
sS'easy '
p2016
I1
sS'right '
p2017
I23
sS'place '
p2018
I5
sS"'want "
p2019
I1
sS', '
p2020
I1
sS'contact- '
p2021
I1
sS'behind '
p2022
I8
sS'sarge '
p2023
I1
sS'suck '
p2024
I1
sS'much '
p2025
I1
sS'so '
p2026
I63
sS'sir '
p2027
I4
sS'seein '
p2028
I1
sS'first '
p2029
I1
sS'sound '
p2030
I1
sS'on '
p2031
I18
sS'ttosljaklgun '
p2032
I1
sS'map '
p2033
I1
sS'da '
p2034
I17
sS'you '
p2035
I130
sS'off '
p2036
I5
sS'they '
p2037
I51
sS'what '
p2038
I12
sS'54th '
p2039
I1
sS'over '
p2040
I9
sS'daddy '
p2041
I1
sS'dude '
p2042
I4
sS'there" '
p2043
I2
sS'disappeared '
p2044
I1
sS'this '
p2045
I325
sS'... '
p2046
I1
sS'inside '
p2047
I1
sS'okay '
p2048
I3
sS'are '
p2049
I2
sS'us '
p2050
I1
sS'yeah '
p2051
I15
sS'shit '
p2052
I2
sS'and '
p2053
I30
sS'sweetie '
p2054
I1
sS'thar '
p2055
I1
sS'trying '
p2056
I1
sS'my '
p2057
I1
sS'[ '
p2058
I2
sS'he '
p2059
I19
sS'nothing '
p2060
I1
sS'take '
p2061
I2
sS'behave '
p2062
I1
sS'once '
p2063
I1
sS'big '
p2064
I1
sS'holding '
p2065
I2
sS'who '
p2066
I2
sS'spotted '
p2067
I4
sS'girl '
p2068
I2
sS'gonna '
p2069
I5
sS'huh '
p2070
I3
sS'any '
p2071
I1
sS'shouldn '
p2072
I1
sS'where '
p2073
I85
sS'guy '
p2074
I13
sS'arrive '
p2075
I12
sS'everybody '
p2076
I1
sS'th '
p2077
I2
sS'coming '
p2078
I12
sS'alright '
p2079
I2
sS"' "
p2080
I11
sS'sweater '
p2081
I2
sS'well '
p2082
I23
sS'these '
p2083
I8
sS'wish '
p2084
I1
sS'boarding '
p2085
I1
sS'pay '
p2086
I1
sS'dood '
p2087
I1
sS'humiliate '
p2088
I1
sS"'m "
p2089
I3
sS'since '
p2090
I266
sS'guys '
p2091
I7
sS'around '
p2092
I94
sS'happens '
p2093
I1
sS'everyone '
p2094
I1
sS'how '
p2095
I1
sS'thinking '
p2096
I2
sS'eta '
p2097
I1
sS'c '
p2098
I1
sS'window '
p2099
I1
sS'pull '
p2100
I1
sS'not '
p2101
I5
sS'joining '
p2102
I1
sS'a '
p2103
I3
sS'road '
p2104
I2
sS'near '
p2105
I1
sS'specific '
p2106
I1
sS'again '
p2107
I1
sS'cue '
p2108
I1
sS'oh '
p2109
I21
sS'looking '
p2110
I1
sS'hello '
p2111
I7
sS'francls '
p2112
I1
sS'hansen '
p2113
I1
sS'assuming '
p2114
I1
sS'copy '
p2115
I1
sS'see '
p2116
I24
sS'honey '
p2117
I1
sS'fast '
p2118
I2
sS'in '
p2119
I109
sS'representing '
p2120
I1
sS'being '
p2121
I2
sS'science '
p2122
I1
sS'excuse '
p2123
I1
sS'way '
p2124
I5
sS'someone '
p2125
I3
sS'door '
p2126
I1
sS'standing '
p2127
I2
sS'get '
p2128
I17
sS'theo '
p2129
I1
sS'gone '
p2130
I7
sS'boat '
p2131
I3
sS'hmm '
p2132
I1
sS'stop '
p2133
I3
sS'saying '
p2134
I14
sS'about '
p2135
I22
sS'back '
p2136
I41
sS'hold '
p2137
I3
sS'thing '
p2138
I5
sS'haley '
p2139
I1
sS'something '
p2140
I12
sS'which '
p2141
I4
stp2142
a((lp2143
S'irgendwie'
p2144
aS'Irgendwie'
p2145
a(dp2146
S'getting '
p2147
I1
sS'like, '
p2148
I1
sS'stereotype '
p2149
I1
sS'fatter '
p2150
I1
sS'kind '
p2151
I455
sS'yes '
p2152
I1
sS'seems '
p2153
I2
sS'kinda '
p2154
I124
sS'touch '
p2155
I1
sS'movie '
p2156
I1
sS'just '
p2157
I4
sS'though '
p2158
I1
sS'like '
p2159
I30
sS'figure '
p2160
I1
sS'really '
p2161
I3
sS'blends '
p2162
I1
sS'felt '
p2163
I1
sS'somewhat '
p2164
I8
sS'right '
p2165
I1
sS'somehow '
p2166
I308
sS'habits '
p2167
I1
sS'laughs '
p2168
I1
sS'him '
p2169
I1
sS'indicate '
p2170
I1
sS'anyway '
p2171
I7
sS'anyhow '
p2172
I1
sS'possibly '
p2173
I1
sS'it '
p2174
I1
sS'hel '
p2175
I1
sS'basically '
p2176
I1
sS'blush '
p2177
I1
sS'mm- '
p2178
I1
sS'part '
p2179
I1
sS'sorta '
p2180
I3
sS'... '
p2181
I1
sS'anything '
p2182
I9
sS'okay '
p2183
I2
sS'get '
p2184
I1
sS'sort '
p2185
I109
sS'less '
p2186
I1
sS'bit '
p2187
I3
sS'he '
p2188
I1
sS'any '
p2189
I23
sS'however '
p2190
I3
sS'quite '
p2191
I1
sS'to '
p2192
I1
sS'way '
p2193
I31
sS'connected '
p2194
I1
sS'something '
p2195
I39
sS'seem '
p2196
I2
stp2197
a((lp2198
S'mag'
p2199
aS'Mag'
p2200
a(dp2201
S'matter '
p2202
I1
sS'cruel '
p2203
I1
sS'may '
p2204
I172
sS'am '
p2205
I1
sS'do '
p2206
I4
sS'gesture '
p2207
I1
sS'tired '
p2208
I1
sS'course '
p2209
I1
sS'did '
p2210
I3
sS'really '
p2211
I1
sS'ruin '
p2212
I1
sS'iike '
p2213
I1
sS'iikes '
p2214
I2
sS'it '
p2215
I1
sS'hmm '
p2216
I3
sS'about '
p2217
I1
sS'fine '
p2218
I1
sS"'re "
p2219
I1
sS'regardless '
p2220
I1
sS'admit '
p2221
I1
sS'other '
p2222
I2
sS'know '
p2223
I5
sS'worth '
p2224
I4
sS'into '
p2225
I1
sS"'ll "
p2226
I1
sS'smidge '
p2227
I1
sS'appreciate '
p2228
I2
sS'liketo '
p2229
I1
sS'mag '
p2230
I53
sS'fancy '
p2231
I1
sS'adore '
p2232
I1
sS'fifty '
p2233
I1
sS'paint '
p2234
I1
sS'is '
p2235
I11
sS'anyway '
p2236
I2
sS'exactly '
p2237
I1
sS'might '
p2238
I53
sS'against '
p2239
I1
sS'thanks '
p2240
I1
sS'maybe '
p2241
I9
sS'perhaps '
p2242
I3
sS'vices '
p2243
I1
sS'enjoy '
p2244
I6
sS'show '
p2245
I1
sS'turn- '
p2246
I1
sS"'s "
p2247
I18
sS'liking '
p2248
I6
sS'stand '
p2249
I1
sS'attached '
p2250
I1
sS'case '
p2251
I1
sS'notlike '
p2252
I2
sS'guess '
p2253
I1
sS'fun '
p2254
I2
sS'likes '
p2255
I275
sS'digs '
p2256
I1
sS'calming '
p2257
I1
sS'pedometer '
p2258
I1
sS'love '
p2259
I59
sS'wants '
p2260
I2
sS'be '
p2261
I1
sS'sure '
p2262
I1
sS'leonard '
p2263
I1
sS'maggie '
p2264
I2
sS'loves '
p2265
I13
sS'much '
p2266
I1
sS'like '
p2267
I1466
sS'doesn '
p2268
I36
sS'don '
p2269
I46
sS'hates '
p2270
I4
sS'was '
p2271
I1
sS'possibly '
p2272
I1
sS'bit '
p2273
I2
sS'care '
p2274
I2
sS'hate '
p2275
I6
sS'shouldn '
p2276
I2
sS'snap '
p2277
I1
sS'warning '
p2278
I1
sS'comes '
p2279
I1
sS'well '
p2280
I1
sS'dislikes '
p2281
I7
sS'dort '
p2282
I4
sS"'m "
p2283
I7
sS'liked '
p2284
I26
sS'prefer '
p2285
I1
sS'maddie '
p2286
I1
sS'does '
p2287
I12
sS'can '
p2288
I5
sS'singsongy '
p2289
I1
sS'fond '
p2290
I4
sS'loving '
p2291
I1
sS'predictable '
p2292
I1
sS'tting '
p2293
I1
sS'arachnid '
p2294
I1
sS'yeah '
p2295
I2
stp2296
a((lp2297
S'w\xc3\xbcrde'
p2298
aS'W\xc3\xbcrde'
p2299
a(dp2300
S'dare '
p2301
I2
sS'going '
p2302
I8
sS'am '
p2303
I2
sS'honour '
p2304
I2
sS'ever '
p2305
I1
sS'd '
p2306
I14
sS'would '
p2307
I3598
sS'style '
p2308
I2
sS'mean '
p2309
I1
sS'21185 '
p2310
I1
sS'course '
p2311
I1
sS'did '
p2312
I5
sS'really '
p2313
I3
sS'won '
p2314
I66
sS'became '
p2315
I1
sS'counted '
p2316
I1
sS'came '
p2317
I2
sS'it '
p2318
I2
sS'hmm '
p2319
I1
sS'imagine '
p2320
I1
sS"'ve "
p2321
I2
sS'had '
p2322
I5
sS'birds '
p2323
I1
sS"'ii "
p2324
I1
sS"'ll "
p2325
I154
sS'dignity '
p2326
I52
sS'should '
p2327
I5
sS'seems '
p2328
I1
sS'just '
p2329
I5
sS'could '
p2330
I80
sS'that '
p2331
I3
sS'make '
p2332
I2
sS'wouldn '
p2333
I815
sS'stupid '
p2334
I2
sS'is '
p2335
I8
sS'message '
p2336
I1
sS'guess '
p2337
I3
sS'might '
p2338
I65
sS'think '
p2339
I9
sS'across '
p2340
I1
sS'contained '
p2341
I1
sS'maybe '
p2342
I1
sS"'ld "
p2343
I1
sS'ourfame '
p2344
I1
sS"'s "
p2345
I7
sS'woulda '
p2346
I1
sS'anyone '
p2347
I1
sS'knew '
p2348
I2
sS'woud '
p2349
I1
sS'hope '
p2350
I1
sS'wanna '
p2351
I6
sS'sawhow '
p2352
I1
sS'want '
p2353
I28
sS'wantsyou '
p2354
I1
sS'. '
p2355
I1
sS'wants '
p2356
I1
sS'now '
p2357
I1
sS'dress '
p2358
I1
sS'cognoscendi '
p2359
I1
sS'if '
p2360
I80
sS'were '
p2361
I26
sS'like '
p2362
I17
sS'doesn '
p2363
I1
sS'nobility '
p2364
I1
sS'ow '
p2365
I1
sS'couldn '
p2366
I10
sS'you '
p2367
I1
sS'dating '
p2368
I1
sS'partaking '
p2369
I1
sS'integrity '
p2370
I1
sS'what '
p2371
I1
sS'was '
p2372
I344
sS'said '
p2373
I1
sS'possibly '
p2374
I1
sS'later '
p2375
I1
sS'chloe '
p2376
I1
sS'ask '
p2377
I1
sS'take '
p2378
I1
sS'will '
p2379
I103
sS'distinction '
p2380
I1
sS'person '
p2381
I1
sS'gonna '
p2382
I44
sS'thought '
p2383
I4
sS"'d "
p2384
I2169
sS'******* '
p2385
I1
sS"'t "
p2386
I1
sS'wish '
p2387
I3
sS'though '
p2388
I3
sS'playing '
p2389
I1
sS', '
p2390
I10
sS'do '
p2391
I21
sS"'m "
p2392
I37
sS'willing '
p2393
I6
sS'emerson '
p2394
I1
sS'future '
p2395
I1
sS'does '
p2396
I16
sS'can '
p2397
I11
sS'never '
p2398
I3
sS'i '
p2399
I1
sS'wasn '
p2400
I21
sS'wanted '
p2401
I3
sS'allowable '
p2402
I1
sS'yeah '
p2403
I1
stp2404
a((lp2405
S'kanst'
p2406
aS'Kanst'
p2407
a(dp2408
S'don '
p2409
I1
sS'possibly '
p2410
I1
sS'can '
p2411
I2
stp2412
a((lp2413
S'fall'
p2414
aS'Fall'
p2415
a(dp2416
S'definitely '
p2417
I85
sS'one '
p2418
I17
sS'matter '
p2419
I15
sS'going '
p2420
I1
sS'am '
p2421
I1
sS'ever '
p2422
I3
sS'amagansett '
p2423
I1
sS'manuscript '
p2424
I1
sS'covered '
p2425
I1
sS'thrown '
p2426
I2
sS'down '
p2427
I20
sS'fringe '
p2428
I2
sS'course '
p2429
I3
sS'deal '
p2430
I3
sS'did '
p2431
I5
sS'then '
p2432
I1
sS'absolutely '
p2433
I109
sS'leaders '
p2434
I1
sS'if '
p2435
I7
sS'occasion '
p2436
I1
sS'process '
p2437
I1
sS'complimentary '
p2438
I1
sS'cause '
p2439
I1
sS'it '
p2440
I1
sS'chance '
p2441
I7
sS'budging '
p2442
I1
sS'we '
p2443
I1
sS'puo '
p2444
I1
sS'least '
p2445
I3
sS'all '
p2446
I2
sS'successful '
p2447
I1
sS'story '
p2448
I1
sS'totally '
p2449
I18
sS'clarity '
p2450
I1
sS'certainly '
p2451
I19
sS'has '
p2452
I1
sS'straight '
p2453
I1
sS'deserve '
p2454
I1
sS'casesomehow '
p2455
I1
sS'want '
p2456
I1
sS'ground '
p2457
I1
sS'option '
p2458
I1
sS'chucking '
p2459
I1
sS'time '
p2460
I3
sS'anyway '
p2461
I27
sS'default '
p2462
I1
sS'mansions '
p2463
I1
sS'worse '
p2464
I1
sS'go '
p2465
I1
sS'happening '
p2466
I1
sS'fail '
p2467
I1
sS'happen '
p2468
I2
sS'way '
p2469
I207
sS'agreed '
p2470
I1
sS'case '
p2471
I1524
sS'sense '
p2472
I2
sS'file '
p2473
I5
sS'minutes '
p2474
I1
sS'patient '
p2475
I1
sS'case, '
p2476
I4
sS'family '
p2477
I1
sS'drop '
p2478
I4
sS'sure '
p2479
I18
sS'right '
p2480
I4
sS'babies '
p2481
I1
sS'so '
p2482
I3
sS'instance '
p2483
I4
sS'alley '
p2484
I1
sS'cup '
p2485
I1
sS'safely '
p2486
I1
sS'don '
p2487
I2
sS'reason '
p2488
I2
sS'outcome '
p2489
I1
sS'falling '
p2490
I2
sS'means '
p2491
I8
sS'this '
p2492
I1
sS'possibly '
p2493
I1
sS'scenario '
p2494
I2
sS'clearly '
p2495
I2
sS'rate '
p2496
I2
sS'shit '
p2497
I1
sS'give '
p2498
I1
sS'emphatically '
p2499
I1
sS'gonna '
p2500
I1
sS'lame '
p2501
I1
sS'ah '
p2502
I1
sS'bet '
p2503
I1
sS'investigation '
p2504
I6
sS'fall '
p2505
I35
sS'supposed '
p2506
I1
sS'problem '
p2507
I1
sS'point '
p2508
I2
sS'do '
p2509
I5
sS'hell '
p2510
I7
sS'way, '
p2511
I1
sS'does '
p2512
I1
sS'never '
p2513
I2
sS'issue '
p2514
I1
sS'anytime '
p2515
I1
sS'guaranteed '
p2516
I1
sS'cent '
p2517
I1
sS'trial '
p2518
I1
sS'sale '
p2519
I1
sS'narrows '
p2520
I1
sS'event '
p2521
I11
sS'birmingham '
p2522
I1
sS'grateful '
p2523
I1
sS'not '
p2524
I1
sS'falls '
p2525
I1
sS'thing '
p2526
I5
sS'cases '
p2527
I6
sS'peek '
p2528
I1
stp2529
a((lp2530
S'aufl\xc3\xb6sen'
p2531
aS'Aufl\xc3\xb6sen'
p2532
a(dp2533
S'possibly '
p2534
I1
sS'dissolved '
p2535
I1
sS'thin '
p2536
I3
sS'figure '
p2537
I1
sS'fly '
p2538
I1
sS'features '
p2539
I1
sS'away '
p2540
I1
sS'vanish '
p2541
I1
sS'enhance '
p2542
I1
sS'dissolve '
p2543
I4
sS'sever '
p2544
I1
sS'scarce '
p2545
I2
sS'disappear '
p2546
I1
stp2547
a((lp2548
S'kann'
p2549
aS'Kann'
p2550
a(dp2551
S'one '
p2552
I1
sS'feel '
p2553
I1
sS'may '
p2554
I242
sS'only '
p2555
I1
sS'am '
p2556
I40
sS'no '
p2557
I6
sS'nope '
p2558
I1
sS'would '
p2559
I40
sS'hi '
p2560
I1
sS'ok '
p2561
I1
sS'mean '
p2562
I1
sS'lives '
p2563
I1
sS'jeez '
p2564
I1
sS'cannot '
p2565
I474
sS'soldiers '
p2566
I1
sS'course '
p2567
I1
sS'did '
p2568
I19
sS'indisposed '
p2569
I1
sS'something '
p2570
I1
sS'then '
p2571
I4
sS'gotta '
p2572
I12
sS'really '
p2573
I1
sS'wasrt '
p2574
I1
sS'ready '
p2575
I1
sS'possibhe '
p2576
I1
sS"'em "
p2577
I1
sS'if '
p2578
I18
sS'somehow '
p2579
I1
sS'turn '
p2580
I1
sS'arrow '
p2581
I1
sS'isn '
p2582
I3
sS': '
p2583
I1
sS'... '
p2584
I1
sS'it '
p2585
I4
sS'speaks '
p2586
I1
sS'hmm '
p2587
I1
sS'must '
p2588
I5
sS'just, '
p2589
I1
sS'( '
p2590
I1
sS'young '
p2591
I2
sS"'ve "
p2592
I9
sS'let '
p2593
I28
sS'we '
p2594
I1
sS'puo '
p2595
I1
sS'- '
p2596
I6
sS'help '
p2597
I1
sS'cant '
p2598
I18
sS'best '
p2599
I1
sS'incredible '
p2600
I1
sS'horny '
p2601
I1
sS'keeps '
p2602
I1
sS'want '
p2603
I3
sS"'re "
p2604
I1
sS'n '
p2605
I2
sS'oh, '
p2606
I1
sS'any '
p2607
I1
sS'else '
p2608
I1
sS'got '
p2609
I43
sS'singer '
p2610
I1
sS'has '
p2611
I23
sS'absolutely '
p2612
I2
sS"'ll "
p2613
I114
sS'needs '
p2614
I1
sS'admirer '
p2615
I1
sS'should '
p2616
I12
sS'seems '
p2617
I1
sS'or '
p2618
I1
sS'just '
p2619
I6
sS'at '
p2620
I1
sS'kann '
p2621
I1
sS'could '
p2622
I884
sS'come '
p2623
I7
sS'find '
p2624
I11
sS'make '
p2625
I5
sS'available '
p2626
I1
sS'wouldn '
p2627
I14
sS'goes '
p2628
I2
sS'pretty '
p2629
I1
sS'ain '
p2630
I1
sS'is '
p2631
I193
sS'mind '
p2632
I13
sS'hooligans '
p2633
I1
sS'guess '
p2634
I7
sS'after '
p2635
I1
sS'might '
p2636
I46
sS'can, '
p2637
I2
sS'surely '
p2638
I2
sS'tell '
p2639
I1
sS'gets '
p2640
I16
sS'able '
p2641
I61
sS'betsey '
p2642
I1
sS'maybe '
p2643
I17
sS'free '
p2644
I1
sS'sort '
p2645
I1
sS'things '
p2646
I2
sS'least '
p2647
I1
sS'go '
p2648
I1
sS'gwen '
p2649
I1
sS"'s "
p2650
I306
sS'dunham '
p2651
I1
sS'telling '
p2652
I1
sS'way '
p2653
I11
sS'ju '
p2654
I1
sS'but '
p2655
I1
sS'doubt '
p2656
I1
sS'too '
p2657
I1
sS'speaking '
p2658
I2
sS'reverse '
p2659
I1
sS'with '
p2660
I3
sS'van '
p2661
I1
sS'have '
p2662
I45
sS'fun '
p2663
I1
sS'know '
p2664
I16
sS'own '
p2665
I1
sS'm '
p2666
I1
sS'. '
p2667
I1
sS'sullivan '
p2668
I1
sS'there '
p2669
I1
sS'hey '
p2670
I3
sS'sure '
p2671
I3
sS'suppose '
p2672
I1
sS'right '
p2673
I2
sS'won '
p2674
I18
sS'enough '
p2675
I2
sS'why '
p2676
I1
sS'much '
p2677
I1
sS'shall '
p2678
I2
sS'lie '
p2679
I1
sS'her '
p2680
I1
sS'like '
p2681
I2
sS'doesn '
p2682
I10
sS'hard '
p2683
I1
sS'count '
p2684
I1
sS'c '
p2685
I1
sS'couldn '
p2686
I158
sS'you '
p2687
I2
sS'shooting '
p2688
I1
sS'don '
p2689
I111
sS'fleld '
p2690
I1
sS'wham- '
p2691
I1
sS'what '
p2692
I2
sS'was '
p2693
I3
sS'rhinoceroses '
p2694
I1
sS'manner '
p2695
I1
sS'learned '
p2696
I1
sS'possibly '
p2697
I1
sS'okay '
p2698
I1
sS'are '
p2699
I15
sS'give '
p2700
I3
sS'and '
p2701
I1
sS'betcha '
p2702
I1
sS'get '
p2703
I19
sS'laughter '
p2704
I1
sS'take '
p2705
I2
sS'unable '
p2706
I4
sS'will '
p2707
I68
sS'to '
p2708
I13
sS'girl '
p2709
I1
sS'cats '
p2710
I1
sS'so '
p2711
I2
sS'relapse '
p2712
I1
sS'kind '
p2713
I3
sS'harbor '
p2714
I1
sS"'d "
p2715
I15
sS'idf '
p2716
I1
sS'comes '
p2717
I1
sS'bering '
p2718
I1
sS'-- '
p2719
I1
sS'910 '
p2720
I1
sS"'t "
p2721
I1
sS'keep '
p2722
I1
sS'says '
p2723
I1
sS', '
p2724
I25
sS'unh- '
p2725
I1
sS'do '
p2726
I140
sS"'m "
p2727
I192
sS'happens '
p2728
I1
sS'how '
p2729
I9
sS'chord '
p2730
I1
sS'damn '
p2731
I1
sS'jesus '
p2732
I1
sS'late '
p2733
I2
sS'themselves '
p2734
I1
sS'sobbing '
p2735
I1
sS'does '
p2736
I81
sS'extra '
p2737
I1
sS'tanya '
p2738
I1
sS'can '
p2739
I17652
sS'oh '
p2740
I5
sS'hello '
p2741
I1
sS'impossible '
p2742
I1
sS'hear '
p2743
I1
sS'see '
p2744
I2
sS'i '
p2745
I5
sS'in '
p2746
I3
sS'fucks '
p2747
I1
sS'? '
p2748
I2
sS'elseam '
p2749
I1
sS'fault '
p2750
I1
sS'can\\u2019 '
p2751
I21
sS'buy '
p2752
I2
sS'knows '
p2753
I5
sS'speak '
p2754
I1
sS'real '
p2755
I1
sS'beg '
p2756
I1
sS'need '
p2757
I11
sS'not '
p2758
I2
sS'thing '
p2759
I1
sS'still '
p2760
I1
sS'yeah '
p2761
I5
stp2762
a((lp2763
S'\xc3\xbcberrascht'
p2764
aS'\xc3\xbcberrascht'
p2765
a(dp2766
S'\\u201d '
p2767
I2
sS'flaws '
p2768
I2
sS'rprised '
p2769
I2
sS'thrown '
p2770
I2
sS'guard '
p2771
I8
sS', '
p2772
I2
sS'suprise '
p2773
I2
sS'up '
p2774
I2
sS'abilities '
p2775
I2
sS'smarter '
p2776
I2
sS'caught '
p2777
I12
sS'suprised '
p2778
I2
sS'forever '
p2779
I2
sS'surprises '
p2780
I32
sS'surprised '
p2781
I632
sS'lied '
p2782
I2
sS'completely '
p2783
I2
sS'startled '
p2784
I2
sS'amazement '
p2785
I2
sS'amazed '
p2786
I8
sS'astonished '
p2787
I2
sS'outwhat '
p2788
I2
sS'possibly '
p2789
I2
sS'nadiejuega '
p2790
I2
sS'kiwi '
p2791
I2
sS'freaked '
p2792
I2
sS'surprsed '
p2793
I2
sS'surprising '
p2794
I2
sS'unexpected '
p2795
I2
sS'outside '
p2796
I2
sS'surprise '
p2797
I74
stp2798
a((lp2799
S'gelesen'
p2800
aS'Gelesen'
p2801
a(dp2802
S'checked '
p2803
I1
sS'alof '
p2804
I1
sS'l\xc3\xadfe '
p2805
I1
sS'file '
p2806
I1
sS'heard '
p2807
I1
sS'reading '
p2808
I58
sS'laughing '
p2809
I1
sS'movie '
p2810
I1
sS'seen '
p2811
I2
sS'leonard '
p2812
I1
sS'fiddled '
p2813
I1
sS'book '
p2814
I2
sS'read '
p2815
I414
sS'readthat '
p2816
I1
sS'brlony '
p2817
I1
sS'pro\\u0438itao '
p2818
I1
sS'hates '
p2819
I1
sS'obituaries '
p2820
I1
sS'possibly '
p2821
I1
sS'sucked '
p2822
I1
sS'grunting '
p2823
I1
sS'yap\\u0131p '
p2824
I1
sS'liked '
p2825
I1
sS'reader '
p2826
I1
stp2827
a((lp2828
S'voraushaben'
p2829
aS'Voraushaben'
p2830
a(dp2831
S'possibly '
p2832
I1
stp2833
a((lp2834
S'freien'
p2835
aS'Freien'
p2836
a(dp2837
S'liberated '
p2838
I1
sS'free '
p2839
I56
sS'outdoor '
p2840
I1
sS'freedom '
p2841
I1
sS'open- '
p2842
I1
sS'clear '
p2843
I1
sS'open '
p2844
I10
sS'worth '
p2845
I1
sS'off '
p2846
I8
sS'freefall '
p2847
I2
sS'vacancies '
p2848
I1
sS'outdoors '
p2849
I3
sS'spare '
p2850
I1
sS'outside '
p2851
I1
sS'freelancer '
p2852
I1
sS'freelancer, '
p2853
I1
sS'possibly '
p2854
I1
sS'free- '
p2855
I3
stp2856
a((lp2857
S'k\xc3\xb6nnen'
p2858
aS'K\xc3\xb6nnen'
p2859
a(dp2860
S"'m "
p2861
I1
sS'reporter '
p2862
I1
sS'may '
p2863
I49
sS'spells '
p2864
I1
sS'dad, '
p2865
I1
sS'what '
p2866
I1
sS'voi '
p2867
I1
sS'would '
p2868
I16
sS"'ii "
p2869
I1
sS'cannot '
p2870
I175
sS'better '
p2871
I1
sS'before '
p2872
I1
sS'did '
p2873
I3
sS'possible '
p2874
I3
sS'then '
p2875
I1
sS'gotta '
p2876
I3
sS'hell '
p2877
I1
sS'haven '
p2878
I1
sS'ready '
p2879
I6
sS'if '
p2880
I9
sS'am '
p2881
I1
sS'skill '
p2882
I7
sS'avoiding '
p2883
I1
sS'he/ '
p2884
I2
sS'it '
p2885
I1
sS'we '
p2886
I1
sS'please '
p2887
I2
sS'god '
p2888
I1
sS'chance '
p2889
I5
sS"'ve "
p2890
I14
sS'let '
p2891
I8
sS'anything '
p2892
I1
sS'help '
p2893
I1
sS'cant '
p2894
I3
sS'all '
p2895
I1
sS'keeps '
p2896
I1
sS'consequences '
p2897
I1
sS"'re "
p2898
I97
sS'them '
p2899
I1
sS'along '
p2900
I1
sS'any '
p2901
I1
sS'done '
p2902
I1
sS'me '
p2903
I1
sS'safe '
p2904
I1
sS'got '
p2905
I4
sS"'ll "
p2906
I48
sS'as '
p2907
I1
sS'should '
p2908
I14
sS'just '
p2909
I1
sS'at '
p2910
I1
sS'could '
p2911
I564
sS'stake '
p2912
I1
sS'come '
p2913
I3
sS'make '
p2914
I1
sS'leave '
p2915
I1
sS'is '
p2916
I12
sS'mind '
p2917
I2
sS'unpleasant '
p2918
I1
sS'challenge '
p2919
I1
sS'might '
p2920
I45
sS'think '
p2921
I1
sS'can, '
p2922
I2
sS'way '
p2923
I1
sS'able '
p2924
I211
sS'skills '
p2925
I3
sS'ability '
p2926
I2
sS'out '
p2927
I1
sS"'s "
p2928
I7
sS'knee '
p2929
I1
sS'must '
p2930
I4
sS'camera '
p2931
I1
sS'free '
p2932
I2
sS'fuck '
p2933
I1
sS'somethingl '
p2934
I1
sS'now '
p2935
I1
sS'saved '
p2936
I1
sS'have '
p2937
I69
sS'every '
p2938
I1
sS'know '
p2939
I7
sS'bring '
p2940
I1
sS'together '
p2941
I1
sS'patient '
p2942
I1
sS'there '
p2943
I3
sS'hey '
p2944
I2
sS'bite '
p2945
I1
sS'sure '
p2946
I1
sS'won '
p2947
I1
sS'ilmeesi '
p2948
I1
sS'c '
p2949
I1
sS'couldn '
p2950
I46
sS'you '
p2951
I1
sS'off '
p2952
I1
sS'they '
p2953
I1
sS'wondering '
p2954
I2
sS'this '
p2955
I1
sS'possibly '
p2956
I1
sS'can" '
p2957
I4
sS'are '
p2958
I37
sS'serena '
p2959
I1
sS'and '
p2960
I1
sS'put '
p2961
I1
sS'take '
p2962
I4
sS'will '
p2963
I38
sS'to '
p2964
I33
sS'use '
p2965
I1
sS'go '
p2966
I5
sS"'d "
p2967
I5
sS'spectator '
p2968
I1
sS'amy '
p2969
I1
sS'point '
p2970
I1
sS', '
p2971
I6
sS'do '
p2972
I115
sS'dare '
p2973
I1
sS'understand '
p2974
I1
sS'how '
p2975
I9
sS'can\\u2019 '
p2976
I2
sS'themselves '
p2977
I1
sS'brad '
p2978
I1
sS"'t "
p2979
I1
sS'can '
p2980
I7971
sS'welcome '
p2981
I2
sS'screw '
p2982
I2
sS'oh '
p2983
I1
sS'minimoto '
p2984
I1
sS'daddy '
p2985
I1
sS'shall '
p2986
I7
sS'here '
p2987
I2
sS'get '
p2988
I26
sS'need '
p2989
I1
sS'hold '
p2990
I1
sS'back '
p2991
I1
stp2992
a((lp2993
S'umst\xc3\xa4nden'
p2994
aS'Umst\xc3\xa4nden'
p2995
a(dp2996
S'means '
p2997
I6
sS'circumstances, '
p2998
I1
sS'possibly '
p2999
I1
sS'point '
p3000
I1
sS'bun '
p3001
I1
sS'conditions '
p3002
I8
sS'circumstance '
p3003
I1
sS'considering '
p3004
I3
sS'condition '
p3005
I1
sS'potentially '
p3006
I1
sS'circumstances '
p3007
I84
sS'way '
p3008
I5
stp3009
a((lp3010
S'possibly'
p3011
aS'Possibly'
p3012
a(dp3013
S'possibly '
p3014
I1
stp3015
a((lp3016
S'ernsthaft'
p3017
aS'Ernsthaft'
p3018
a(dp3019
S'gravely '
p3020
I1
sS'serious, '
p3021
I1
sS'separated '
p3022
I1
sS'gupta '
p3023
I1
sS'that '
p3024
I1
sS'no '
p3025
I1
sS'professionally '
p3026
I1
sS'furious '
p3027
I1
sS'fool '
p3028
I1
sS'actually '
p3029
I1
sS'mm '
p3030
I1
sS'pam '
p3031
I1
sS'out '
p3032
I1
sS'prick '
p3033
I1
sS'often '
p3034
I1
sS'strongly '
p3035
I1
sS'michael '
p3036
I1
sS'earnest '
p3037
I1
sS'could '
p3038
I1
sS'really '
p3039
I50
sS'true '
p3040
I1
sS'hey '
p3041
I1
sS'ready '
p3042
I1
sS'quiquiriq\xc3\xad '
p3043
I1
sS'hurdy '
p3044
I1
sS'seekers '
p3045
I1
sS'deceptions '
p3046
I1
sS'is '
p3047
I1
sS'funny '
p3048
I2
sS'cents '
p3049
I1
sS'cut '
p3050
I1
sS'playing '
p3051
I1
sS'indeed '
p3052
I2
sS'fact '
p3053
I2
sS'oh '
p3054
I1
sS'it '
p3055
I1
sS'likseriously '
p3056
I1
sS'serious '
p3057
I51
sS'liz '
p3058
I1
sS'whoa '
p3059
I1
sS'please '
p3060
I1
sS'seriously '
p3061
I382
sS'honest '
p3062
I1
sS'honestly '
p3063
I19
sS'thanks '
p3064
I1
sS'rule- '
p3065
I1
sS'possibly '
p3066
I1
sS'we '
p3067
I1
sS'motorcycles '
p3068
I1
sS'real '
p3069
I9
sS'surprising '
p3070
I1
sS'\\u00b6 '
p3071
I1
sS'cidden '
p3072
I1
sS'nothing '
p3073
I1
sS'downstairs '
p3074
I1
sS'truly '
p3075
I1
sS'seriously, '
p3076
I3
sS'yeah '
p3077
I1
sS'done '
p3078
I2
stp3079
a((lp3080
S'gl\xc3\xbcck'
p3081
aS'Gl\xc3\xbcck'
p3082
a(dp3083
S'better '
p3084
I1
sS'sue '
p3085
I1
sS'happy '
p3086
I8
sS'thankfully '
p3087
I1
sS'luck '
p3088
I790
sS'shot '
p3089
I1
sS'articulate '
p3090
I1
sS'godspeed '
p3091
I3
sS'happiness '
p3092
I93
sS'it '
p3093
I1
sS'journey '
p3094
I1
sS'tomorrow '
p3095
I1
sS'fortunate '
p3096
I21
sS'god '
p3097
I6
sS'chance '
p3098
I1
sS'lumps '
p3099
I1
sS'least '
p3100
I1
sS'poor '
p3101
I1
sS'best '
p3102
I2
sS'fi '
p3103
I1
sS'goodness '
p3104
I4
sS'luckyi '
p3105
I1
sS'iuck '
p3106
I2
sS'probably '
p3107
I1
sS'bye '
p3108
I1
sS"'ll "
p3109
I1
sS'second '
p3110
I1
sS'iucky '
p3111
I1
sS'or '
p3112
I1
sS'blessing '
p3113
I4
sS'game '
p3114
I2
sS'glad '
p3115
I9
sS'come '
p3116
I1
sS'yes '
p3117
I1
sS'good '
p3118
I6
sS"'em "
p3119
I1
sS'dollar '
p3120
I1
sS'champagne '
p3121
I1
sS'mommy '
p3122
I1
sS'unlucky '
p3123
I4
sS'tricks '
p3124
I1
sS'lucked '
p3125
I4
sS'close '
p3126
I2
sS'bliss '
p3127
I4
sS'lucky '
p3128
I478
sS'riddance '
p3129
I1
sS'alguma '
p3130
I1
sS'mercy '
p3131
I1
sS'jack '
p3132
I1
sS'luckily '
p3133
I21
sS'happily '
p3134
I1
sS'kiitos '
p3135
I1
sS'sure '
p3136
I1
sS'right '
p3137
I1
sS'luckier '
p3138
I3
sS'rallo '
p3139
I1
sS'cell '
p3140
I1
sS'serendipitousactually '
p3141
I1
sS'blessings '
p3142
I2
sS'brace '
p3143
I1
sS'olivia '
p3144
I1
sS'alackaday '
p3145
I2
sS'warrant '
p3146
I1
sS'darling '
p3147
I1
sS'possibly '
p3148
I1
sS'enough '
p3149
I2
sS'fortunes '
p3150
I1
sS'odds '
p3151
I2
sS'bitching '
p3152
I1
sS'care '
p3153
I1
sS'big '
p3154
I1
sS'ahh '
p3155
I1
sS'fortunately '
p3156
I21
sS'seren '
p3157
I1
sS'meet '
p3158
I1
sS'well '
p3159
I2
sS', '
p3160
I1
sS'succeeded '
p3161
I1
sS'enjoyment '
p3162
I1
sS'yyo '
p3163
I1
sS'luck, '
p3164
I4
sS'fortune '
p3165
I32
sS'chances '
p3166
I1
sS'hello '
p3167
I1
sS'luckily, '
p3168
I2
sS'luckiest '
p3169
I1
sS'i '
p3170
I1
sS'suerte '
p3171
I2
sS'thing '
p3172
I10
sS'back '
p3173
I1
stp3174
a((lp3175
S'tunlichst'
p3176
aS'Tunlichst'
p3177
a(dp3178
S'possibly '
p3179
I1
stp3180
a((lp3181
S'frei'
p3182
aS'Frei'
p3183
a(dp3184
S'restricted '
p3185
I1
sS'clear, '
p3186
I1
sS'vacation '
p3187
I1
sS'freed '
p3188
I4
sS'reserved '
p3189
I1
sS'opened '
p3190
I4
sS'open '
p3191
I19
sS'spare '
p3192
I1
sS'oesophagus '
p3193
I1
sS'drawn '
p3194
I1
sS'want '
p3195
I2
sS'left '
p3196
I1
sS'release '
p3197
I19
sS'seat '
p3198
I3
sS'become '
p3199
I1
sS'vapaa '
p3200
I1
sS'off- '
p3201
I1
sS'robe '
p3202
I1
sS'vacant '
p3203
I6
sS'governor '
p3204
I1
sS'work '
p3205
I2
sS'freely '
p3206
I23
sS'clear '
p3207
I63
sS'now '
p3208
I2
sS'vacancy '
p3209
I1
sS'up '
p3210
I1
sS'away '
p3211
I1
sS'full '
p3212
I1
sS'available '
p3213
I6
sS'ifreedom '
p3214
I1
sS'leave '
p3215
I2
sS'cleared '
p3216
I4
sS'mind '
p3217
I2
sS'day '
p3218
I2
sS'clean '
p3219
I1
sS'offer '
p3220
I1
sS'walk '
p3221
I1
sS'personal '
p3222
I1
sS'loose '
p3223
I20
sS'ago '
p3224
I1
sS'dias '
p3225
I1
sS'passage '
p3226
I1
sS'through '
p3227
I2
sS'great '
p3228
I1
sS'released '
p3229
I14
sS'bathroom '
p3230
I1
sS'possibly '
p3231
I1
sS'base '
p3232
I1
sS'freedom '
p3233
I8
sS'off '
p3234
I87
sS'opening '
p3235
I3
sS'releasing '
p3236
I4
sS'go '
p3237
I24
sS'devoid '
p3238
I1
sS'out '
p3239
I22
sS'independent '
p3240
I1
sS'liberty '
p3241
I5
sS'took '
p3242
I1
sS'free '
p3243
I369
sS'spot '
p3244
I1
sS'wild '
p3245
I1
sS'done '
p3246
I1
stp3247
a((lp3248
S'm\xc3\xb6glichweise'
p3249
aS'M\xc3\xb6glichweise'
p3250
a(dp3251
S'possibly '
p3252
I1
sS'perhaps '
p3253
I1
stp3254
a((lp3255
S'verlauf'
p3256
aS'Verlauf'
p3257
a(dp3258
S'history '
p3259
I3
sS'possibly '
p3260
I1
sS'lost '
p3261
I1
sS'mileage '
p3262
I1
sS'process '
p3263
I3
sS'progression '
p3264
I1
sS'course '
p3265
I11
sS'forget '
p3266
I1
sS'don '
p3267
I1
sS'trends '
p3268
I1
sS'deposit '
p3269
I1
stp3270
a.