(lp0
((lp1
S'scheint'
p2
aS'Scheint'
p3
a(dp4
S'feel '
p5
I2
sS'figured '
p6
I1
sS'may '
p7
I1
sS'shows '
p8
I2
sS'els '
p9
I1
sS'appear '
p10
I15
sS'h\xc3\xb6lynp\xc3\xb6ly\xc3\xa4 '
p11
I1
sS'strikes '
p12
I1
sS'guess '
p13
I3
sS'looks '
p14
I85
sS'obviously '
p15
I1
sS'seems '
p16
I703
sS'look '
p17
I4
sS'appears '
p18
I87
sS'didn '
p19
I1
sS'appeared '
p20
I2
sS'seemed '
p21
I19
sS'come '
p22
I1
sS'happens '
p23
I1
sS'used '
p24
I3
sS'shines '
p25
I7
sS'is '
p26
I8
sS'clingfilm '
p27
I1
sS'does '
p28
I3
sS'doing '
p29
I2
sS'shall '
p30
I1
sS'like '
p31
I1
sS'doesn '
p32
I7
sS'shine '
p33
I4
sS'eyes '
p34
I2
sS'isn '
p35
I1
sS'think '
p36
I4
sS'coughed '
p37
I1
sS'simon '
p38
I1
sS'taught '
p39
I1
sS'clears '
p40
I1
sS'shining '
p41
I10
sS'turns '
p42
I1
sS'feels '
p43
I8
sS'tough '
p44
I1
sS'apparently, '
p45
I2
sS'we '
p46
I1
sS'apparently '
p47
I4
sS'seerns '
p48
I1
sS'pigment '
p49
I1
sS"'s "
p50
I27
sS'sounds '
p51
I16
sS'must '
p52
I6
sS'geiss '
p53
I1
sS'seem '
p54
I153
stp55
a((lp56
S'erscheint'
p57
aS'Erscheint'
p58
a(dp59
S'does '
p60
I4
sS'feels '
p61
I1
sS'arrives '
p62
I1
sS'occurs '
p63
I1
sS'appears '
p64
I14
sS'doesn '
p65
I4
sS'shows '
p66
I2
sS'arcade '
p67
I1
sS'seemed '
p68
I2
sS'swapping '
p69
I1
sS'appear '
p70
I5
sS'ayami '
p71
I1
sS'coming '
p72
I2
sS'scurries '
p73
I1
sS'looks '
p74
I1
sS'comes '
p75
I2
sS'gets '
p76
I1
sS'pops '
p77
I1
sS'progress '
p78
I5
sS'seems '
p79
I43
sS'seem '
p80
I9
stp81
a((lp82
S'sieht'
p83
aS'Sieht'
p84
a(dp85
S'aw '
p86
I1
sS'uh '
p87
I1
sS'companions '
p88
I1
sS'showing '
p89
I2
sS'luck '
p90
I1
sS'looks '
p91
I1627
sS'wow '
p92
I1
sS'did '
p93
I3
sS'n\xc3\xa4yt\xc3\xa4kin '
p94
I1
sS'gives '
p95
I1
sS'seen '
p96
I3
sS'look '
p97
I99
sS'it '
p98
I6
sS'gloria '
p99
I1
sS'about '
p100
I18
sS"'bout "
p101
I1
sS'would '
p102
I1
sS'turns '
p103
I1
sS'we '
p104
I14
sS'- '
p105
I1
sS'help '
p106
I1
sS'apparently '
p107
I3
sS'meets '
p108
I4
sS'sounds '
p109
I7
sS'iooks '
p110
I3
sS'alleggy '
p111
I1
sS'seem '
p112
I13
sS'watching '
p113
I14
sS'very '
p114
I1
sS'shows '
p115
I3
sS'got '
p116
I2
sS'has '
p117
I3
sS'appear '
p118
I3
sS'finds '
p119
I1
sS"'ll "
p120
I3
sS'links '
p121
I1
sS'seems '
p122
I91
sS'face '
p123
I2
sS'sees '
p124
I207
sS'seemed '
p125
I1
sS'pretty '
p126
I1
sS'saw '
p127
I7
sS'is '
p128
I85
sS'mitchell '
p129
I1
sS'grave '
p130
I2
sS'might '
p131
I1
sS'think '
p132
I1
sS'stylish '
p133
I1
sS'regards '
p134
I1
sS'five '
p135
I2
sS'checks '
p136
I1
sS'maybe '
p137
I1
sS'feels '
p138
I4
sS'show '
p139
I3
sS"'s "
p140
I264
sS'seeing '
p141
I26
sS'watches '
p142
I1
sS'status '
p143
I1
sS'lookin '
p144
I1
sS'negotiate '
p145
I1
sS'here '
p146
I1
sS'farewell '
p147
I1
sS'but '
p148
I1
sS'makes '
p149
I2
sS'guess '
p150
I4
sS'jack '
p151
I1
sS'eeee '
p152
I1
sS'other '
p153
I1
sS'loooks '
p154
I1
sS'doesn\\u2019 '
p155
I1
sS'appears '
p156
I9
sS'hey '
p157
I1
sS'sure '
p158
I1
sS'obvious '
p159
I1
sS'laughs '
p160
I2
sS'watch '
p161
I1
sS'dresses '
p162
I1
sS'?????? '
p163
I1
sS'like '
p164
I1
sS'doesn '
p165
I142
sS'first '
p166
I1
sS'bye '
p167
I2
sS'you '
p168
I4
sS'don '
p169
I7
sS'they '
p170
I3
sS"'cause "
p171
I1
sS'poking '
p172
I2
sS'feeling '
p173
I2
sS'clearly '
p174
I1
sS'deanne '
p175
I1
sS'certainly '
p176
I1
sS'later '
p177
I1
sS'hoping '
p178
I1
sS'smells '
p179
I2
sS'catch '
p180
I1
sS'mean- '
p181
I1
sS'he '
p182
I1
sS'are '
p183
I21
sS'eyes '
p184
I1
sS'to '
p185
I1
sS'spotted '
p186
I1
sS'comes '
p187
I1
sS"'d "
p188
I1
sS'meet '
p189
I3
sS'kind '
p190
I3
sS'well '
p191
I1
sS'looked '
p192
I12
sS'though '
p193
I1
sS'isn '
p194
I1
sS'do '
p195
I18
sS'figures '
p196
I1
sS'liu '
p197
I1
sS'sound '
p198
I1
sS's '
p199
I1
sS'does '
p200
I157
sS'a '
p201
I1
sS'slaw '
p202
I1
sS'can '
p203
I21
sS'oh '
p204
I2
sS'looking '
p205
I74
sS'iooking '
p206
I1
sS'aesthetically '
p207
I1
sS'see '
p208
I275
sS'i '
p209
I3
sS'penta '
p210
I1
sS'cabo '
p211
I1
sS'real '
p212
I1
sS'iook '
p213
I1
sS'seein '
p214
I3
stp215
a((lp216
S'aussieht'
p217
aS'Aussieht'
p218
a(dp219
S'city '
p220
I1
sS'appear '
p221
I2
sS'desmond '
p222
I1
sS'guess '
p223
I2
sS'looks '
p224
I227
sS'blame '
p225
I1
sS'weird '
p226
I1
sS'seems '
p227
I13
sS'face '
p228
I1
sS'like '
p229
I4
sS'appears '
p230
I6
sS'iooks '
p231
I1
sS'now '
p232
I1
sS'seen '
p233
I1
sS'adorable '
p234
I1
sS'ugly '
p235
I1
sS'is '
p236
I11
sS'doing '
p237
I2
sS'state '
p238
I2
sS'shaped '
p239
I1
sS'looked '
p240
I13
sS'look '
p241
I35
sS'move '
p242
I1
sS'looking '
p243
I6
sS'think '
p244
I4
sS'might '
p245
I1
sS'behavior '
p246
I1
sS'seemlike '
p247
I1
sS'turns '
p248
I1
sS'at '
p249
I1
sS'apparently '
p250
I4
sS'lookin '
p251
I2
sS'defended '
p252
I1
sS'seem '
p253
I12
stp254
a((lp255
S'anscheinend'
p256
aS'Anscheinend'
p257
a(dp258
S'peeled '
p259
I1
sS'unfortunately '
p260
I1
sS'institutionalized '
p261
I1
sS'mighty '
p262
I1
sS'guess '
p263
I6
sS'looks '
p264
I15
sS'obviously '
p265
I21
sS'heard '
p266
I1
sS'seems '
p267
I29
sS'donny '
p268
I1
sS'may '
p269
I1
sS'hotter '
p270
I1
sS'fair '
p271
I1
sS'm '
p272
I1
sS'appears '
p273
I6
sS'savannah '
p274
I1
sS'seemed '
p275
I3
sS'well '
p276
I1
sS'pretpostavio '
p277
I1
sS'so '
p278
I1
sS'cha '
p279
I1
sS'singsongy '
p280
I1
sS'evidently '
p281
I3
sS'might '
p282
I1
sS'think '
p283
I1
sS'supposedly '
p284
I3
sS'i '
p285
I1
sS'to '
p286
I1
sS'turns '
p287
I1
sS'clearly '
p288
I4
sS'apparently, '
p289
I5
sS'bunch '
p290
I1
sS'apparently '
p291
I182
sS'institutionalised '
p292
I1
sS'quo '
p293
I1
sS'employed '
p294
I1
sS'seemingly '
p295
I5
sS'yeah '
p296
I1
sS'seem '
p297
I12
stp298
a((lp299
S'scheinbar'
p300
aS'Scheinbar'
p301
a(dp302
S'maybe '
p303
I1
sS'appears '
p304
I4
sS'apparently, '
p305
I1
sS'afraid '
p306
I2
sS'apparently '
p307
I46
sS'clearly '
p308
I3
sS'seemed '
p309
I6
sS'appear '
p310
I1
sS'felt '
p311
I2
sS'how '
p312
I1
sS'imaginary '
p313
I1
sS'alright '
p314
I1
sS'looks '
p315
I2
sS"'t, "
p316
I1
sS'obviously '
p317
I3
sS'seemingly '
p318
I6
sS'seems '
p319
I9
sS'seem '
p320
I6
stp321
a((lp322
S'offenbar'
p323
aS'Offenbar'
p324
a(dp325
S'handle '
p326
I1
sS'ah '
p327
I1
sS'appears '
p328
I3
sS'looks '
p329
I2
sS'clearly '
p330
I9
sS'hurting '
p331
I2
sS'obvously '
p332
I1
sS'apparently '
p333
I84
sS'associating '
p334
I1
sS'obvious '
p335
I1
sS'purchases '
p336
I1
sS'presumably '
p337
I1
sS'boden '
p338
I1
sS'evidently '
p339
I10
sS'obviously '
p340
I51
sS'i '
p341
I1
sS'probably '
p342
I1
sS'seems '
p343
I8
sS'seem '
p344
I3
stp345
a((lp346
S'denken'
p347
aS'Denken'
p348
a(dp349
S'feel '
p350
I28
sS'record '
p351
I1
sS'mean '
p352
I1
sS'redbeard '
p353
I1
sS'work '
p354
I1
sS'wonder '
p355
I3
sS'remeber '
p356
I1
sS'won '
p357
I1
sS'focus '
p358
I1
sS'spirited '
p359
I1
sS'thinking '
p360
I306
sS'agree '
p361
I1
sS'imagine '
p362
I6
sS'please '
p363
I1
sS'expect '
p364
I1
sS'- '
p365
I2
sS'jenny '
p366
I1
sS'want '
p367
I1
sS"'re "
p368
I6
sS'brooks '
p369
I1
sS'sex '
p370
I1
sS"'ll "
p371
I1
sS'decided '
p372
I1
sS'thinkin '
p373
I2
sS'just '
p374
I1
sS'concentrate '
p375
I4
sS'*** '
p376
I1
sS'figure '
p377
I4
sS'thinkl '
p378
I2
sS'that '
p379
I2
sS'make '
p380
I2
sS'murmuring '
p381
I1
sS'thinks '
p382
I24
sS'jones '
p383
I1
sS'is '
p384
I1
sS'mind '
p385
I14
sS'bates '
p386
I1
sS', '
p387
I1
sS'ghost '
p388
I1
sS'reckon '
p389
I2
sS'think '
p390
I1903
sS'hurts '
p391
I1
sS'longo '
p392
I1
sS'say '
p393
I5
sS'remembered '
p394
I1
sS'forget '
p395
I1
sS'but '
p396
I1
sS'anyone '
p397
I1
sS'felt '
p398
I1
sS'guess '
p399
I8
sS'jacuzzi '
p400
I1
sS'imagined '
p401
I3
sS'know '
p402
I4
sS'bright '
p403
I1
sS'appears '
p404
I2
sS'idea '
p405
I2
sS'thoughts '
p406
I5
sS'lady '
p407
I1
sS'remember '
p408
I87
sS'believe '
p409
I10
sS'insist '
p410
I1
sS'like '
p411
I1
sS'chamillionaire '
p412
I1
sS'monetary- '
p413
I1
sS'consider '
p414
I6
sS'you '
p415
I1
sS'don '
p416
I13
sS'consideration '
p417
I1
sS'what '
p418
I4
sS'clears '
p419
I1
sS'means '
p420
I1
sS'are '
p421
I4
sS'pretend '
p422
I1
sS'assume '
p423
I4
sS'known '
p424
I3
sS'thinkthey '
p425
I2
sS'head '
p426
I4
sS'pensez- '
p427
I1
sS'figured '
p428
I3
sS'thought '
p429
I33
sS'guessed '
p430
I1
sS'plan '
p431
I1
sS'wondered '
p432
I1
sS'realize '
p433
I1
sS'minds '
p434
I1
sS'do '
p435
I61
sS'congratulations '
p436
I1
sS'food '
p437
I1
sS'thinkst '
p438
I2
sS'ponder '
p439
I1
sS'thinking, '
p440
I1
sS'concern '
p441
I1
sS'insomnia '
p442
I1
sS'sexy '
p443
I1
sS'rocha '
p444
I1
sS'think\\u00a1 '
p445
I1
sS'yeah '
p446
I1
stp447
a((lp448
S'vorkommt'
p449
aS'Vorkommt'
p450
a(dp451
S'reverend '
p452
I1
sS'involves '
p453
I1
sS'appears '
p454
I2
sS'occurred '
p455
I1
sS'recognize '
p456
I1
sS'romances '
p457
I1
sS'weak '
p458
I1
sS'happen '
p459
I2
sS'comes '
p460
I1
sS'again '
p461
I1
sS'either '
p462
I1
stp463
a((lp464
S'br\xc3\xa4uchten'
p465
aS'Br\xc3\xa4uchten'
p466
a(dp467
S'needed '
p468
I5
sS'bother '
p469
I2
sS'could '
p470
I2
sS'appears '
p471
I1
sS'use '
p472
I1
sS'had '
p473
I1
sS'angry '
p474
I1
sS'need '
p475
I25
stp476
a((lp477
S'appears'
p478
aS'Appears'
p479
a(dp480
S'appears '
p481
I1
stp482
a((lp483
S'aufgetaucht'
p484
aS'Aufgetaucht'
p485
a(dp486
S'showed '
p487
I92
sS'shows '
p488
I2
sS'showed, '
p489
I1
sS'appear '
p490
I1
sS'showing '
p491
I3
sS'shown '
p492
I8
sS'appears '
p493
I1
sS'appeared '
p494
I6
sS'closest '
p495
I1
sS'appearing '
p496
I1
sS'turned '
p497
I4
sS'came '
p498
I3
sS'eventually, '
p499
I1
sS'found '
p500
I1
sS'surfaced '
p501
I4
sS'unaccounted '
p502
I1
sS'came, '
p503
I1
sS'grayer '
p504
I1
sS'resurfaced '
p505
I1
sS'popped '
p506
I1
sS'show '
p507
I29
sS'front '
p508
I1
stp509
a((lp510
S'erlebt'
p511
aS'Erlebt'
p512
a(dp513
S'live '
p514
I1
sS'felt '
p515
I1
sS'since '
p516
I1
sS'imm\xc3\xa9diately '
p517
I1
sS'warning '
p518
I1
sS'times '
p519
I1
sS'witnessed '
p520
I1
sS'witness '
p521
I1
sS'appears '
p522
I1
sS'experienced, '
p523
I1
sS'experience '
p524
I1
sS'before '
p525
I2
sS'lived '
p526
I5
sS'hey '
p527
I1
sS'seen '
p528
I38
sS'saw '
p529
I5
sS'time '
p530
I1
sS'experiencing '
p531
I4
sS'experiences '
p532
I2
sS'through '
p533
I16
sS'met '
p534
I1
sS'been '
p535
I3
sS'reported '
p536
I1
sS'had '
p537
I1
sS'happening '
p538
I1
sS'known '
p539
I5
sS'such '
p540
I1
sS'happen '
p541
I2
sS'experienced '
p542
I24
stp543
a((lp544
S'vorgibt'
p545
aS'Vorgibt'
p546
a(dp547
S'wouldn '
p548
I1
sS'pretends '
p549
I1
sS'appears '
p550
I1
sS'pretending '
p551
I5
stp552
a((lp553
S'scheintjeder'
p554
aS'Scheintjeder'
p555
a(dp556
S'appears '
p557
I1
stp558
a((lp559
S'wirkt'
p560
aS'Wirkt'
p561
a(dp562
S'itjust '
p563
I1
sS'effect '
p564
I1
sS'kick '
p565
I1
sS'has '
p566
I2
sS"'ll "
p567
I1
sS'looks '
p568
I12
sS'seems '
p569
I21
sS'affects '
p570
I2
sS'proportionately '
p571
I1
sS'appears '
p572
I1
sS'work '
p573
I7
sS'seemed '
p574
I1
sS'goes '
p575
I1
sS'acting '
p576
I3
sS'does '
p577
I12
sS'squeaky '
p578
I1
sS'working '
p579
I5
sS'look '
p580
I1
sS'doesn '
p581
I4
sS'affected '
p582
I1
sS'ooh '
p583
I1
sS'works '
p584
I9
sS'... '
p585
I1
sS'feels '
p586
I1
sS'go '
p587
I1
sS"'s "
p588
I8
sS'affecting '
p589
I1
sS'affect '
p590
I1
sS'seem '
p591
I1
stp592
a((lp593
S'tritt'
p594
aS'Tritt'
p595
a(dp596
S'kcked '
p597
I1
sS'stomp '
p598
I1
sS'kicks '
p599
I8
sS'comes '
p600
I2
sS'hits '
p601
I1
sS'wow '
p602
I1
sS'appears '
p603
I1
sS'step '
p604
I30
sS'kicked '
p605
I1
sS'suddenly '
p606
I2
sS'kicking '
p607
I4
sS'come '
p608
I1
sS'trip '
p609
I1
sS'make '
p610
I1
sS'hit '
p611
I2
sS'hell '
p612
I1
sS'if '
p613
I1
sS'steps '
p614
I4
sS'start '
p615
I1
sS'joins '
p616
I1
sS'bastards '
p617
I1
sS'joining '
p618
I1
sS'brawl '
p619
I1
sS'kick '
p620
I36
sS'tread '
p621
I1
sS'runs '
p622
I1
sS'boot '
p623
I5
sS'driving '
p624
I1
sS'idea '
p625
I1
sS'resigns '
p626
I1
sS'effective '
p627
I1
sS'sticks '
p628
I2
sS'tap '
p629
I1
sS'summer '
p630
I1
sS'sotkisimme '
p631
I1
sS'yeah '
p632
I2
sS'stand '
p633
I2
sS'punch '
p634
I3
stp635
a((lp636
S'scheinen'
p637
aS'Scheinen'
p638
a(dp639
S'singles '
p640
I1
sS'appear '
p641
I10
sS'looks '
p642
I6
sS'seems '
p643
I12
sS'appears '
p644
I1
sS'seemed '
p645
I4
sS'strike '
p646
I1
sS'clams '
p647
I1
sS'pretty '
p648
I1
sS'must '
p649
I1
sS'business '
p650
I1
sS'shine '
p651
I12
sS'might '
p652
I1
sS'don '
p653
I2
sS'checks '
p654
I1
sS'bills '
p655
I6
sS'shining '
p656
I4
sS'weapon '
p657
I1
sS'ac/ '
p658
I1
sS'mugger '
p659
I1
sS'bucks '
p660
I1
sS'sounds '
p661
I1
sS"'re "
p662
I3
sS'ask '
p663
I1
sS'seem '
p664
I126
stp665
a((lp666
S'\xc3\x96iquelle'
p667
aS'\xc3\x96iquelle'
p668
a(dp669
tp670
a.