(lp0
((lp1
S'zweifel'
p2
aS'Zweifel'
p3
a(dp4
S'doubt '
p5
I141
sS'unremarkable '
p6
I1
sS'unprecedentedly '
p7
I1
sS'decco '
p8
I1
sS'anxious '
p9
I1
sS'miike '
p10
I1
sS'doubts '
p11
I49
sS'convinced '
p12
I1
sS'buts '
p13
I1
sS'down '
p14
I1
sS'flag '
p15
I1
sS'thoughts '
p16
I3
sS'sure '
p17
I1
sS'question '
p18
I7
sS'probability '
p19
I2
sS'surely '
p20
I2
sS'about '
p21
I5
sS'match '
p22
I1
sS'internal '
p23
I1
sS'guaranteed '
p24
I1
sS'second- '
p25
I1
sS'part '
p26
I1
sS'argument '
p27
I1
sS'undoubtedly '
p28
I2
sS'fail '
p29
I1
sS'doubting '
p30
I2
sS'fear '
p31
I1
stp32
a((lp33
S'bezweifle'
p34
aS'Bezweifle'
p35
a(dp36
S'doubt '
p37
I122
sS'love '
p38
I1
sS'tuesday '
p39
I1
sS'don '
p40
I9
sS'convinced '
p41
I1
sS'doubting '
p42
I1
sS'nick '
p43
I1
sS's& '
p44
I1
stp45
a((lp46
S'zweifeln'
p47
aS'Zweifeln'
p48
a(dp49
S'feel '
p50
I1
sS'doubt '
p51
I24
sS'hickey '
p52
I1
sS'skeptical '
p53
I1
sS'wondering '
p54
I1
sS'makes '
p55
I1
sS'fail '
p56
I1
sS'directapproach '
p57
I1
sS'doubts '
p58
I3
sS'imagined '
p59
I1
sS'optimistic '
p60
I1
sS'doubting '
p61
I4
sS'serious '
p62
I1
sS'doubted '
p63
I3
sS'pride '
p64
I1
sS'scruples '
p65
I1
stp66
a((lp67
S'zweifle'
p68
aS'Zweifle'
p69
a(dp70
S'questioning '
p71
I1
sS'second- '
p72
I1
sS'doubt '
p73
I18
sS'question '
p74
I5
sS'doubting '
p75
I1
stp76
a((lp77
S'zweifellos'
p78
aS'Zweifellos'
p79
a(dp80
S'doubt '
p81
I14
sS'clearly '
p82
I1
sS'doubtless '
p83
I1
sS'undoubtedly '
p84
I8
sS'certainly '
p85
I3
sS'absolutely '
p86
I1
sS'strictly '
p87
I2
sS'hands '
p88
I1
sS'decidedly '
p89
I1
sS'footloose '
p90
I2
stp91
a((lp92
S'bezweifele'
p93
aS'Bezweifele'
p94
a(dp95
S'boss '
p96
I1
sS'many '
p97
I1
sS'doubt '
p98
I14
stp99
a((lp100
S'glaube'
p101
aS'Glaube'
p102
a(dp103
S'feel '
p104
I31
sS'abby '
p105
I1
sS'may '
p106
I4
sS'uh '
p107
I1
sS'school '
p108
I1
sS'dream '
p109
I1
sS'mean '
p110
I5
sS'looks '
p111
I2
sS'actually '
p112
I1
sS'word '
p113
I1
sS'already '
p114
I1
sS'really '
p115
I3
sS'buying '
p116
I1
sS'luc '
p117
I1
sS'genuinely '
p118
I1
sS'thinking '
p119
I29
sS'opinion '
p120
I1
sS'imagine '
p121
I8
sS'god '
p122
I1
sS'herrmann '
p123
I1
sS'expect '
p124
I1
sS"'ve "
p125
I2
sS'guess '
p126
I155
sS'aware '
p127
I1
sS'believed '
p128
I6
sS'probably '
p129
I2
sS'any '
p130
I1
sS'seem '
p131
I3
sS'thinkthat '
p132
I1
sS'sumnjam '
p133
I1
sS"'ll "
p134
I2
sS'second '
p135
I1
sS'seems '
p136
I10
sS'just '
p137
I3
sS'beliefs '
p138
I1
sS'entomologlst '
p139
I1
sS'figure '
p140
I7
sS'find '
p141
I1
sS'hit '
p142
I1
sS'thinks '
p143
I1
sS'saw '
p144
I2
sS'kristina '
p145
I1
sS'accept '
p146
I1
sS'connection '
p147
I1
sS'lsn '
p148
I1
sS'guessin '
p149
I1
sS'brilliant '
p150
I1
sS'reckon '
p151
I6
sS'think '
p152
I2889
sS'itchy '
p153
I2
sS'maybe '
p154
I6
sS'feels '
p155
I2
sS'less '
p156
I1
sS'suspect '
p157
I3
sS'spirit '
p158
I1
sS'trust '
p159
I12
sS'but '
p160
I1
sS'doubt '
p161
I10
sS'wonder '
p162
I1
sS'thinkyou '
p163
I2
sS'lily '
p164
I1
sS'jerri '
p165
I1
sS'have '
p166
I2
sS'convinced '
p167
I1
sS'know '
p168
I9
sS'dublin '
p169
I1
sS'gather '
p170
I1
sS'suddenly '
p171
I1
sS'belief '
p172
I9
sS'sure '
p173
I2
sS'suppose '
p174
I16
sS'know, '
p175
I2
sS'believe '
p176
I997
sS'so '
p177
I2
sS'doesn '
p178
I1
sS'creed '
p179
I1
sS'don '
p180
I367
sS'feeling '
p181
I3
sS'learned '
p182
I1
sS"'tbelieve "
p183
I1
sS'riga '
p184
I1
sS'were '
p185
I2
sS'assume '
p186
I5
sS'ask '
p187
I1
sS'messin '
p188
I1
sS'ahh '
p189
I1
sS'bottles '
p190
I2
sS'figured '
p191
I1
sS'faith '
p192
I57
sS'thought '
p193
I12
sS"'d "
p194
I2
sS'bet '
p195
I5
sS'kind '
p196
I1
sS"'t "
p197
I1
sS'do '
p198
I15
sS"'m "
p199
I40
sS'passionate '
p200
I1
sS'trick '
p201
I1
sS'thinkwe '
p202
I2
sS'can '
p203
I10
sS'walter '
p204
I1
sS'somebody '
p205
I1
sS'thnk '
p206
I1
sS'hear '
p207
I1
sS'my '
p208
I1
sS'ithink '
p209
I2
sS'believes '
p210
I1
sS'believing '
p211
I6
sS'ireckon '
p212
I1
sS'buy '
p213
I2
sS'lundy '
p214
I1
sS'need '
p215
I2
sS'guessing '
p216
I8
sS'idea '
p217
I1
sS'something '
p218
I2
stp219
a((lp220
S'zweifelst'
p221
aS'Zweifelst'
p222
a(dp223
S'questioning '
p224
I2
sS'doubt '
p225
I9
sS'question '
p226
I1
sS'yesterday, '
p227
I1
sS'h\\u1ea3 '
p228
I1
sS'hesitate '
p229
I1
sS'doubting '
p230
I1
sS'doubted '
p231
I1
stp232
a((lp233
S'zweifelt'
p234
aS'Zweifelt'
p235
a(dp236
S'questioning '
p237
I1
sS'doubt '
p238
I9
sS'then '
p239
I1
sS'doubts '
p240
I7
sS'largest '
p241
I1
stp242
a((lp243
S'zweifelsohne'
p244
aS'Zweifelsohne'
p245
a(dp246
S'accident '
p247
I1
sS'without '
p248
I1
sS'doubt '
p249
I8
stp250
a((lp251
S'frage'
p252
aS'Frage'
p253
a(dp254
S'one '
p255
I4
sS'wall '
p256
I2
sS'matter '
p257
I142
sS'officers '
p258
I1
sS'smart '
p259
I1
sS'would '
p260
I1
sS'mean '
p261
I2
sS'please '
p262
I1
sS'course '
p263
I2
sS'wonder '
p264
I205
sS'if '
p265
I1
sS'questions '
p266
I29
sS'mistake '
p267
I1
sS'question '
p268
I1320
sS'pierre '
p269
I1
sS'thinking '
p270
I1
sS'issue '
p271
I1
sS'it '
p272
I2
sS'decision '
p273
I1
sS'dropping '
p274
I1
sS'interrogative '
p275
I9
sS'questioning '
p276
I8
sS'inevitable '
p277
I2
sS'statement '
p278
I1
sS'dirty '
p279
I1
sS'lab '
p280
I1
sS'me '
p281
I2
sS'\\u0437\\u0430\\u0445\\u043e\\u0447\\u0435\\u0442 '
p282
I1
sS"'ll "
p283
I1
sS'state '
p284
I1
sS'just '
p285
I1
sS'request '
p286
I1
sS'option '
p287
I3
sS'man '
p288
I1
sS'nbc '
p289
I1
sS'official '
p290
I1
sS'might '
p291
I1
sS'asked '
p292
I11
sS'temple '
p293
I1
sS'say '
p294
I8
sS'istedi\\u011fini '
p295
I1
sS'cross '
p296
I1
sS'checking '
p297
I2
sS'question, '
p298
I4
sS'mute '
p299
I2
sS'go '
p300
I1
sS'check '
p301
I3
sS'out '
p302
I1
sS'askin '
p303
I2
sS'properly '
p304
I1
sS'way '
p305
I5
sS'doubt '
p306
I7
sS'really '
p307
I1
sS'what '
p308
I1
sS'worried '
p309
I1
sS'know '
p310
I4
sS'anywhere '
p311
I1
sS'ways '
p312
I1
sS'panama '
p313
I1
sS'choice '
p314
I1
sS'so '
p315
I1
sS'don '
p316
I1
sS'information '
p317
I1
sS'queston '
p318
I1
sS'wondering '
p319
I81
sS'this '
p320
I1
sS'clearly '
p321
I7
sS'queson '
p322
I1
sS'later '
p323
I2
sS'applying '
p324
I1
sS'query '
p325
I1
sS'ask '
p326
I200
sS'asking '
p327
I156
sS'nasa '
p328
I1
sS'application '
p329
I1
sS'cosby '
p330
I1
sS'begging '
p331
I1
sS'thought '
p332
I2
sS'amy '
p333
I2
sS'point '
p334
I2
sS'colonel '
p335
I1
sS'wondered '
p336
I4
sS'dean '
p337
I1
sS'moody '
p338
I1
sS'do '
p339
I1
sS"'m "
p340
I6
sS'rescue '
p341
I1
sS'asks '
p342
I1
sS'mutual '
p343
I1
sS'tell '
p344
I3
sS'questions, '
p345
I1
sS'impossible '
p346
I1
sS'i '
p347
I2
sS'bro '
p348
I1
sS'couple '
p349
I1
sS'acceptable '
p350
I2
sS'explain '
p351
I1
sS'saying '
p352
I1
sS'thing '
p353
I6
sS'q& '
p354
I1
sS'something '
p355
I1
stp356
a((lp357
S'bezweifel'
p358
aS'Bezweifel'
p359
a(dp360
S'doubt '
p361
I7
stp362
a((lp363
S'bezweifeln'
p364
aS'Bezweifeln'
p365
a(dp366
S'flag- '
p367
I2
sS'doubt '
p368
I6
stp369
a((lp370
S'bezweifelt'
p371
aS'Bezweifelt'
p372
a(dp373
S'doubt '
p374
I5
sS'doubted '
p375
I2
sS'despairs '
p376
I1
sS'doubts '
p377
I1
stp378
a((lp379
S'sicher'
p380
aS'Sicher'
p381
a(dp382
S'definitely '
p383
I22
sS'checked '
p384
I1
sS'certain '
p385
I169
sS'could '
p386
I3
sS'may '
p387
I1
sS'uh '
p388
I1
sS'clearing '
p389
I1
sS'doc '
p390
I1
sS'no '
p391
I7
sS'record '
p392
I1
sS'would '
p393
I7
sS'hi '
p394
I2
sS'ok '
p395
I2
sS'redcap '
p396
I1
sS'fat '
p397
I1
sS'confirm '
p398
I2
sS'steady '
p399
I1
sS'certa\xc3\xadnly '
p400
I1
sS'mattress '
p401
I1
sS'course '
p402
I67
sS'already '
p403
I3
sS'bait '
p404
I1
sS'de\\u011filim '
p405
I1
sS'confidentthat '
p406
I1
sS'sureshe '
p407
I1
sS'clarify '
p408
I1
sS'gotta '
p409
I3
sS'really '
p410
I7
sS'absolutely '
p411
I10
sS'few '
p412
I1
sS'mother '
p413
I1
sS'validation '
p414
I1
sS'pleasure '
p415
I1
sS'pictures '
p416
I1
sS'manage '
p417
I1
sS'isafe '
p418
I3
sS'dodukanleyo '
p419
I1
sS'seat '
p420
I1
sS'thank '
p421
I2
sS'fizbo- '
p422
I1
sS'talk '
p423
I1
sS'it '
p424
I10
sS'hmm '
p425
I1
sS'liz '
p426
I1
sS'regular '
p427
I1
sS'banana '
p428
I1
sS'imagine '
p429
I1
sS'please '
p430
I1
sS'sorry '
p431
I2
sS'clean '
p432
I1
sS'agency '
p433
I1
sS'whatever '
p434
I1
sS'all '
p435
I1
sS'guarantee '
p436
I1
sS'hurry '
p437
I1
sS'talking '
p438
I1
sS'fine '
p439
I4
sS'secured '
p440
I1
sS'torn '
p441
I1
sS'have '
p442
I1
sS'pen '
p443
I1
sS'birthday '
p444
I1
sS'totally '
p445
I3
sS'probably '
p446
I62
sS'safer '
p447
I3
sS'damm '
p448
I1
sS'determined '
p449
I1
sS'assure '
p450
I1
sS'anything '
p451
I2
sS'blocking '
p452
I1
sS'safe '
p453
I790
sS'got '
p454
I2
sS'teammates '
p455
I1
sS'*** '
p456
I1
sS"'ll "
p457
I3
sS'as '
p458
I1
sS'invisible '
p459
I1
sS'likely '
p460
I1
sS'yup '
p461
I1
sS'laughing '
p462
I3
sS'face '
p463
I1
sS'gunfire '
p464
I1
sS'at '
p465
I2
sS'johnny '
p466
I1
sS'surethis '
p467
I2
sS'hit '
p468
I1
sS'assured '
p469
I4
sS'that '
p470
I1
sS'come '
p471
I1
sS'find '
p472
I1
sS'yes '
p473
I6
sS'good '
p474
I5
sS'safety '
p475
I1
sS'even '
p476
I1
sS'is '
p477
I2
sS'nothing '
p478
I1
sS'protected '
p479
I4
sS'built '
p480
I2
sS'count '
p481
I1
sS'proof '
p482
I3
sS'brilliant '
p483
I1
sS'aid '
p484
I1
sS'them '
p485
I1
sS'dismiss '
p486
I1
sS'might '
p487
I8
sS'think '
p488
I9
sS'ridikolus '
p489
I1
sS'surely '
p490
I51
sS'doesn '
p491
I2
sS'hello '
p492
I1
sS'saturday '
p493
I1
sS'burke '
p494
I1
sS'ruth '
p495
I1
sS'cheney '
p496
I1
sS'puhut '
p497
I1
sS'seriously '
p498
I2
sS'nuts '
p499
I1
sS'jerry '
p500
I2
sS'ones '
p501
I1
sS'bruv '
p502
I1
sS'joe '
p503
I1
sS'su '
p504
I1
sS'checking '
p505
I1
sS'seymour, '
p506
I1
sS'thanks '
p507
I2
sS'happen '
p508
I1
sS'must '
p509
I49
sS'surethat '
p510
I2
sS'constance '
p511
I1
sS'quite '
p512
I2
sS'threesome '
p513
I1
sS'lot '
p514
I2
sS'trust '
p515
I3
sS'boring '
p516
I1
sS'cookie '
p517
I1
sS'deserves '
p518
I1
sS'doubt '
p519
I4
sS'angle '
p520
I1
sS'neurobiologist '
p521
I1
sS'live '
p522
I1
sS'knew '
p523
I2
sS'case '
p524
I3
sS'see '
p525
I3
sS'stakes '
p526
I1
sS'wanna '
p527
I1
sS'worried '
p528
I2
sS'guess '
p529
I3
sS'convinced '
p530
I4
sS'know '
p531
I45
sS'obviously '
p532
I1
sS'ton '
p533
I1
sS'brain '
p534
I1
sS'toilets '
p535
I1
sS'$23 '
p536
I1
sS'passageway '
p537
I1
sS'be '
p538
I38
sS'thoughts '
p539
I2
sS'there '
p540
I3
sS'sure '
p541
I4971
sS'suppose '
p542
I5
sS'right '
p543
I25
sS'insane '
p544
I1
sS'unsafe '
p545
I4
sS'me '
p546
I2
sS'believe '
p547
I2
sS'batman '
p548
I1
sS'why '
p549
I1
sS'so '
p550
I1
sS'certainty '
p551
I2
sS'crap '
p552
I1
sS'jr '
p553
I1
sS'safely '
p554
I56
sS'ronstadt '
p555
I1
sS'you '
p556
I6
sS'off '
p557
I1
sS'serious '
p558
I19
sS'they '
p559
I2
sS'what '
p560
I1
sS'right- '
p561
I1
sS'straight '
p562
I2
sS'means '
p563
I3
sS'odavde '
p564
I1
sS'okay '
p565
I9
sS'clearly '
p566
I6
sS'certainly '
p567
I86
sS'and '
p568
I1
sS'won '
p569
I1
sS'betcha '
p570
I1
sS'mesome '
p571
I1
sS'he '
p572
I2
sS'shizzle '
p573
I1
sS'eh '
p574
I1
sS'mike '
p575
I1
sS'will '
p576
I3
sS'granted '
p577
I4
sS'spot '
p578
I1
sS'confident '
p579
I13
sS'cheer '
p580
I1
sS'gonna '
p581
I3
sS'shure '
p582
I1
sS'positive '
p583
I31
sS"' "
p584
I1
sS's\\u00fbr '
p585
I1
sS'go '
p586
I1
sS"'d "
p587
I1
sS'bat '
p588
I1
sS'bet '
p589
I25
sS'cocksure '
p590
I1
sS'none '
p591
I1
sS'swear '
p592
I1
sS'well '
p593
I5
sS"'t "
p594
I1
sS'solid '
p595
I2
sS'though '
p596
I1
sS', '
p597
I1
sS'do '
p598
I5
sS'clear '
p599
I27
sS'made- '
p600
I1
sS'understand '
p601
I4
sS'hell '
p602
I1
sS'watch '
p603
I1
sS'compromised '
p604
I1
sS'engaged '
p605
I1
sS'soda '
p606
I1
sS'eat '
p607
I1
sS'point '
p608
I1
sS'fact '
p609
I6
sS'can '
p610
I6
sS'sit '
p611
I1
sS'oh '
p612
I2
sS'sure, '
p613
I23
sS'spend '
p614
I1
sS'assurance '
p615
I1
sS'surehe '
p616
I1
sS'sicher '
p617
I1
sS'ridiculous '
p618
I1
sS'i '
p619
I6
sS'she, '
p620
I1
sS'ahead '
p621
I1
sS're '
p622
I3
sS'excuse '
p623
I1
sS'door '
p624
I1
sS'don '
p625
I4
sS'katie '
p626
I1
sS'real '
p627
I1
sS'sire '
p628
I3
sS'surei '
p629
I1
sS'secure '
p630
I51
sS'ensure '
p631
I1
sS'covered '
p632
I1
sS'great '
p633
I2
sS'assuredly '
p634
I1
sS'shut '
p635
I1
sS'thing '
p636
I1
sS'picking '
p637
I1
sS'still '
p638
I1
sS"'m "
p639
I1
sS'yeah '
p640
I30
sS'epitome '
p641
I1
stp642
a((lp643
S'kaum'
p644
aS'Kaum'
p645
a(dp646
S'record '
p647
I2
sS'doubt '
p648
I3
sS'low '
p649
I1
sS'very '
p650
I5
sS'hardly '
p651
I202
sS'no '
p652
I3
sS'almost '
p653
I11
sS'as '
p654
I1
sS'once '
p655
I1
sS'scarcely '
p656
I11
sS'likely '
p657
I1
sS'soon '
p658
I3
sS'barely '
p659
I235
sS'there '
p660
I2
sS'rarely '
p661
I3
sS'few '
p662
I1
sS'barehy '
p663
I1
sS'marginally '
p664
I1
sS'exactlyno '
p665
I1
sS'enough '
p666
I1
sS'time '
p667
I1
sS'unlikely '
p668
I3
sS'nothing '
p669
I1
sS'much '
p670
I13
sS"'t "
p671
I227
sS'wakey- '
p672
I1
sS'can '
p673
I2
sS'hard '
p674
I36
sS'even '
p675
I2
sS'depend '
p676
I1
sS'little '
p677
I9
sS'never '
p678
I2
sS'impossible '
p679
I1
sS'oh '
p680
I1
sS'been '
p681
I1
sS'practically '
p682
I1
sS'less '
p683
I1
sS'sticks '
p684
I1
sS'out '
p685
I1
sS'not '
p686
I35
sS'guessed '
p687
I1
sS'lot '
p688
I1
sS't '
p689
I2
stp690
a((lp691
S'selbstzweifels'
p692
aS'Selbstzweifels'
p693
a(dp694
S'doubt '
p695
I2
stp696
a((lp697
S'gezweifelt'
p698
aS'Gezweifelt'
p699
a(dp700
S'doubt '
p701
I2
sS'. '
p702
I1
sS'gloria '
p703
I1
sS'resourceful '
p704
I1
sS'questioned '
p705
I1
sS'doubting '
p706
I3
sS'doubted '
p707
I10
stp708
a((lp709
S'zweifels'
p710
aS'Zweifels'
p711
a(dp712
S'doubt '
p713
I2
stp714
a((lp715
S'bedenken'
p716
aS'Bedenken'
p717
a(dp718
S'doubt '
p719
I2
sS'hesitations '
p720
I1
sS'afraid '
p721
I2
sS'objection '
p722
I2
sS'thought '
p723
I1
sS'considering '
p724
I1
sS'worried '
p725
I2
sS'drive '
p726
I1
sS'hesitation '
p727
I2
sS'urge '
p728
I1
sS'thoughts '
p729
I2
sS'remember '
p730
I4
sS'mind '
p731
I1
sS'reconsider '
p732
I1
sS'think '
p733
I4
sS'consider '
p734
I6
sS'concerns '
p735
I37
sS'meeting '
p736
I1
sS'sirs '
p737
I1
sS'cover '
p738
I1
sS'concern '
p739
I11
sS'reservations '
p740
I2
sS'qualms '
p741
I2
sS'remembered '
p742
I1
sS'forget '
p743
I1
sS'simultaneously '
p744
I1
sS'disagreements '
p745
I1
sS'bear '
p746
I1
stp747
a((lp748
S'glaub'
p749
aS'Glaub'
p750
a(dp751
S'feel '
p752
I2
sS'dealing '
p753
I1
sS'gotta '
p754
I1
sS'doubt '
p755
I2
sS'know '
p756
I1
sS'believing '
p757
I1
sS'faith '
p758
I1
sS'thought '
p759
I1
sS'thinkhe '
p760
I1
sS'reckon '
p761
I2
sS"'ll "
p762
I1
sS'guess '
p763
I20
sS'mean '
p764
I1
sS'damned '
p765
I1
sS'beast '
p766
I1
sS'flipo '
p767
I1
sS'believer '
p768
I1
sS'imperial '
p769
I1
sS'god '
p770
I3
sS'nah '
p771
I1
sS'seems '
p772
I1
sS'donatelli '
p773
I1
sS'course '
p774
I1
sS'sopping '
p775
I1
sS'possible '
p776
I1
sS'suppose '
p777
I5
sS'do '
p778
I2
sS"'m "
p779
I7
sS'really '
p780
I2
sS'waeamudomosmannajl '
p781
I1
sS'glaub '
p782
I1
sS'sure '
p783
I1
sS'understand '
p784
I1
sS'cadet '
p785
I1
sS'parmesan '
p786
I1
sS'looks '
p787
I1
sS'gosh '
p788
I1
sS"'mon "
p789
I1
sS'ca '
p790
I1
sS'believe '
p791
I260
sS'so '
p792
I2
sS'promise '
p793
I3
sS'can '
p794
I8
sS'keeping '
p795
I1
sS'listen '
p796
I2
sS'might '
p797
I5
sS'think '
p798
I210
sS'you '
p799
I3
sS'ereer '
p800
I1
sS'don '
p801
I52
sS'hear '
p802
I1
sS'imagine '
p803
I1
sS'frisbee '
p804
I1
sS'ithink '
p805
I1
sS'basket '
p806
I1
sS'** '
p807
I1
sS'let '
p808
I3
sS'maybe '
p809
I1
sS'paid '
p810
I1
sS'buy '
p811
I2
sS'- '
p812
I1
sS'may '
p813
I1
sS'readlng '
p814
I1
sS'beleive '
p815
I1
sS'belive '
p816
I1
sS'plaza '
p817
I1
sS'assume '
p818
I5
sS'won '
p819
I1
sS'shee '
p820
I1
sS'bet '
p821
I3
sS'he '
p822
I1
sS'telling '
p823
I1
sS'take '
p824
I1
sS'way '
p825
I2
sS'trust '
p826
I68
sS'doggie '
p827
I1
stp828
a((lp829
S'zweifeisohne'
p830
aS'Zweifeisohne'
p831
a(dp832
tp833
a((lp834
S'zweifelsfall'
p835
aS'Zweifelsfall'
p836
a(dp837
S'doubt '
p838
I2
stp839
a((lp840
S'denke'
p841
aS'Denke'
p842
a(dp843
S'feel '
p844
I46
sS'may '
p845
I1
sS'am '
p846
I2
sS'the '
p847
I1
sS'mean '
p848
I17
sS'generally '
p849
I1
sS'believeit '
p850
I1
sS'mean, '
p851
I2
sS'cusp '
p852
I1
sS'died '
p853
I1
sS'really '
p854
I2
sS'financial '
p855
I1
sS'cajun '
p856
I1
sS'knowing '
p857
I1
sS'\\u201c '
p858
I1
sS'thinking '
p859
I311
sS'mystic '
p860
I1
sS'issue '
p861
I1
sS'it '
p862
I1
sS'hung '
p863
I2
sS'opinion '
p864
I6
sS'liz '
p865
I1
sS'imagine '
p866
I9
sS'expect '
p867
I6
sS'begun '
p868
I1
sS"'ve "
p869
I3
sS'guys '
p870
I1
sS'swelling '
p871
I1
sS'remember, '
p872
I1
sS'thinkin '
p873
I4
sS'cerdo '
p874
I1
sS'by '
p875
I1
sS'likes '
p876
I1
sS'bye '
p877
I1
sS'bites '
p878
I1
sS"'ll "
p879
I7
sS'rebirth '
p880
I1
sS'should '
p881
I1
sS'seems '
p882
I4
sS'dug '
p883
I1
sS'just '
p884
I4
sS'healthy '
p885
I1
sS'figure '
p886
I18
sS'find '
p887
I4
sS'make '
p888
I1
sS'wouldn '
p889
I1
sS'thinks '
p890
I3
sS'understood '
p891
I1
sS'is '
p892
I1
sS'mind '
p893
I11
sS'cocking '
p894
I1
sS'thinkit '
p895
I1
sS'think '
p896
I4465
sS'reckon '
p897
I12
sS'say '
p898
I7
sS'sea '
p899
I1
sS'maybe '
p900
I7
sS'tip '
p901
I1
sS'yep '
p902
I1
sS'go '
p903
I1
sS'suspect '
p904
I2
sS'plus '
p905
I1
sS'draw '
p906
I1
sS'trust '
p907
I4
sS'nobody '
p908
I1
sS'doubt '
p909
I2
sS'felt '
p910
I1
sS'whole '
p911
I1
sS'guess '
p912
I406
sS'guessyou '
p913
I1
sS'know '
p914
I8
sS'always '
p915
I3
sS'thoughts '
p916
I2
sS'remember '
p917
I19
sS'sure '
p918
I3
sS'suppose '
p919
I42
sS'laughs '
p920
I1
sS'believe '
p921
I41
sS'so '
p922
I5
sS'jay '
p923
I1
sS'on '
p924
I1
sS'creed '
p925
I1
sS'consider '
p926
I1
sS'land '
p927
I1
sS'don '
p928
I37
sS'gasping '
p929
I1
sS'feeling '
p930
I1
sS"'d "
p931
I5
sS'think, '
p932
I4
sS'assume '
p933
I1
sS'bet '
p934
I6
sS'take '
p935
I2
sS'to '
p936
I1
sS'jaksanko '
p937
I1
sS'figured '
p938
I4
sS'thought '
p939
I33
sS'said '
p940
I1
sS'forgiving '
p941
I1
sS'donaghy '
p942
I1
sS'words '
p943
I1
sS'point '
p944
I1
sS'wish '
p945
I1
sS'though '
p946
I4
sS'do '
p947
I7
sS"'m "
p948
I30
sS'dad '
p949
I1
sS'estates '
p950
I1
sS'hopefully '
p951
I1
sS'future '
p952
I1
sS'gray '
p953
I1
sS'thinkwe '
p954
I1
sS'can '
p955
I3
sS'buna '
p956
I1
sS'whoa '
p957
I1
sS'awesome '
p958
I1
sS'thnk '
p959
I1
sS'see '
p960
I2
sS'shared '
p961
I1
sS'hmm '
p962
I1
sS'beg '
p963
I2
sS'guessing '
p964
I4
sS'si '
p965
I1
sS'reminds '
p966
I1
stp967
a((lp968
S'wohl'
p969
aS'Wohl'
p970
a(dp971
S'one '
p972
I1
sS'going '
p973
I1
sS'may '
p974
I11
sS'thusly '
p975
I1
sS'what '
p976
I1
sS'would '
p977
I9
sS'messed '
p978
I1
sS'mean '
p979
I5
sS'looks '
p980
I8
sS'welfare '
p981
I4
sS'making '
p982
I1
sS'better '
p983
I3
sS'course '
p984
I1
sS'did '
p985
I1
sS'health '
p986
I1
sS'then '
p987
I1
sS'wonder '
p988
I14
sS'up '
p989
I2
sS'afraid '
p990
I4
sS'isn '
p991
I1
sS'benefit '
p992
I3
sS'neccesary '
p993
I1
sS'it '
p994
I3
sS'about '
p995
I2
sS'sorry '
p996
I1
sS'expect '
p997
I3
sS'least '
p998
I1
sS'apparently '
p999
I4
sS'talking '
p1000
I1
sS'all '
p1001
I3
sS'fine '
p1002
I2
sS'have '
p1003
I20
sS"'re "
p1004
I5
sS'probably '
p1005
I183
sS'seem '
p1006
I8
sS'best '
p1007
I2
sS'else '
p1008
I1
sS'very '
p1009
I1
sS'getting '
p1010
I1
sS'got '
p1011
I3
sS'salud '
p1012
I1
sS'bye '
p1013
I6
sS'leaving '
p1014
I1
sS'likely '
p1015
I2
sS'seems '
p1016
I13
sS'sake '
p1017
I6
sS'just '
p1018
I15
sS'healthy '
p1019
I1
sS'fancy '
p1020
I2
sS'that '
p1021
I3
sS'rather '
p1022
I1
sS'yes '
p1023
I2
sS'good '
p1024
I39
sS'safety '
p1025
I1
sS'wouldn '
p1026
I1
sS'pretty '
p1027
I3
sS'is '
p1028
I4
sS'mind '
p1029
I1
sS'uncomfortable '
p1030
I3
sS'trait '
p1031
I1
sS'bter '
p1032
I1
sS'drink '
p1033
I1
sS'might '
p1034
I16
sS'think '
p1035
I156
sS'maybe '
p1036
I4
sS'perhaps '
p1037
I4
sS'enjoy '
p1038
I3
sS'out '
p1039
I3
sS"'s "
p1040
I2
sS'must '
p1041
I97
sS'quite '
p1042
I2
sS'uvula '
p1043
I1
sS'doubt '
p1044
I2
sS'too '
p1045
I1
sS'really '
p1046
I4
sS'for '
p1047
I1
sS'guess '
p1048
I168
sS'zadrovya '
p1049
I1
sS'know '
p1050
I3
sS'i '
p1051
I1
sS'obviously '
p1052
I9
sS'richie '
p1053
I1
sS'a '
p1054
I1
sS'cheers '
p1055
I19
sS'be '
p1056
I68
sS'now '
p1057
I2
sS'dreams '
p1058
I1
sS'suppose '
p1059
I33
sS'right '
p1060
I17
sS'believe '
p1061
I1
sS'much '
p1062
I2
sS'sir '
p1063
I2
sS'like '
p1064
I15
sS'don '
p1065
I3
sS'certainhy '
p1066
I1
sS'was '
p1067
I1
sS'feeling '
p1068
I1
sS'means '
p1069
I2
sS'possibly '
p1070
I5
sS'are '
p1071
I1
sS'opportunity '
p1072
I1
sS'certainly '
p1073
I3
sS'greater '
p1074
I8
sS'bit '
p1075
I2
sS'he '
p1076
I1
sS'take '
p1077
I2
sS'will '
p1078
I1
sS'to '
p1079
I10
sS'wonders '
p1080
I1
sS'gonna '
p1081
I6
sS'huh '
p1082
I2
sS'bet '
p1083
I5
sS'precisely '
p1084
I1
sS'well '
p1085
I50
sS'supposed '
p1086
I1
sS'comfortable '
p1087
I46
sS', '
p1088
I1
sS'do '
p1089
I8
sS"'m "
p1090
I1
sS'sick '
p1091
I1
sS"'t "
p1092
I12
sS'business '
p1093
I1
sS'bajillionaire '
p1094
I1
sS'looking '
p1095
I1
sS'nice '
p1096
I1
sS'well- '
p1097
I2
sS'long '
p1098
I2
sS'shuffle '
p1099
I1
sS'knows '
p1100
I1
sS'not '
p1101
I1
sS'bottoms- '
p1102
I1
stp1103
a((lp1104
S'glauben'
p1105
aS'Glauben'
p1106
a(dp1107
S'feel '
p1108
I12
sS'delusions '
p1109
I1
sS'word '
p1110
I10
sS'would '
p1111
I1
sS'imagine '
p1112
I7
sS'mean '
p1113
I1
sS'arguments '
p1114
I1
sS'dickhead '
p1115
I1
sS'important '
p1116
I1
sS'did '
p1117
I1
sS'really '
p1118
I3
sS'true '
p1119
I3
sS'buying '
p1120
I3
sS'seen '
p1121
I1
sS'if '
p1122
I2
sS'dead '
p1123
I1
sS'mex '
p1124
I2
sS'religion '
p1125
I4
sS'thinking '
p1126
I20
sS'spiritual '
p1127
I1
sS'erees '
p1128
I1
sS'god '
p1129
I1
sS'expect '
p1130
I2
sS'- '
p1131
I1
sS'uskoa '
p1132
I1
sS"'re "
p1133
I2
sS'believed '
p1134
I17
sS'seem '
p1135
I1
sS'assure '
p1136
I3
sS'believeyou '
p1137
I3
sS'yarmouth '
p1138
I1
sS'crazy '
p1139
I3
sS'thinks '
p1140
I4
sS'tom '
p1141
I1
sS'feelings- '
p1142
I1
sS'beliefs '
p1143
I11
sS'unbelievable '
p1144
I5
sS'think '
p1145
I584
sS'bucking '
p1146
I1
sS'tell '
p1147
I2
sS'say '
p1148
I1
sS'dogma '
p1149
I1
sS'shot '
p1150
I1
sS'beleve '
p1151
I1
sS'suspect '
p1152
I1
sS'telling '
p1153
I4
sS'spirit '
p1154
I1
sS'\\u266a '
p1155
I1
sS'trust '
p1156
I49
sS'doubt '
p1157
I2
sS'thinkyou '
p1158
I1
sS'makes '
p1159
I6
sS'guess '
p1160
I3
sS'convinced '
p1161
I1
sS'know '
p1162
I1
sS'nah '
p1163
I2
sS'trusted '
p1164
I2
sS'murdered '
p1165
I1
sS'senses '
p1166
I1
sS'belief '
p1167
I16
sS'sure '
p1168
I2
sS'suppose '
p1169
I1
sS'believe '
p1170
I1765
sS'so '
p1171
I1
sS'sir '
p1172
I1
sS'crap '
p1173
I1
sS'annoy '
p1174
I1
sS'creed '
p1175
I1
sS'million '
p1176
I1
sS'you '
p1177
I1
sS'don '
p1178
I7
sS'uncircumcised '
p1179
I1
sS'what '
p1180
I1
sS'believehe '
p1181
I1
sS'reason '
p1182
I1
sS'this '
p1183
I1
sS'jin '
p1184
I1
sS'are '
p1185
I3
sS'cupid '
p1186
I1
sS'assume '
p1187
I2
sS'take '
p1188
I2
sS'will '
p1189
I1
sS'believe, '
p1190
I1
sS'brother '
p1191
I1
sS'chuckles '
p1192
I1
sS'faith '
p1193
I104
sS'thought '
p1194
I3
sS'dwight '
p1195
I1
sS'believewhat '
p1196
I1
sS'fall '
p1197
I1
sS'from '
p1198
I2
sS'blown '
p1199
I1
sS'german '
p1200
I1
sS'do '
p1201
I208
sS'bet, '
p1202
I1
sS'credit '
p1203
I3
sS'belive '
p1204
I3
sS'can '
p1205
I1
sS'listen '
p1206
I1
sS'hello '
p1207
I1
sS'i '
p1208
I4
sS'suspected '
p1209
I3
sS'believes '
p1210
I7
sS'believing '
p1211
I32
sS'buy '
p1212
I1
sS'door '
p1213
I1
sS'basing '
p1214
I1
sS'killed '
p1215
I1
sS'hold '
p1216
I1
stp1217
a((lp1218
S'anzweifeln'
p1219
aS'Anzweifeln'
p1220
a(dp1221
S'follow- '
p1222
I1
sS'guessing '
p1223
I2
sS'doubt '
p1224
I2
sS'challenges '
p1225
I1
stp1226
a((lp1227
S'irgendwas'
p1228
aS'Irgendwas'
p1229
a(dp1230
S'going '
p1231
I1
sS'anybody '
p1232
I1
sS'anythingright '
p1233
I1
sS'knew '
p1234
I1
sS'somewhere '
p1235
I1
sS'predicaments '
p1236
I3
sS'ok '
p1237
I1
sS'someone '
p1238
I1
sS'know '
p1239
I1
sS'kind '
p1240
I1
sS'anywhere '
p1241
I3
sS'doubt '
p1242
I2
sS'second '
p1243
I1
sS'b. '
p1244
I1
sS'word '
p1245
I2
sS'at '
p1246
I2
sS'. '
p1247
I1
sS'there '
p1248
I8
sS'find '
p1249
I1
sS'yes '
p1250
I1
sS'cult '
p1251
I1
sS'strange '
p1252
I1
sS'somehow '
p1253
I3
sS'pretty '
p1254
I1
sS'whatever '
p1255
I4
sS'some '
p1256
I5
sS'nothing '
p1257
I9
sS'stuff '
p1258
I3
sS'like '
p1259
I2
sS'fossil '
p1260
I1
sS'it '
p1261
I1
sS'somethin '
p1262
I3
sS'mirror '
p1263
I1
sS'alcohol '
p1264
I1
sS'what '
p1265
I3
sS'i '
p1266
I4
sS'everything '
p1267
I3
sS'tab '
p1268
I1
sS'anything '
p1269
I786
sS'problem '
p1270
I1
sS'dale '
p1271
I1
sS'things '
p1272
I12
sS'need '
p1273
I1
sS'any '
p1274
I69
sS'nice '
p1275
I1
sS'thing '
p1276
I1
sS'peter '
p1277
I1
sS'vacate '
p1278
I1
sS'something '
p1279
I836
stp1280
a((lp1281
S'eher'
p1282
aS'Eher'
p1283
a(dp1284
S'record '
p1285
I1
sS'slughorn '
p1286
I1
sS'doubt '
p1287
I1
sS'better '
p1288
I3
sS'really '
p1289
I3
sS'considerably '
p1290
I1
sS'no '
p1291
I4
sS'until '
p1292
I1
sS'guess '
p1293
I2
sS'fun '
p1294
I2
sS'kind '
p1295
I6
sS'duckie '
p1296
I1
sS'early '
p1297
I1
sS'telemarketers '
p1298
I1
sS'likely '
p1299
I13
sS'actually '
p1300
I6
sS'quicker '
p1301
I3
sS'like '
p1302
I11
sS'hunt '
p1303
I1
sS'appeared '
p1304
I1
sS'kicking '
p1305
I1
sS'before '
p1306
I11
sS'rather '
p1307
I61
sS'make '
p1308
I1
sS'beenmore '
p1309
I1
sS'prefer '
p1310
I1
sS'is '
p1311
I1
sS'try '
p1312
I1
sS'much '
p1313
I1
sS'so '
p1314
I2
sS'playing '
p1315
I1
sS'first '
p1316
I2
sS'earlier '
p1317
I8
sS'think '
p1318
I2
sS'more '
p1319
I263
sS'it '
p1320
I3
sS'i '
p1321
I4
sS'faster '
p1322
I1
sS'bollocks '
p1323
I1
sS'thumbs '
p1324
I1
sS'neither '
p1325
I1
sS'porch '
p1326
I1
sS'maybe '
p1327
I3
sS'pursuits '
p1328
I2
sS'sort '
p1329
I2
sS'delivering '
p1330
I2
sS'sooner '
p1331
I48
sS'as '
p1332
I1
sS'not '
p1333
I3
sS'quite '
p1334
I1
sS'probably '
p1335
I6
sS'way '
p1336
I2
sS'closer '
p1337
I6
stp1338
a((lp1339
S'wohi'
p1340
aS'Wohi'
p1341
a(dp1342
S'sake '
p1343
I1
stp1344
a((lp1345
S'merlin'
p1346
aS'Merlin'
p1347
a(dp1348
S'merlin '
p1349
I184
sS'doubt '
p1350
I1
sS"'merlin "
p1351
I1
sS'fit '
p1352
I1
sS'wit '
p1353
I1
stp1354
a((lp1355
S'unzweifelhaft'
p1356
aS'Unzweifelhaft'
p1357
a(dp1358
S'undoubtedly '
p1359
I3
sS'doubt '
p1360
I1
stp1361
a((lp1362
S'zweifele'
p1363
aS'Zweifele'
p1364
a(dp1365
S'doubt '
p1366
I1
stp1367
a((lp1368
S'zwefellos'
p1369
aS'Zwefellos'
p1370
a(dp1371
S'doubt '
p1372
I1
stp1373
a((lp1374
S'hi'
p1375
aS'Hi'
p1376
a(dp1377
S'sneezing '
p1378
I1
sS'going '
p1379
I1
sS'dense '
p1380
I2
sS'uh '
p1381
I3
sS'claire '
p1382
I1
sS'no '
p1383
I2
sS'project '
p1384
I1
sS'??? '
p1385
I1
sS'hi '
p1386
I2023
sS'frankie '
p1387
I1
sS'please '
p1388
I1
sS'swe- '
p1389
I1
sS'vagina '
p1390
I1
sS'caucasians '
p1391
I1
sS'then '
p1392
I1
sS'up '
p1393
I1
sS'masood '
p1394
I1
sS'leonard '
p1395
I1
sS'hi, '
p1396
I61
sS'hail '
p1397
I1
sS'susie '
p1398
I1
sS'haggis '
p1399
I1
sS'trager '
p1400
I1
sS'thank '
p1401
I4
sS'everyone '
p1402
I2
sS'plney '
p1403
I1
sS'grandma '
p1404
I1
sS'programming '
p1405
I1
sS'god '
p1406
I5
sS'mm- '
p1407
I1
sS'idiot '
p1408
I1
sS'attacker '
p1409
I2
sS'spit '
p1410
I1
sS'did '
p1411
I1
sS'- '
p1412
I4
sS'yesterday '
p1413
I1
sS'howdy '
p1414
I3
sS'fine '
p1415
I2
sS'say '
p1416
I2
sS'pants '
p1417
I1
sS'handcuffs '
p1418
I1
sS'affront '
p1419
I1
sS'deb '
p1420
I1
sS'jane '
p1421
I1
sS'wanting '
p1422
I1
sS'com '
p1423
I1
sS'sighs '
p1424
I1
sS'h '
p1425
I1
sS'seed '
p1426
I1
sS'inferiority '
p1427
I1
sS'because '
p1428
I1
sS'hungry '
p1429
I2
sS'come '
p1430
I2
sS'throw '
p1431
I2
sS'yes '
p1432
I3
sS'good '
p1433
I1
sS'date '
p1434
I1
sS'dr '
p1435
I1
sS'is '
p1436
I1
sS'day '
p1437
I1
sS'zoey '
p1438
I1
sS'afterwards '
p1439
I1
sS'skyler '
p1440
I1
sS'universe '
p1441
I1
sS"'nah "
p1442
I1
sS'pseudo- '
p1443
I1
sS'heaping '
p1444
I1
sS'supersolids '
p1445
I1
sS'hey, '
p1446
I1
sS'wedding '
p1447
I1
sS'seriously '
p1448
I1
sS'skin '
p1449
I1
sS'precious '
p1450
I1
sS'\\u0434\\u0435\\u043b\\u0430\\u0435\\u0448\\u044c '
p1451
I1
sS'well '
p1452
I1
sS'kenneth '
p1453
I1
sS'hiding '
p1454
I1
sS'sprinting '
p1455
I1
sS'gag '
p1456
I2
sS'\\u266a '
p1457
I2
sS'lot '
p1458
I1
sS'feelings '
p1459
I1
sS'mm '
p1460
I1
sS'but '
p1461
I1
sS'doubt '
p1462
I1
sS'knew '
p1463
I1
sS'decide '
p1464
I1
sS'deluxe '
p1465
I1
sS'praising '
p1466
I1
sS'axl '
p1467
I1
sS'topic '
p1468
I1
sS'parties '
p1469
I2
sS'bring '
p1470
I2
sS'sheet '
p1471
I1
sS'i- '
p1472
I1
sS'there '
p1473
I2
sS'dress '
p1474
I1
sS'hey '
p1475
I114
sS'power '
p1476
I1
sS'dumb '
p1477
I1
sS'right '
p1478
I2
sS'fu '
p1479
I1
sS'flowers '
p1480
I1
sS'why '
p1481
I2
sS'changer '
p1482
I1
sS'sound '
p1483
I1
sS'hemingway '
p1484
I1
sS'steven '
p1485
I1
sS'racquel '
p1486
I1
sS'what '
p1487
I4
sS'hiya '
p1488
I7
sS'okay '
p1489
I7
sS'are '
p1490
I2
sS'chase '
p1491
I1
sS'later '
p1492
I1
sS'hall '
p1493
I1
sS'[ '
p1494
I1
sS'wait '
p1495
I1
sS'asking '
p1496
I1
sS'tracy '
p1497
I2
sS'reynolds '
p1498
I1
sS'favorite '
p1499
I1
sS'trek '
p1500
I1
sS'winston '
p1501
I1
sS'where '
p1502
I1
sS'everybody '
p1503
I2
sS'alright '
p1504
I2
sS'dwight '
p1505
I1
sS"' "
p1506
I1
sS'well, '
p1507
I2
sS'trippin '
p1508
I1
sS"'hi "
p1509
I2
sS'complexes '
p1510
I1
sS'look '
p1511
I1
sS'biology '
p1512
I1
sS"'m "
p1513
I1
sS'dad '
p1514
I1
sS'away '
p1515
I1
sS'excellent '
p1516
I1
sS'how '
p1517
I5
sS'kind '
p1518
I1
sS'allan '
p1519
I1
sS'annie '
p1520
I1
sS'does '
p1521
I1
sS'food '
p1522
I1
sS'shower '
p1523
I1
sS'stove '
p1524
I1
sS'oh '
p1525
I5
sS'hello '
p1526
I18
sS'hospital '
p1527
I1
sS'nice '
p1528
I5
sS'i '
p1529
I3
sS'neil '
p1530
I1
sS'salut '
p1531
I1
sS'yo '
p1532
I2
sS'speaker '
p1533
I1
sS'insufficiency '
p1534
I1
sS'not '
p1535
I1
sS'stacy '
p1536
I1
sS'rebecca '
p1537
I1
sS'still '
p1538
I1
sS'yeah '
p1539
I9
stp1540
a((lp1541
S'doubt'
p1542
aS'Doubt'
p1543
a(dp1544
S'doubt '
p1545
I1
stp1546
a((lp1547
S'bedauert'
p1548
aS'Bedauert'
p1549
a(dp1550
S'doubt '
p1551
I1
sS'regrets '
p1552
I4
sS'regret '
p1553
I2
sS'apologizes '
p1554
I1
sS'grow '
p1555
I1
sS'sorry '
p1556
I1
sS'regretted '
p1557
I3
stp1558
a((lp1559
S'mi\xc3\x9ftrauen'
p1560
aS'Mi\xc3\x9ftrauen'
p1561
a(dp1562
S'doubt '
p1563
I1
stp1564
a((lp1565
S'auto'
p1566
aS'Auto'
p1567
a(dp1568
S'house '
p1569
I1
sS'doubt '
p1570
I1
sS'better '
p1571
I1
sS'sarah '
p1572
I1
sS'her '
p1573
I1
sS'auto '
p1574
I3
sS'van '
p1575
I2
sS'car, '
p1576
I14
sS'ride, '
p1577
I1
sS'automobile '
p1578
I7
sS'jack '
p1579
I1
sS'car '
p1580
I2366
sS'drive '
p1581
I2
sS'chopper '
p1582
I1
sS'drop '
p1583
I1
sS'flak '
p1584
I1
sS'there '
p1585
I1
sS'cars '
p1586
I4
sS'truck '
p1587
I11
sS'adam '
p1588
I1
sS'vehicle '
p1589
I28
sS'time '
p1590
I3
sS'calmed '
p1591
I1
sS'carjacking '
p1592
I2
sS'driving '
p1593
I5
sS'jealousy '
p1594
I1
sS'serge '
p1595
I1
sS'cab '
p1596
I2
sS'eyes '
p1597
I2
sS'machine '
p1598
I2
sS'it '
p1599
I1
sS'hands '
p1600
I1
sS'talk '
p1601
I1
sS'wheels '
p1602
I2
sS'canada '
p1603
I1
sS'sorry '
p1604
I1
sS'car- '
p1605
I2
sS'? '
p1606
I1
sS'anything '
p1607
I1
sS'get '
p1608
I1
sS'uh- '
p1609
I1
sS'go '
p1610
I1
sS'check '
p1611
I1
sS'ride '
p1612
I5
sS'carto '
p1613
I1
sS'hank '
p1614
I1
sS'drove '
p1615
I1
sS'back '
p1616
I1
sS'fun '
p1617
I1
stp1618
a((lp1619
S'dagegen'
p1620
aS'Dagegen'
p1621
a(dp1622
S'object '
p1623
I2
sS'disagree '
p1624
I1
sS'doubt '
p1625
I1
sS'arguing '
p1626
I1
sS'so '
p1627
I3
sS'for '
p1628
I1
sS'objection '
p1629
I1
sS'job '
p1630
I1
sS'control '
p1631
I1
sS'broadcasting '
p1632
I1
sS'jack '
p1633
I1
sS'incapable '
p1634
I1
sS'hand '
p1635
I7
sS'problem '
p1636
I2
sS"'t "
p1637
I4
sS'peeing '
p1638
I1
sS'it, '
p1639
I1
sS'do '
p1640
I1
sS'gonna '
p1641
I2
sS'there '
p1642
I2
sS'with '
p1643
I2
sS'action '
p1644
I1
sS'sticking '
p1645
I1
sS'few '
p1646
I1
sS'liked '
p1647
I1
sS'right '
p1648
I1
sS'treat '
p1649
I2
sS'benjamln '
p1650
I1
sS'nays '
p1651
I1
sS'mind '
p1652
I121
sS'opposed '
p1653
I3
sS'mouthful '
p1654
I1
sS'rehearsing '
p1655
I1
sS'compete '
p1656
I1
sS'yeahis '
p1657
I1
sS'agree '
p1658
I1
sS'objected '
p1659
I1
sS'counting '
p1660
I1
sS'frown '
p1661
I1
sS'against '
p1662
I48
sS'it '
p1663
I6
sS'approve '
p1664
I1
sS'hates '
p1665
I1
sS'fight '
p1666
I3
sS'???????????? '
p1667
I1
sS'objections '
p1668
I3
sS'contrary '
p1669
I2
sS'okay '
p1670
I2
sS'cryo '
p1671
I1
sS'wrong '
p1672
I1
sS'resist '
p1673
I3
sS'help '
p1674
I7
sS'argument '
p1675
I1
sS'argued '
p1676
I1
sS'oppose '
p1677
I2
sS'close '
p1678
I2
sS'about '
p1679
I76
sS'care '
p1680
I3
sS'not '
p1681
I9
sS'however '
p1682
I1
sS'stop '
p1683
I4
stp1684
a((lp1685
S'kann'
p1686
aS'Kann'
p1687
a(dp1688
S'one '
p1689
I1
sS'feel '
p1690
I1
sS'may '
p1691
I242
sS'only '
p1692
I1
sS'am '
p1693
I40
sS'no '
p1694
I6
sS'nope '
p1695
I1
sS'would '
p1696
I40
sS'hi '
p1697
I1
sS'ok '
p1698
I1
sS'mean '
p1699
I1
sS'lives '
p1700
I1
sS'jeez '
p1701
I1
sS'cannot '
p1702
I474
sS'soldiers '
p1703
I1
sS'course '
p1704
I1
sS'did '
p1705
I19
sS'indisposed '
p1706
I1
sS'something '
p1707
I1
sS'then '
p1708
I4
sS'gotta '
p1709
I12
sS'really '
p1710
I1
sS'wasrt '
p1711
I1
sS'ready '
p1712
I1
sS'possibhe '
p1713
I1
sS"'em "
p1714
I1
sS'if '
p1715
I18
sS'somehow '
p1716
I1
sS'turn '
p1717
I1
sS'arrow '
p1718
I1
sS'isn '
p1719
I3
sS': '
p1720
I1
sS'... '
p1721
I1
sS'it '
p1722
I4
sS'speaks '
p1723
I1
sS'hmm '
p1724
I1
sS'must '
p1725
I5
sS'just, '
p1726
I1
sS'( '
p1727
I1
sS'young '
p1728
I2
sS"'ve "
p1729
I9
sS'let '
p1730
I28
sS'we '
p1731
I1
sS'puo '
p1732
I1
sS'- '
p1733
I6
sS'help '
p1734
I1
sS'cant '
p1735
I18
sS'best '
p1736
I1
sS'incredible '
p1737
I1
sS'horny '
p1738
I1
sS'keeps '
p1739
I1
sS'want '
p1740
I3
sS"'re "
p1741
I1
sS'n '
p1742
I2
sS'oh, '
p1743
I1
sS'any '
p1744
I1
sS'else '
p1745
I1
sS'got '
p1746
I43
sS'singer '
p1747
I1
sS'has '
p1748
I23
sS'absolutely '
p1749
I2
sS"'ll "
p1750
I114
sS'needs '
p1751
I1
sS'admirer '
p1752
I1
sS'should '
p1753
I12
sS'seems '
p1754
I1
sS'or '
p1755
I1
sS'just '
p1756
I6
sS'at '
p1757
I1
sS'kann '
p1758
I1
sS'could '
p1759
I884
sS'come '
p1760
I7
sS'find '
p1761
I11
sS'make '
p1762
I5
sS'available '
p1763
I1
sS'wouldn '
p1764
I14
sS'goes '
p1765
I2
sS'pretty '
p1766
I1
sS'ain '
p1767
I1
sS'is '
p1768
I193
sS'mind '
p1769
I13
sS'hooligans '
p1770
I1
sS'guess '
p1771
I7
sS'after '
p1772
I1
sS'might '
p1773
I46
sS'can, '
p1774
I2
sS'surely '
p1775
I2
sS'tell '
p1776
I1
sS'gets '
p1777
I16
sS'able '
p1778
I61
sS'betsey '
p1779
I1
sS'maybe '
p1780
I17
sS'free '
p1781
I1
sS'sort '
p1782
I1
sS'things '
p1783
I2
sS'least '
p1784
I1
sS'go '
p1785
I1
sS'gwen '
p1786
I1
sS"'s "
p1787
I306
sS'dunham '
p1788
I1
sS'telling '
p1789
I1
sS'way '
p1790
I11
sS'ju '
p1791
I1
sS'but '
p1792
I1
sS'doubt '
p1793
I1
sS'too '
p1794
I1
sS'speaking '
p1795
I2
sS'reverse '
p1796
I1
sS'with '
p1797
I3
sS'van '
p1798
I1
sS'have '
p1799
I45
sS'fun '
p1800
I1
sS'know '
p1801
I16
sS'own '
p1802
I1
sS'm '
p1803
I1
sS'. '
p1804
I1
sS'sullivan '
p1805
I1
sS'there '
p1806
I1
sS'hey '
p1807
I3
sS'sure '
p1808
I3
sS'suppose '
p1809
I1
sS'right '
p1810
I2
sS'won '
p1811
I18
sS'enough '
p1812
I2
sS'why '
p1813
I1
sS'much '
p1814
I1
sS'shall '
p1815
I2
sS'lie '
p1816
I1
sS'her '
p1817
I1
sS'like '
p1818
I2
sS'doesn '
p1819
I10
sS'hard '
p1820
I1
sS'count '
p1821
I1
sS'c '
p1822
I1
sS'couldn '
p1823
I158
sS'you '
p1824
I2
sS'shooting '
p1825
I1
sS'don '
p1826
I111
sS'fleld '
p1827
I1
sS'wham- '
p1828
I1
sS'what '
p1829
I2
sS'was '
p1830
I3
sS'rhinoceroses '
p1831
I1
sS'manner '
p1832
I1
sS'learned '
p1833
I1
sS'possibly '
p1834
I1
sS'okay '
p1835
I1
sS'are '
p1836
I15
sS'give '
p1837
I3
sS'and '
p1838
I1
sS'betcha '
p1839
I1
sS'get '
p1840
I19
sS'laughter '
p1841
I1
sS'take '
p1842
I2
sS'unable '
p1843
I4
sS'will '
p1844
I68
sS'to '
p1845
I13
sS'girl '
p1846
I1
sS'cats '
p1847
I1
sS'so '
p1848
I2
sS'relapse '
p1849
I1
sS'kind '
p1850
I3
sS'harbor '
p1851
I1
sS"'d "
p1852
I15
sS'idf '
p1853
I1
sS'comes '
p1854
I1
sS'bering '
p1855
I1
sS'-- '
p1856
I1
sS'910 '
p1857
I1
sS"'t "
p1858
I1
sS'keep '
p1859
I1
sS'says '
p1860
I1
sS', '
p1861
I25
sS'unh- '
p1862
I1
sS'do '
p1863
I140
sS"'m "
p1864
I192
sS'happens '
p1865
I1
sS'how '
p1866
I9
sS'chord '
p1867
I1
sS'damn '
p1868
I1
sS'jesus '
p1869
I1
sS'late '
p1870
I2
sS'themselves '
p1871
I1
sS'sobbing '
p1872
I1
sS'does '
p1873
I81
sS'extra '
p1874
I1
sS'tanya '
p1875
I1
sS'can '
p1876
I17652
sS'oh '
p1877
I5
sS'hello '
p1878
I1
sS'impossible '
p1879
I1
sS'hear '
p1880
I1
sS'see '
p1881
I2
sS'i '
p1882
I5
sS'in '
p1883
I3
sS'fucks '
p1884
I1
sS'? '
p1885
I2
sS'elseam '
p1886
I1
sS'fault '
p1887
I1
sS'can\\u2019 '
p1888
I21
sS'buy '
p1889
I2
sS'knows '
p1890
I5
sS'speak '
p1891
I1
sS'real '
p1892
I1
sS'beg '
p1893
I1
sS'need '
p1894
I11
sS'not '
p1895
I2
sS'thing '
p1896
I1
sS'still '
p1897
I1
sS'yeah '
p1898
I5
stp1899
a((lp1900
S'ob'
p1901
aS'Ob'
p1902
a(dp1903
S'feel '
p1904
I1
sS'may '
p1905
I1
sS'reflex '
p1906
I1
sS'what '
p1907
I9
sS'no '
p1908
I1
sS'would '
p1909
I7
sS'looks '
p1910
I1
sS'moshing '
p1911
I1
sS'course '
p1912
I4
sS'special '
p1913
I1
sS'did '
p1914
I9
sS'wonder '
p1915
I1
sS'how '
p1916
I18
sS'although '
p1917
I1
sS'if '
p1918
I2430
sS'anesthetic '
p1919
I1
sS'am '
p1920
I1
sS'either '
p1921
I1
sS'about '
p1922
I12
sS'betc '
p1923
I1
sS'guarantee '
p1924
I1
sS'had '
p1925
I1
sS'as '
p1926
I1
sS'having '
p1927
I1
sS'should '
p1928
I2
sS'seems '
p1929
I2
sS'or '
p1930
I3
sS'knowif '
p1931
I1
sS'could '
p1932
I4
sS'that '
p1933
I55
sS'yes '
p1934
I2
sS'carry '
p1935
I1
sS'is '
p1936
I14
sS'magazines '
p1937
I1
sS'lf '
p1938
I1
sS'might '
p1939
I3
sS'think '
p1940
I16
sS'say '
p1941
I1
sS'when '
p1942
I14
sS'whether '
p1943
I449
sS'maybe '
p1944
I8
sS'sood '
p1945
I1
sS'check '
p1946
I1
sS'must '
p1947
I1
sS'wha '
p1948
I1
sS'doubt '
p1949
I1
sS'have '
p1950
I4
sS'know '
p1951
I6
sS'tandoori '
p1952
I1
sS'be '
p1953
I1
sS'gay '
p1954
I1
sS'sure '
p1955
I71
sS'right '
p1956
I1
sS'believe '
p1957
I2
sS'why '
p1958
I1
sS'airs '
p1959
I1
sS'being '
p1960
I1
sS'like '
p1961
I70
sS'mislead '
p1962
I1
sS'wondering '
p1963
I1
sS'was '
p1964
I2
sS'knowyou '
p1965
I1
sS'are '
p1966
I9
sS'pretend '
p1967
I4
sS'and '
p1968
I1
sS'ask '
p1969
I3
sS'will '
p1970
I2
sS'experience '
p1971
I1
sS'where '
p1972
I1
sS'f '
p1973
I1
sS'bet '
p1974
I3
sS'problem '
p1975
I1
sS"'t "
p1976
I1
sS'though '
p1977
I15
sS'do '
p1978
I42
sS'honeymoon '
p1979
I1
sS'hell '
p1980
I1
sS'est\xc3\xa1 '
p1981
I1
sS'does '
p1982
I6
sS'can '
p1983
I4
sS'indeed '
p1984
I2
sS'tell '
p1985
I1
sS'radiology '
p1986
I1
sS'see '
p1987
I3
sS'fake '
p1988
I3
sS'need '
p1989
I1
sS'yet '
p1990
I1
sS'jules '
p1991
I1
sS'dinner '
p1992
I1
sS'yeah '
p1993
I1
stp1994
a((lp1995
S'bestimmt'
p1996
aS'Bestimmt'
p1997
a(dp1998
S'definitely '
p1999
I33
sS'certain '
p2000
I5
sS'what '
p2001
I1
sS'no '
p2002
I2
sS'nope '
p2003
I1
sS'would '
p2004
I2
sS'actually '
p2005
I2
sS'course '
p2006
I2
sS'impounded '
p2007
I1
sS'meant '
p2008
I57
sS'really '
p2009
I4
sS'absolutely '
p2010
I3
sS'won '
p2011
I11
sS'swear '
p2012
I1
sS'it '
p2013
I2
sS'jordan '
p2014
I1
sS'today '
p2015
I1
sS'kukaan '
p2016
I1
sS'expect '
p2017
I2
sS'workforce '
p2018
I1
sS'all '
p2019
I2
sS'least '
p2020
I1
sS'probably '
p2021
I70
sS'determined '
p2022
I12
sS'rez '
p2023
I1
sS'intended '
p2024
I4
sS"'ll "
p2025
I7
sS'decided '
p2026
I1
sS'likely '
p2027
I1
sS'yes '
p2028
I1
sS'scooch '
p2029
I1
sS'wouldn '
p2030
I7
sS'is '
p2031
I1
sS'oblige '
p2032
I1
sS'think '
p2033
I4
sS'surely '
p2034
I12
sS'honestly '
p2035
I1
sS'maybe '
p2036
I3
sS'perhaps '
p2037
I1
sS'firm '
p2038
I1
sS'beautiful '
p2039
I1
sS'must '
p2040
I51
sS'hear '
p2041
I2
sS'doubt '
p2042
I1
sS'for '
p2043
I1
sS'chosen '
p2044
I1
sS'blocking '
p2045
I1
sS'be '
p2046
I32
sS'sure '
p2047
I96
sS'destined '
p2048
I15
sS'right '
p2049
I5
sS'determine '
p2050
I1
sS'bound '
p2051
I2
sS'much '
p2052
I1
sS'so '
p2053
I2
sS'like '
p2054
I2
sS'you '
p2055
I3
sS'wondering '
p2056
I1
sS'tough '
p2057
I1
sS'clearly '
p2058
I5
sS'us '
p2059
I1
sS'yeah '
p2060
I2
sS'certainly '
p2061
I36
sS'provides '
p2062
I1
sS'he '
p2063
I2
sS'written '
p2064
I1
sS'will '
p2065
I7
sS'gonna '
p2066
I4
sS'bet '
p2067
I28
sS'well '
p2068
I2
sS'supposed '
p2069
I16
sS"'s "
p2070
I1
sS'do '
p2071
I1
sS'read '
p2072
I1
sS'can '
p2073
I3
sS'near '
p2074
I1
sS'oh '
p2075
I2
sS'agree '
p2076
I1
sS'i '
p2077
I1
sS'been '
p2078
I1
sS'purpose '
p2079
I1
sS'determines '
p2080
I5
sS'governs '
p2081
I1
sS'sire '
p2082
I1
sS'alone '
p2083
I1
sS'not '
p2084
I1
sS'precise '
p2085
I1
sS'something '
p2086
I1
stp2087
a((lp2088
S'zweifelsfrei'
p2089
aS'Zweifelsfrei'
p2090
a(dp2091
S'certain '
p2092
I1
sS'doubt '
p2093
I1
sS'undermine '
p2094
I1
stp2095
a((lp2096
S'symbol'
p2097
aS'Symbol'
p2098
a(dp2099
S'symbol '
p2100
I94
sS'sign '
p2101
I1
sS'stood '
p2102
I6
sS'doubt '
p2103
I1
sS'insignia '
p2104
I1
sS'cipher '
p2105
I2
sS'mark '
p2106
I1
sS'symbolize '
p2107
I1
sS'symbolic '
p2108
I1
stp2109
a((lp2110
S'ted'
p2111
aS'Ted'
p2112
a(dp2113
S'switches '
p2114
I1
sS'came '
p2115
I1
sS'doubt '
p2116
I1
sS'name '
p2117
I1
sS'ted, '
p2118
I3
sS'veronica- '
p2119
I1
sS'ted '
p2120
I230
sS'working '
p2121
I1
sS'oh '
p2122
I2
sS'spreadin '
p2123
I1
sS'shove '
p2124
I1
sS'guilt '
p2125
I1
sS'mumble '
p2126
I1
sS'expertise '
p2127
I1
sS'why '
p2128
I1
sS'top '
p2129
I1
stp2130
a((lp2131
S'gest\xc3\xb6rtes'
p2132
aS'Gest\xc3\xb6rtes'
p2133
a(dp2134
S'troubled '
p2135
I2
sS'doubt '
p2136
I1
sS'disturbed '
p2137
I2
sS'deranged '
p2138
I1
stp2139
a((lp2140
S'mitbekomme'
p2141
aS'Mitbekomme'
p2142
a(dp2143
S'doubt '
p2144
I1
stp2145
a((lp2146
S'geil'
p2147
aS'Geil'
p2148
a(dp2149
S'sex '
p2150
I1
sS'rules '
p2151
I1
sS'sweet '
p2152
I9
sS'best '
p2153
I1
sS'doubt '
p2154
I1
sS'safe '
p2155
I2
sS'hope '
p2156
I1
sS'mizzer '
p2157
I1
sS'mint '
p2158
I1
sS'geil '
p2159
I1
sS'\\u0441\\u0438\\u043d\\u0434\\u0440\\u043e\\u043c\\u043e\\u043c '
p2160
I1
sS'tips '
p2161
I1
sS'stammerlng '
p2162
I1
sS'know '
p2163
I1
sS'rocked '
p2164
I1
sS'rocks '
p2165
I3
sS'wow '
p2166
I1
sS'wish '
p2167
I1
sS'slobber '
p2168
I1
sS'fun '
p2169
I1
sS'geared '
p2170
I1
sS'mad '
p2171
I1
sS'estate '
p2172
I1
sS'oprah '
p2173
I1
sS'260 '
p2174
I1
sS'yes '
p2175
I1
sS'good '
p2176
I3
sS'hell '
p2177
I1
sS'bad '
p2178
I1
sS'expected '
p2179
I1
sS'tight '
p2180
I10
sS'top '
p2181
I3
sS'blast '
p2182
I1
sS'lush '
p2183
I1
sS'chill '
p2184
I1
sS'wood '
p2185
I1
sS'a '
p2186
I1
sS'fit '
p2187
I1
sS'hard '
p2188
I1
sS'brilliant '
p2189
I2
sS'on '
p2190
I1
sS'amazing '
p2191
I2
sS'wicked '
p2192
I4
sS'whoa '
p2193
I1
sS'awesome '
p2194
I40
sS'great '
p2195
I15
sS'nice '
p2196
I11
sS'slapping '
p2197
I1
sS'gloria '
p2198
I1
sS'fuckin '
p2199
I1
sS'dope '
p2200
I1
sS'dude '
p2201
I3
sS'pukey '
p2202
I1
sS'light '
p2203
I1
sS'rock '
p2204
I3
sS'hard- '
p2205
I3
sS'rad '
p2206
I1
sS'fucking- '
p2207
I1
sS'winding '
p2208
I1
sS'lustful '
p2209
I1
sS'fine '
p2210
I3
sS'horny '
p2211
I24
sS'awe '
p2212
I1
sS'wanted '
p2213
I1
sS'sterling '
p2214
I1
sS'cool '
p2215
I34
sS'neat '
p2216
I2
sS'dirty '
p2217
I1
sS'hot '
p2218
I11
sS'buff '
p2219
I1
sS'drew '
p2220
I1
sS'proper '
p2221
I1
sS'yeah '
p2222
I3
sS'sucks '
p2223
I2
stp2224
a((lp2225
S'bezweifelst'
p2226
aS'Bezweifelst'
p2227
a(dp2228
S'doubt '
p2229
I1
stp2230
a((lp2231
S'rekord'
p2232
aS'Rekord'
p2233
a(dp2234
S'record '
p2235
I45
sS'doubt '
p2236
I1
sS'counting '
p2237
I1
sS'mark '
p2238
I1
sS'score '
p2239
I1
sS'supposed '
p2240
I1
stp2241
a((lp2242
S'rico-'
p2243
aS'Rico-'
p2244
a(dp2245
tp2246
a((lp2247
S'anzuzweifeln'
p2248
aS'Anzuzweifeln'
p2249
a(dp2250
S'discredit '
p2251
I1
sS'doubt '
p2252
I1
stp2253
a((lp2254
S'wirdwohl'
p2255
aS'Wirdwohl'
p2256
a(dp2257
S'doubt '
p2258
I1
stp2259
a((lp2260
S'zweifeiios'
p2261
aS'Zweifeiios'
p2262
a(dp2263
tp2264
a.