(lp0
((lp1
S'wahrscheinlich'
p2
aS'Wahrscheinlich'
p3
a(dp4
S'probablyjust '
p5
I1
sS'oppenheimer '
p6
I1
sS'js '
p7
I1
sS'may '
p8
I15
sS'frogs '
p9
I1
sS'wintersgill '
p10
I1
sS'sister '
p11
I1
sS': '
p12
I1
sS'reckon '
p13
I2
sS'convince '
p14
I1
sS'guess '
p15
I12
sS'probabhy '
p16
I2
sS'obviously '
p17
I2
sS'likely '
p18
I68
sS'tombstone '
p19
I1
sS'uglies '
p20
I1
sS'chance '
p21
I1
sS'already '
p22
I2
sS'shot '
p23
I1
sS'possible '
p24
I2
sS'racist '
p25
I1
sS'be '
p26
I2
sS'approximately '
p27
I1
sS'that '
p28
I4
sS'necessary '
p29
I1
sS'lines '
p30
I1
sS'sure '
p31
I3
sS'suppose '
p32
I3
sS'watches '
p33
I1
sS'fill '
p34
I1
sS'mm '
p35
I1
sS'stupid '
p36
I1
sS'propably '
p37
I1
sS'eventually '
p38
I3
sS'truth '
p39
I1
sS'doing '
p40
I1
sS'pony '
p41
I1
sS'yes '
p42
I1
sS'chances '
p43
I7
sS'maybe '
p44
I12
sS'it '
p45
I5
sS'might '
p46
I24
sS'supposedly '
p47
I1
sS'they '
p48
I1
sS'think '
p49
I9
sS'i '
p50
I2
sS'white '
p51
I1
sS'when '
p52
I1
sS'- '
p53
I1
sS'wasprobably '
p54
I1
sS'possibly '
p55
I10
sS'perhaps '
p56
I1
sS'apparently '
p57
I1
sS'gone '
p58
I1
sS'probable '
p59
I3
sS'odds '
p60
I1
sS'wanted '
p61
I1
sS'awful '
p62
I1
sS'odds- '
p63
I1
sS'must '
p64
I9
sS'possibility '
p65
I1
sS'probably '
p66
I1050
sS'wamapoke '
p67
I1
sS'yeah '
p68
I1
stp69
a((lp70
S'h\xc3\xb6chstwahrscheinlich'
p71
aS'H\xc3\xb6chstwahrscheinlich'
p72
a(dp73
S'glenn '
p74
I1
sS'way '
p75
I1
sS'love '
p76
I1
sS'yep '
p77
I1
sS'good '
p78
I1
sS'def '
p79
I2
sS'probably '
p80
I1
sS'likely '
p81
I24
sS'bet '
p82
I1
stp83
a((lp84
S'wahrscheinlicher'
p85
aS'Wahrscheinlicher'
p86
a(dp87
S'likely '
p88
I22
sS'more '
p89
I2
stp90
a((lp91
S'eher'
p92
aS'Eher'
p93
a(dp94
S'record '
p95
I1
sS'slughorn '
p96
I1
sS'doubt '
p97
I1
sS'better '
p98
I3
sS'really '
p99
I3
sS'considerably '
p100
I1
sS'no '
p101
I4
sS'until '
p102
I1
sS'guess '
p103
I2
sS'fun '
p104
I2
sS'kind '
p105
I6
sS'duckie '
p106
I1
sS'early '
p107
I1
sS'telemarketers '
p108
I1
sS'likely '
p109
I13
sS'actually '
p110
I6
sS'quicker '
p111
I3
sS'like '
p112
I11
sS'hunt '
p113
I1
sS'appeared '
p114
I1
sS'kicking '
p115
I1
sS'before '
p116
I11
sS'rather '
p117
I61
sS'make '
p118
I1
sS'beenmore '
p119
I1
sS'prefer '
p120
I1
sS'is '
p121
I1
sS'try '
p122
I1
sS'much '
p123
I1
sS'so '
p124
I2
sS'playing '
p125
I1
sS'first '
p126
I2
sS'earlier '
p127
I8
sS'think '
p128
I2
sS'more '
p129
I263
sS'it '
p130
I3
sS'i '
p131
I4
sS'faster '
p132
I1
sS'bollocks '
p133
I1
sS'thumbs '
p134
I1
sS'neither '
p135
I1
sS'porch '
p136
I1
sS'maybe '
p137
I3
sS'pursuits '
p138
I2
sS'sort '
p139
I2
sS'delivering '
p140
I2
sS'sooner '
p141
I48
sS'as '
p142
I1
sS'not '
p143
I3
sS'quite '
p144
I1
sS'probably '
p145
I6
sS'way '
p146
I2
sS'closer '
p147
I6
stp148
a((lp149
S'unwahrscheinlich'
p150
aS'Unwahrscheinlich'
p151
a(dp152
S'unbelievably '
p153
I1
sS'no '
p154
I1
sS'odds '
p155
I1
sS'improbable '
p156
I2
sS'likely '
p157
I9
sS'muuttuukaan '
p158
I1
sS'unlikely '
p159
I36
stp160
a((lp161
S'wahrscheinliche'
p162
aS'Wahrscheinliche'
p163
a(dp164
S'likely '
p165
I3
sS'eventual '
p166
I1
sS'probable '
p167
I1
stp168
a((lp169
S'vermutlich'
p170
aS'Vermutlich'
p171
a(dp172
S'alcoholic '
p173
I1
sS'may '
p174
I5
sS'maybe '
p175
I4
sS'would '
p176
I1
sS'guess '
p177
I30
sS'likely '
p178
I3
sS'butler '
p179
I1
sS'supposed '
p180
I13
sS'course '
p181
I1
sS'possible '
p182
I2
sS'shatner '
p183
I1
sS'be '
p184
I1
sS'guess, '
p185
I2
sS'suppose '
p186
I26
sS'presumably '
p187
I19
sS'misspoke '
p188
I1
sS'or '
p189
I1
sS'enough '
p190
I1
sS'proposal '
p191
I1
sS'gue '
p192
I1
sS'might '
p193
I10
sS'think '
p194
I1
sS'surely '
p195
I1
sS'supposedly '
p196
I4
sS'possibly '
p197
I8
sS'perhaps '
p198
I3
sS'confused '
p199
I1
sS'all '
p200
I1
sS'presumed '
p201
I3
sS'guessing '
p202
I1
sS'bet '
p203
I1
sS'probably '
p204
I423
stp205
a((lp206
S'm\xc3\xb6glich'
p207
aS'M\xc3\xb6glich'
p208
a(dp209
S'one '
p210
I2
sS'sweet '
p211
I1
sS'possible, '
p212
I1
sS'better '
p213
I1
sS'nervous '
p214
I1
sS'memories '
p215
I1
sS'cereal '
p216
I1
sS'forbid '
p217
I1
sS'posible '
p218
I1
sS'absolutely '
p219
I1
sS'admit '
p220
I1
sS'kn '
p221
I1
sS'lot '
p222
I1
sS'allowed '
p223
I1
sS'breathlessly '
p224
I1
sS'mom '
p225
I1
sS'should '
p226
I1
sS'bet '
p227
I1
sS'deserve '
p228
I1
sS'possibility '
p229
I5
sS'likely '
p230
I3
sS'options '
p231
I1
sS'possible '
p232
I647
sS'master '
p233
I1
sS'all, '
p234
I1
sS'be '
p235
I19
sS'could '
p236
I26
sS'asap '
p237
I11
sS'true '
p238
I1
sS'option '
p239
I8
sS'theory '
p240
I1
sS'suppose '
p241
I1
sS'how '
p242
I2
sS'againhow '
p243
I1
sS'mother '
p244
I1
sS'sustainable '
p245
I1
sS'deliver '
p246
I1
sS'liable '
p247
I1
sS'believe '
p248
I3
sS'try '
p249
I2
sS'chicken '
p250
I1
sS'mogu\\u0436e '
p251
I2
sS'can '
p252
I87
sS'alive '
p253
I2
sS'poss\xc3\xadvel '
p254
I1
sS'graiman '
p255
I1
sS'oh '
p256
I1
sS'possibly '
p257
I26
sS'might '
p258
I9
sS'impossible '
p259
I20
sS'possibhe '
p260
I1
sS'say '
p261
I1
sS'p. '
p262
I6
sS'chance '
p263
I4
sS'able '
p264
I33
sS'tripped '
p265
I2
sS'maybe '
p266
I23
sS'wrong '
p267
I1
sS'paper '
p268
I1
sS'perhaps '
p269
I1
sS'argument '
p270
I1
sS'time '
p271
I1
sS'best '
p272
I2
sS'later '
p273
I1
sS'happening '
p274
I2
sS'may '
p275
I1
sS'happen '
p276
I12
sS'must '
p277
I1
sS'fire, '
p278
I1
sS'vendors '
p279
I1
sS'dad '
p280
I1
sS'probably '
p281
I3
sS'way '
p282
I13
sS'weakness '
p283
I1
sS'conroy '
p284
I1
stp285
a((lp286
S'wahrscheinlichkeit'
p287
aS'Wahrscheinlichkeit'
p288
a(dp289
S'seems '
p290
I1
sS'forjust '
p291
I1
sS'likely '
p292
I3
sS'chances '
p293
I5
sS'dance '
p294
I1
sS'likelihood '
p295
I4
sS'probability '
p296
I20
sS'stakes '
p297
I1
sS'odds '
p298
I9
sS'talk '
p299
I1
sS'possibility '
p300
I5
sS'chance '
p301
I11
sS'percentage '
p302
I1
stp303
a((lp304
S'ehesten'
p305
aS'Ehesten'
p306
a(dp307
S'most '
p308
I1
sS'likely '
p309
I2
sS'nanny '
p310
I1
sS'primarily '
p311
I1
stp312
a((lp313
S'k\xc3\xb6nnte'
p314
aS'K\xc3\xb6nnte'
p315
a(dp316
S'could, '
p317
I1
sS'may '
p318
I274
sS'am '
p319
I2
sS'no '
p320
I1
sS'would '
p321
I91
sS'looks '
p322
I1
sS'renaissance '
p323
I1
sS'did '
p324
I3
sS'possible '
p325
I1
sS'if '
p326
I10
sS"'aurais "
p327
I1
sS'\\u00bf '
p328
I1
sS'swear, '
p329
I1
sS'about '
p330
I1
sS'greensleevers '
p331
I1
sS'chance '
p332
I4
sS"'ve "
p333
I4
sS'had '
p334
I2
sS'guess '
p335
I2
sS'probably '
p336
I4
sS'any '
p337
I1
sS'has '
p338
I2
sS"'ll "
p339
I18
sS'likely '
p340
I2
sS'should '
p341
I14
sS'completely '
p342
I1
sS'could '
p343
I3774
sS'wouldn '
p344
I6
sS'sounds '
p345
I1
sS'is '
p346
I26
sS'mind '
p347
I2
sS'might '
p348
I932
sS'think '
p349
I4
sS'rye '
p350
I1
sS'able '
p351
I6
sS'thanks '
p352
I1
sS'maybe '
p353
I13
sS'perhaps '
p354
I4
sS'mightn '
p355
I1
sS'sort '
p356
I2
sS'things '
p357
I1
sS'check '
p358
I1
sS"'s "
p359
I32
sS'dd '
p360
I1
sS'makes '
p361
I3
sS'horse '
p362
I1
sS'know '
p363
I3
sS'have '
p364
I1
sS'mmm '
p365
I1
sS'didn '
p366
I1
sS'be '
p367
I2
sS'tiniest '
p368
I1
sS'sure '
p369
I2
sS'suppose '
p370
I1
sS'careof '
p371
I1
sS'right '
p372
I1
sS'fulfil '
p373
I1
sS'were '
p374
I2
sS'why '
p375
I1
sS'like '
p376
I2
sS'couldn '
p377
I153
sS'you '
p378
I1
sS'don '
p379
I1
sS'cultivate '
p380
I1
sS'ought '
p381
I1
sS'was '
p382
I8
sS'possibly '
p383
I2
sS'give '
p384
I1
sS'will '
p385
I2
sS'hang '
p386
I1
sS'gonna '
p387
I1
sS'thought '
p388
I2
sS'xmas '
p389
I1
sS"'d "
p390
I41
sS'kind '
p391
I1
sS'whispering '
p392
I1
sS'possibility '
p393
I1
sS', '
p394
I1
sS'do '
p395
I13
sS"'m "
p396
I11
sS'well '
p397
I1
sS'does '
p398
I4
sS'can '
p399
I323
sS'incognito '
p400
I1
sS'i '
p401
I1
sS'coulda '
p402
I2
sS'need '
p403
I1
sS'something '
p404
I2
stp405
a((lp406
S'un\xc3\xa4hnlichsten'
p407
aS'Un\xc3\xa4hnlichsten'
p408
a(dp409
S'likely '
p410
I2
stp411
a((lp412
S'wohl'
p413
aS'Wohl'
p414
a(dp415
S'one '
p416
I1
sS'going '
p417
I1
sS'may '
p418
I11
sS'thusly '
p419
I1
sS'what '
p420
I1
sS'would '
p421
I9
sS'messed '
p422
I1
sS'mean '
p423
I5
sS'looks '
p424
I8
sS'welfare '
p425
I4
sS'making '
p426
I1
sS'better '
p427
I3
sS'course '
p428
I1
sS'did '
p429
I1
sS'health '
p430
I1
sS'then '
p431
I1
sS'wonder '
p432
I14
sS'up '
p433
I2
sS'afraid '
p434
I4
sS'isn '
p435
I1
sS'benefit '
p436
I3
sS'neccesary '
p437
I1
sS'it '
p438
I3
sS'about '
p439
I2
sS'sorry '
p440
I1
sS'expect '
p441
I3
sS'least '
p442
I1
sS'apparently '
p443
I4
sS'talking '
p444
I1
sS'all '
p445
I3
sS'fine '
p446
I2
sS'have '
p447
I20
sS"'re "
p448
I5
sS'probably '
p449
I183
sS'seem '
p450
I8
sS'best '
p451
I2
sS'else '
p452
I1
sS'very '
p453
I1
sS'getting '
p454
I1
sS'got '
p455
I3
sS'salud '
p456
I1
sS'bye '
p457
I6
sS'leaving '
p458
I1
sS'likely '
p459
I2
sS'seems '
p460
I13
sS'sake '
p461
I6
sS'just '
p462
I15
sS'healthy '
p463
I1
sS'fancy '
p464
I2
sS'that '
p465
I3
sS'rather '
p466
I1
sS'yes '
p467
I2
sS'good '
p468
I39
sS'safety '
p469
I1
sS'wouldn '
p470
I1
sS'pretty '
p471
I3
sS'is '
p472
I4
sS'mind '
p473
I1
sS'uncomfortable '
p474
I3
sS'trait '
p475
I1
sS'bter '
p476
I1
sS'drink '
p477
I1
sS'might '
p478
I16
sS'think '
p479
I156
sS'maybe '
p480
I4
sS'perhaps '
p481
I4
sS'enjoy '
p482
I3
sS'out '
p483
I3
sS"'s "
p484
I2
sS'must '
p485
I97
sS'quite '
p486
I2
sS'uvula '
p487
I1
sS'doubt '
p488
I2
sS'too '
p489
I1
sS'really '
p490
I4
sS'for '
p491
I1
sS'guess '
p492
I168
sS'zadrovya '
p493
I1
sS'know '
p494
I3
sS'i '
p495
I1
sS'obviously '
p496
I9
sS'richie '
p497
I1
sS'a '
p498
I1
sS'cheers '
p499
I19
sS'be '
p500
I68
sS'now '
p501
I2
sS'dreams '
p502
I1
sS'suppose '
p503
I33
sS'right '
p504
I17
sS'believe '
p505
I1
sS'much '
p506
I2
sS'sir '
p507
I2
sS'like '
p508
I15
sS'don '
p509
I3
sS'certainhy '
p510
I1
sS'was '
p511
I1
sS'feeling '
p512
I1
sS'means '
p513
I2
sS'possibly '
p514
I5
sS'are '
p515
I1
sS'opportunity '
p516
I1
sS'certainly '
p517
I3
sS'greater '
p518
I8
sS'bit '
p519
I2
sS'he '
p520
I1
sS'take '
p521
I2
sS'will '
p522
I1
sS'to '
p523
I10
sS'wonders '
p524
I1
sS'gonna '
p525
I6
sS'huh '
p526
I2
sS'bet '
p527
I5
sS'precisely '
p528
I1
sS'well '
p529
I50
sS'supposed '
p530
I1
sS'comfortable '
p531
I46
sS', '
p532
I1
sS'do '
p533
I8
sS"'m "
p534
I1
sS'sick '
p535
I1
sS"'t "
p536
I12
sS'business '
p537
I1
sS'bajillionaire '
p538
I1
sS'looking '
p539
I1
sS'nice '
p540
I1
sS'well- '
p541
I2
sS'long '
p542
I2
sS'shuffle '
p543
I1
sS'knows '
p544
I1
sS'not '
p545
I1
sS'bottoms- '
p546
I1
stp547
a((lp548
S'tr\xc3\xa4um'
p549
aS'Tr\xc3\xa4um'
p550
a(dp551
S'rooftop '
p552
I1
sS'sweet '
p553
I2
sS'dream '
p554
I8
sS'dreams '
p555
I1
sS'dreamin '
p556
I1
sS'dreaming '
p557
I3
sS'sleep '
p558
I1
sS'likely '
p559
I2
stp560
a((lp561
S'warscheinlich'
p562
aS'Warscheinlich'
p563
a(dp564
S'maybe '
p565
I1
sS'overlapping '
p566
I1
sS'probable '
p567
I1
sS'probably '
p568
I17
sS'likely '
p569
I2
sS'crappo '
p570
I1
stp571
a((lp572
S'voraussichtlich'
p573
aS'Voraussichtlich'
p574
a(dp575
S'approximately '
p576
I4
sS'arrive '
p577
I1
sS'supposedly '
p578
I1
sS'eta '
p579
I1
sS'likely '
p580
I2
sS'estimated '
p581
I1
stp582
a((lp583
S'wahrscheinlichste'
p584
aS'Wahrscheinlichste'
p585
a(dp586
S'obvious '
p587
I1
sS'likely '
p588
I2
stp589
a((lp590
S'lebensunterhalt'
p591
aS'Lebensunterhalt'
p592
a(dp593
S'petal '
p594
I1
sS'likely '
p595
I1
sS'livelihood '
p596
I5
sS'livin '
p597
I1
sS'responsibilities '
p598
I1
sS'living '
p599
I30
sS'ethnic '
p600
I1
sS'donefor '
p601
I1
sS'pockets '
p602
I1
sS'job '
p603
I1
stp604
a((lp605
S'bequem'
p606
aS'Bequem'
p607
a(dp608
S'convenient '
p609
I15
sS'sensible '
p610
I1
sS'likely '
p611
I1
sS'comfortable '
p612
I53
sS'cozy '
p613
I3
sS'load '
p614
I1
sS'investigator '
p615
I1
sS'ease '
p616
I8
sS'home '
p617
I4
sS'easy '
p618
I1
sS'bothered '
p619
I1
sS'uncomfortable '
p620
I1
sS'welcome '
p621
I1
sS'hello '
p622
I1
sS'retaking '
p623
I1
sS'comfy '
p624
I11
sS'comfortably '
p625
I5
sS'shoes '
p626
I1
sS'ha '
p627
I1
sS'suit '
p628
I3
sS'get '
p629
I1
sS'rozgo\\u009c\\u00e6cie '
p630
I1
sS'birthday '
p631
I1
sS'yourself '
p632
I2
stp633
a((lp634
S'wahrscheinlichere'
p635
aS'Wahrscheinlichere'
p636
a(dp637
S'likely '
p638
I1
stp639
a((lp640
S'h\\u00c3\\u00b6chstwahrscheinlich'
p641
aS'H\\u00c3\\u00b6chstwahrscheinlich'
p642
a(dp643
S'likely '
p644
I1
stp645
a((lp646
S'd\xc3\xbcrftig'
p647
aS'D\xc3\xbcrftig'
p648
a(dp649
S'barely '
p650
I1
sS'tenuous '
p651
I1
sS'lame '
p652
I3
sS'okay '
p653
I1
sS'likely '
p654
I1
stp655
a((lp656
S'herausstellte'
p657
aS'Herausstellte'
p658
a(dp659
S'turned '
p660
I6
sS'turns '
p661
I20
sS'likely '
p662
I1
sS'goes '
p663
I1
stp664
a((lp665
S'm\xc3\xb6glicher'
p666
aS'M\xc3\xb6glicher'
p667
a(dp668
S'likely '
p669
I1
sS'potential '
p670
I6
sS'possibles '
p671
I1
sS'possible '
p672
I10
stp673
a((lp674
S'zweites'
p675
aS'Zweites'
p676
a(dp677
S'another '
p678
I3
sS'likely '
p679
I1
sS'thank '
p680
I1
sS'sitting '
p681
I1
sS'new '
p682
I2
sS'sister '
p683
I2
sS'spare '
p684
I1
sS'twice '
p685
I5
sS'second '
p686
I62
sS'don\\u2019 '
p687
I1
sS'again '
p688
I1
sS'second- '
p689
I3
stp690
a((lp691
S'vielleicht'
p692
aS'Vielleicht'
p693
a(dp694
S'one '
p695
I1
sS'may '
p696
I703
sS'uh '
p697
I1
sS'am '
p698
I1
sS'richard '
p699
I1
sS'no '
p700
I8
sS'ever '
p701
I1
sS'poderia '
p702
I1
sS'would '
p703
I2
sS'ok '
p704
I1
sS'um '
p705
I1
sS'mom '
p706
I2
sS'god '
p707
I2
sS't\xc3\xa4m\xc3\xa4 '
p708
I1
sS'sleepover '
p709
I1
sS'did '
p710
I1
sS'possible '
p711
I7
sS'it\\u2019 '
p712
I1
sS'then '
p713
I2
sS'wonder '
p714
I1
sS'true '
p715
I1
sS'if '
p716
I51
sS'turn '
p717
I1
sS'listen '
p718
I1
sS'try '
p719
I1
sS'shots '
p720
I1
sS'hope '
p721
I1
sS'martini '
p722
I1
sS'everyone '
p723
I1
sS'thinking '
p724
I3
sS'it '
p725
I20
sS'about '
p726
I2
sS'beep '
p727
I1
sS'\\u0442\\u0435\\u0431\\u044f '
p728
I1
sS'( '
p729
I1
sS'chance '
p730
I7
sS'mm- '
p731
I1
sS'weil '
p732
I1
sS'let '
p733
I4
sS'thoseout '
p734
I1
sS'we '
p735
I4
sS'- '
p736
I15
sS'all '
p737
I1
sS'guess '
p738
I4
sS'probably '
p739
I189
sS'any '
p740
I2
sS'me '
p741
I1
sS'and '
p742
I4
sS'course '
p743
I1
sS'likely '
p744
I1
sS'should '
p745
I3
sS'or '
p746
I4
sS'maybe, '
p747
I5
sS'just '
p748
I6
sS'because '
p749
I1
sS'could '
p750
I65
sS'that '
p751
I8
sS'yes '
p752
I4
sS'good '
p753
I1
sS'lies '
p754
I1
sS'wait '
p755
I1
sS'start '
p756
I1
sS'is '
p757
I2
sS'mind '
p758
I11
sS'she '
p759
I9
sS'even '
p760
I6
sS'perhaps, '
p761
I1
sS'might '
p762
I994
sS'think '
p763
I1
sS'say '
p764
I3
sS'suosiollisella '
p765
I1
sS'bowl '
p766
I1
sS'maybe '
p767
I6386
sS'perhaps '
p768
I720
sS'such '
p769
I5
sS'happen '
p770
I4
sS'must '
p771
I2
sS'starting '
p772
I1
sS'quite '
p773
I2
sS'delicate '
p774
I1
sS'but '
p775
I3
sS'now '
p776
I1
sS'whwhat '
p777
I1
sS'for '
p778
I2
sS'wanna '
p779
I1
sS'have '
p780
I8
sS'know '
p781
I2
sS'i '
p782
I70
sS'be '
p783
I14
sS'there '
p784
I5
sS'hey '
p785
I3
sS'suppose '
p786
I2
sS'right '
p787
I1
sS'encores '
p788
I1
sS'batman '
p789
I1
sS'why '
p790
I5
sS'so '
p791
I7
sS'ah '
p792
I2
sS'employees '
p793
I1
sS'sopranos '
p794
I1
sS'like '
p795
I17
sS'jay '
p796
I1
sS'relays '
p797
I1
sS'you '
p798
I14
sS'don '
p799
I2
sS'they '
p800
I4
sS'what '
p801
I13
sS'someone '
p802
I1
sS'hopefully '
p803
I5
sS'possibly '
p804
I19
sS'okay '
p805
I3
sS'except '
p806
I1
sS'decent '
p807
I1
sS'later '
p808
I1
sS'perchance '
p809
I1
sS'probable '
p810
I1
sS'andrea '
p811
I1
sS'he '
p812
I5
sS'teaches '
p813
I1
sS'who '
p814
I1
sS'maby '
p815
I1
sS'wondering '
p816
I1
sS'eventually '
p817
I13
sS'sister '
p818
I1
sS"'d "
p819
I1
sS'bet '
p820
I1
sS'kind '
p821
I1
sS'bret '
p822
I1
sS'well, '
p823
I1
sS'well '
p824
I14
sS'crocker '
p825
I1
sS'wondered '
p826
I3
sS'look '
p827
I1
sS'heart '
p828
I1
sS'how '
p829
I10
sS'jesus '
p830
I1
sS'some '
p831
I6
sS'crusoe '
p832
I1
sS'not '
p833
I1
sS'a '
p834
I3
sS'maybes '
p835
I2
sS'puts '
p836
I1
sS'an '
p837
I1
sS'can '
p838
I2
sS'oh '
p839
I8
sS'tell '
p840
I1
sS'see '
p841
I3
sS'my '
p842
I2
sS'\\u043c\\u0438\\u043b\\u044b\\u0439 '
p843
I1
sS'also '
p844
I1
sS'unless '
p845
I1
sS'hug '
p846
I1
sS'n '
p847
I1
sS'fifteen '
p848
I1
sS'yeah '
p849
I9
sS'do '
p850
I3
sS'something '
p851
I5
stp852
a((lp853
S'wahrscheinlichsten'
p854
aS'Wahrscheinlichsten'
p855
a(dp856
S'likely '
p857
I1
stp858
a((lp859
S'bestimmt'
p860
aS'Bestimmt'
p861
a(dp862
S'definitely '
p863
I33
sS'certain '
p864
I5
sS'what '
p865
I1
sS'no '
p866
I2
sS'nope '
p867
I1
sS'would '
p868
I2
sS'actually '
p869
I2
sS'course '
p870
I2
sS'impounded '
p871
I1
sS'meant '
p872
I57
sS'really '
p873
I4
sS'absolutely '
p874
I3
sS'won '
p875
I11
sS'swear '
p876
I1
sS'it '
p877
I2
sS'jordan '
p878
I1
sS'today '
p879
I1
sS'kukaan '
p880
I1
sS'expect '
p881
I2
sS'workforce '
p882
I1
sS'all '
p883
I2
sS'least '
p884
I1
sS'probably '
p885
I70
sS'determined '
p886
I12
sS'rez '
p887
I1
sS'intended '
p888
I4
sS"'ll "
p889
I7
sS'decided '
p890
I1
sS'likely '
p891
I1
sS'yes '
p892
I1
sS'scooch '
p893
I1
sS'wouldn '
p894
I7
sS'is '
p895
I1
sS'oblige '
p896
I1
sS'think '
p897
I4
sS'surely '
p898
I12
sS'honestly '
p899
I1
sS'maybe '
p900
I3
sS'perhaps '
p901
I1
sS'firm '
p902
I1
sS'beautiful '
p903
I1
sS'must '
p904
I51
sS'hear '
p905
I2
sS'doubt '
p906
I1
sS'for '
p907
I1
sS'chosen '
p908
I1
sS'blocking '
p909
I1
sS'be '
p910
I32
sS'sure '
p911
I96
sS'destined '
p912
I15
sS'right '
p913
I5
sS'determine '
p914
I1
sS'bound '
p915
I2
sS'much '
p916
I1
sS'so '
p917
I2
sS'like '
p918
I2
sS'you '
p919
I3
sS'wondering '
p920
I1
sS'tough '
p921
I1
sS'clearly '
p922
I5
sS'us '
p923
I1
sS'yeah '
p924
I2
sS'certainly '
p925
I36
sS'provides '
p926
I1
sS'he '
p927
I2
sS'written '
p928
I1
sS'will '
p929
I7
sS'gonna '
p930
I4
sS'bet '
p931
I28
sS'well '
p932
I2
sS'supposed '
p933
I16
sS"'s "
p934
I1
sS'do '
p935
I1
sS'read '
p936
I1
sS'can '
p937
I3
sS'near '
p938
I1
sS'oh '
p939
I2
sS'agree '
p940
I1
sS'i '
p941
I1
sS'been '
p942
I1
sS'purpose '
p943
I1
sS'determines '
p944
I5
sS'governs '
p945
I1
sS'sire '
p946
I1
sS'alone '
p947
I1
sS'not '
p948
I1
sS'precise '
p949
I1
sS'something '
p950
I1
stp951
a((lp952
S'nahe'
p953
aS'Nahe'
p954
a(dp955
S'much '
p956
I1
sS'suggests '
p957
I1
sS'hurt '
p958
I1
sS'far '
p959
I1
sS'getting '
p960
I1
sS'nearby '
p961
I2
sS'almost '
p962
I2
sS'nearer '
p963
I1
sS'handy '
p964
I1
sS'likely '
p965
I1
sS"'t "
p966
I1
sS'middle '
p967
I2
sS'nigh '
p968
I1
sS'pms '
p969
I1
sS'closest '
p970
I4
sS'barking '
p971
I1
sS'away '
p972
I1
sS'tight '
p973
I6
sS'day '
p974
I1
sS'detainees '
p975
I1
sS'near '
p976
I66
sS'count '
p977
I1
sS'funny '
p978
I1
sS'***** '
p979
I1
sS'closer '
p980
I5
sS'offend '
p981
I2
sS'verge '
p982
I1
sS'means '
p983
I1
sS'next '
p984
I2
sS'close '
p985
I270
sS'him '
p986
I1
sS'holding '
p987
I1
sS'something '
p988
I1
stp989
a((lp990
S'realistisch'
p991
aS'Realistisch'
p992
a(dp993
S'felicia '
p994
I1
sS'realistic '
p995
I29
sS', '
p996
I1
sS'realistically '
p997
I3
sS'real '
p998
I3
sS'known '
p999
I1
sS'disconnected '
p1000
I1
sS'likely '
p1001
I1
sS'bound '
p1002
I1
stp1003
a((lp1004
S'kaum'
p1005
aS'Kaum'
p1006
a(dp1007
S'record '
p1008
I2
sS'doubt '
p1009
I3
sS'low '
p1010
I1
sS'very '
p1011
I5
sS'hardly '
p1012
I202
sS'no '
p1013
I3
sS'almost '
p1014
I11
sS'as '
p1015
I1
sS'once '
p1016
I1
sS'scarcely '
p1017
I11
sS'likely '
p1018
I1
sS'soon '
p1019
I3
sS'barely '
p1020
I235
sS'there '
p1021
I2
sS'rarely '
p1022
I3
sS'few '
p1023
I1
sS'barehy '
p1024
I1
sS'marginally '
p1025
I1
sS'exactlyno '
p1026
I1
sS'enough '
p1027
I1
sS'time '
p1028
I1
sS'unlikely '
p1029
I3
sS'nothing '
p1030
I1
sS'much '
p1031
I13
sS"'t "
p1032
I227
sS'wakey- '
p1033
I1
sS'can '
p1034
I2
sS'hard '
p1035
I36
sS'even '
p1036
I2
sS'depend '
p1037
I1
sS'little '
p1038
I9
sS'never '
p1039
I2
sS'impossible '
p1040
I1
sS'oh '
p1041
I1
sS'been '
p1042
I1
sS'practically '
p1043
I1
sS'less '
p1044
I1
sS'sticks '
p1045
I1
sS'out '
p1046
I1
sS'not '
p1047
I35
sS'guessed '
p1048
I1
sS'lot '
p1049
I1
sS't '
p1050
I2
stp1051
a((lp1052
S'sicher'
p1053
aS'Sicher'
p1054
a(dp1055
S'definitely '
p1056
I22
sS'checked '
p1057
I1
sS'certain '
p1058
I169
sS'could '
p1059
I3
sS'may '
p1060
I1
sS'uh '
p1061
I1
sS'clearing '
p1062
I1
sS'doc '
p1063
I1
sS'no '
p1064
I7
sS'record '
p1065
I1
sS'would '
p1066
I7
sS'hi '
p1067
I2
sS'ok '
p1068
I2
sS'redcap '
p1069
I1
sS'fat '
p1070
I1
sS'confirm '
p1071
I2
sS'steady '
p1072
I1
sS'certa\xc3\xadnly '
p1073
I1
sS'mattress '
p1074
I1
sS'course '
p1075
I67
sS'already '
p1076
I3
sS'bait '
p1077
I1
sS'de\\u011filim '
p1078
I1
sS'confidentthat '
p1079
I1
sS'sureshe '
p1080
I1
sS'clarify '
p1081
I1
sS'gotta '
p1082
I3
sS'really '
p1083
I7
sS'absolutely '
p1084
I10
sS'few '
p1085
I1
sS'mother '
p1086
I1
sS'validation '
p1087
I1
sS'pleasure '
p1088
I1
sS'pictures '
p1089
I1
sS'manage '
p1090
I1
sS'isafe '
p1091
I3
sS'dodukanleyo '
p1092
I1
sS'seat '
p1093
I1
sS'thank '
p1094
I2
sS'fizbo- '
p1095
I1
sS'talk '
p1096
I1
sS'it '
p1097
I10
sS'hmm '
p1098
I1
sS'liz '
p1099
I1
sS'regular '
p1100
I1
sS'banana '
p1101
I1
sS'imagine '
p1102
I1
sS'please '
p1103
I1
sS'sorry '
p1104
I2
sS'clean '
p1105
I1
sS'agency '
p1106
I1
sS'whatever '
p1107
I1
sS'all '
p1108
I1
sS'guarantee '
p1109
I1
sS'hurry '
p1110
I1
sS'talking '
p1111
I1
sS'fine '
p1112
I4
sS'secured '
p1113
I1
sS'torn '
p1114
I1
sS'have '
p1115
I1
sS'pen '
p1116
I1
sS'birthday '
p1117
I1
sS'totally '
p1118
I3
sS'probably '
p1119
I62
sS'safer '
p1120
I3
sS'damm '
p1121
I1
sS'determined '
p1122
I1
sS'assure '
p1123
I1
sS'anything '
p1124
I2
sS'blocking '
p1125
I1
sS'safe '
p1126
I790
sS'got '
p1127
I2
sS'teammates '
p1128
I1
sS'*** '
p1129
I1
sS"'ll "
p1130
I3
sS'as '
p1131
I1
sS'invisible '
p1132
I1
sS'likely '
p1133
I1
sS'yup '
p1134
I1
sS'laughing '
p1135
I3
sS'face '
p1136
I1
sS'gunfire '
p1137
I1
sS'at '
p1138
I2
sS'johnny '
p1139
I1
sS'surethis '
p1140
I2
sS'hit '
p1141
I1
sS'assured '
p1142
I4
sS'that '
p1143
I1
sS'come '
p1144
I1
sS'find '
p1145
I1
sS'yes '
p1146
I6
sS'good '
p1147
I5
sS'safety '
p1148
I1
sS'even '
p1149
I1
sS'is '
p1150
I2
sS'nothing '
p1151
I1
sS'protected '
p1152
I4
sS'built '
p1153
I2
sS'count '
p1154
I1
sS'proof '
p1155
I3
sS'brilliant '
p1156
I1
sS'aid '
p1157
I1
sS'them '
p1158
I1
sS'dismiss '
p1159
I1
sS'might '
p1160
I8
sS'think '
p1161
I9
sS'ridikolus '
p1162
I1
sS'surely '
p1163
I51
sS'doesn '
p1164
I2
sS'hello '
p1165
I1
sS'saturday '
p1166
I1
sS'burke '
p1167
I1
sS'ruth '
p1168
I1
sS'cheney '
p1169
I1
sS'puhut '
p1170
I1
sS'seriously '
p1171
I2
sS'nuts '
p1172
I1
sS'jerry '
p1173
I2
sS'ones '
p1174
I1
sS'bruv '
p1175
I1
sS'joe '
p1176
I1
sS'su '
p1177
I1
sS'checking '
p1178
I1
sS'seymour, '
p1179
I1
sS'thanks '
p1180
I2
sS'happen '
p1181
I1
sS'must '
p1182
I49
sS'surethat '
p1183
I2
sS'constance '
p1184
I1
sS'quite '
p1185
I2
sS'threesome '
p1186
I1
sS'lot '
p1187
I2
sS'trust '
p1188
I3
sS'boring '
p1189
I1
sS'cookie '
p1190
I1
sS'deserves '
p1191
I1
sS'doubt '
p1192
I4
sS'angle '
p1193
I1
sS'neurobiologist '
p1194
I1
sS'live '
p1195
I1
sS'knew '
p1196
I2
sS'case '
p1197
I3
sS'see '
p1198
I3
sS'stakes '
p1199
I1
sS'wanna '
p1200
I1
sS'worried '
p1201
I2
sS'guess '
p1202
I3
sS'convinced '
p1203
I4
sS'know '
p1204
I45
sS'obviously '
p1205
I1
sS'ton '
p1206
I1
sS'brain '
p1207
I1
sS'toilets '
p1208
I1
sS'$23 '
p1209
I1
sS'passageway '
p1210
I1
sS'be '
p1211
I38
sS'thoughts '
p1212
I2
sS'there '
p1213
I3
sS'sure '
p1214
I4971
sS'suppose '
p1215
I5
sS'right '
p1216
I25
sS'insane '
p1217
I1
sS'unsafe '
p1218
I4
sS'me '
p1219
I2
sS'believe '
p1220
I2
sS'batman '
p1221
I1
sS'why '
p1222
I1
sS'so '
p1223
I1
sS'certainty '
p1224
I2
sS'crap '
p1225
I1
sS'jr '
p1226
I1
sS'safely '
p1227
I56
sS'ronstadt '
p1228
I1
sS'you '
p1229
I6
sS'off '
p1230
I1
sS'serious '
p1231
I19
sS'they '
p1232
I2
sS'what '
p1233
I1
sS'right- '
p1234
I1
sS'straight '
p1235
I2
sS'means '
p1236
I3
sS'odavde '
p1237
I1
sS'okay '
p1238
I9
sS'clearly '
p1239
I6
sS'certainly '
p1240
I86
sS'and '
p1241
I1
sS'won '
p1242
I1
sS'betcha '
p1243
I1
sS'mesome '
p1244
I1
sS'he '
p1245
I2
sS'shizzle '
p1246
I1
sS'eh '
p1247
I1
sS'mike '
p1248
I1
sS'will '
p1249
I3
sS'granted '
p1250
I4
sS'spot '
p1251
I1
sS'confident '
p1252
I13
sS'cheer '
p1253
I1
sS'gonna '
p1254
I3
sS'shure '
p1255
I1
sS'positive '
p1256
I31
sS"' "
p1257
I1
sS's\\u00fbr '
p1258
I1
sS'go '
p1259
I1
sS"'d "
p1260
I1
sS'bat '
p1261
I1
sS'bet '
p1262
I25
sS'cocksure '
p1263
I1
sS'none '
p1264
I1
sS'swear '
p1265
I1
sS'well '
p1266
I5
sS"'t "
p1267
I1
sS'solid '
p1268
I2
sS'though '
p1269
I1
sS', '
p1270
I1
sS'do '
p1271
I5
sS'clear '
p1272
I27
sS'made- '
p1273
I1
sS'understand '
p1274
I4
sS'hell '
p1275
I1
sS'watch '
p1276
I1
sS'compromised '
p1277
I1
sS'engaged '
p1278
I1
sS'soda '
p1279
I1
sS'eat '
p1280
I1
sS'point '
p1281
I1
sS'fact '
p1282
I6
sS'can '
p1283
I6
sS'sit '
p1284
I1
sS'oh '
p1285
I2
sS'sure, '
p1286
I23
sS'spend '
p1287
I1
sS'assurance '
p1288
I1
sS'surehe '
p1289
I1
sS'sicher '
p1290
I1
sS'ridiculous '
p1291
I1
sS'i '
p1292
I6
sS'she, '
p1293
I1
sS'ahead '
p1294
I1
sS're '
p1295
I3
sS'excuse '
p1296
I1
sS'door '
p1297
I1
sS'don '
p1298
I4
sS'katie '
p1299
I1
sS'real '
p1300
I1
sS'sire '
p1301
I3
sS'surei '
p1302
I1
sS'secure '
p1303
I51
sS'ensure '
p1304
I1
sS'covered '
p1305
I1
sS'great '
p1306
I2
sS'assuredly '
p1307
I1
sS'shut '
p1308
I1
sS'thing '
p1309
I1
sS'picking '
p1310
I1
sS'still '
p1311
I1
sS"'m "
p1312
I1
sS'yeah '
p1313
I30
sS'epitome '
p1314
I1
stp1315
a((lp1316
S'voraussicht'
p1317
aS'Voraussicht'
p1318
a(dp1319
S'foresight '
p1320
I1
sS'likely '
p1321
I1
stp1322
a((lp1323
S'tosh'
p1324
aS'Tosh'
p1325
a(dp1326
S'likely '
p1327
I1
sS'tosh, '
p1328
I7
sS'tosh '
p1329
I38
stp1330
a((lp1331
S'selig'
p1332
aS'Selig'
p1333
a(dp1334
S'believe, '
p1335
I1
sS'likely '
p1336
I1
sS'blessedly '
p1337
I1
sS'thrilled '
p1338
I1
sS'peace '
p1339
I1
sS'blessed '
p1340
I13
sS'bless '
p1341
I1
sS'rest '
p1342
I1
sS'soul '
p1343
I5
stp1344
a((lp1345
S'wie'
p1346
aS'Wie'
p1347
a(dp1348
S'feel '
p1349
I1
sS'remember '
p1350
I2
sS'zoe '
p1351
I1
sS'uh '
p1352
I8
sS'unlike '
p1353
I13
sS'paved '
p1354
I1
sS'am '
p1355
I1
sS'koen '
p1356
I1
sS'almost '
p1357
I10
sS'would '
p1358
I1
sS'hi '
p1359
I3
sS'ok '
p1360
I2
sS'anybody '
p1361
I1
sS'was '
p1362
I13
sS'bu- '
p1363
I1
sS'rest '
p1364
I1
sS'make '
p1365
I4
sS'mmm, '
p1366
I1
sS'anyways '
p1367
I11
sS'good '
p1368
I3
sS'hiring '
p1369
I1
sS'sorry '
p1370
I6
sS'did '
p1371
I29
sS'pardon '
p1372
I24
sS'suresh '
p1373
I1
sS'then '
p1374
I5
sS'gotta '
p1375
I1
sS'with '
p1376
I32
sS'seen '
p1377
I2
sS'iike '
p1378
I22
sS'if '
p1379
I30
sS'wha\\u009ds '
p1380
I2
sS"'you "
p1381
I1
sS'pleasure '
p1382
I2
sS'knowing '
p1383
I1
sS'sedative '
p1384
I1
sS'two '
p1385
I1
sS'look '
p1386
I7
sS'give '
p1387
I1
sS'no '
p1388
I2
sS'\\u0436e\\u0459 '
p1389
I1
sS'little '
p1390
I1
sS'welcome '
p1391
I2
sS'it '
p1392
I41
sS'ever '
p1393
I3
sS'problem '
p1394
I1
sS'about '
p1395
I50
sS'more '
p1396
I1
sS'judgment '
p1397
I1
sS'ormuerte '
p1398
I2
sS'imagine '
p1399
I1
sS'mark '
p1400
I1
sS'god '
p1401
I3
sS'the '
p1402
I47
sS'whats '
p1403
I1
sS'weil '
p1404
I1
sS'let '
p1405
I14
sS'anything '
p1406
I5
sS'anyway, '
p1407
I4
sS'- '
p1408
I93
sS'nonsense '
p1409
I1
sS'all '
p1410
I17
sS'ha '
p1411
I1
sS'week '
p1412
I1
sS'wie '
p1413
I1
sS'than '
p1414
I77
sS'howd '
p1415
I2
sS'doyou '
p1416
I1
sS'them '
p1417
I1
sS'yet '
p1418
I1
sS'man '
p1419
I1
sS'suit '
p1420
I35
sS'any '
p1421
I3
sS'regardless '
p1422
I1
sS'watching '
p1423
I2
sS'me '
p1424
I1
sS'a '
p1425
I5
sS'sarah '
p1426
I1
sS'got '
p1427
I1
sS'her '
p1428
I1
sS'has '
p1429
I4
sS'simple '
p1430
I1
sS'6922 '
p1431
I1
sS'as '
p1432
I3857
sS'meaning '
p1433
I1
sS'type '
p1434
I1
sS'" '
p1435
I6
sS'likely '
p1436
I1
sS'perfect '
p1437
I1
sS'mm '
p1438
I1
sS'or '
p1439
I1
sS'lf '
p1440
I1
sS'just '
p1441
I24
sS'because '
p1442
I1
sS'she '
p1443
I2
sS'at '
p1444
I4
sS'knowhow '
p1445
I1
sS'could '
p1446
I2
sS'that '
p1447
I103
sS'come '
p1448
I6
sS'yes '
p1449
I11
sS'emilio '
p1450
I1
sS'sounds '
p1451
I1
sS'mission '
p1452
I1
sS'wait '
p1453
I1
sS'is '
p1454
I29
sS'time '
p1455
I1
sS'funny '
p1456
I1
sS'take '
p1457
I1
sS'anyway '
p1458
I190
sS'listen '
p1459
I1
sS'what\\u2019 '
p1460
I5
sS'after '
p1461
I1
sS'stillwho '
p1462
I1
sS'never '
p1463
I1
sS'fair '
p1464
I2
sS'whoa '
p1465
I1
sS'sharpeners '
p1466
I1
sS'say '
p1467
I5
sS'suits '
p1468
I1
sS'everything '
p1469
I2
sS'seriously '
p1470
I1
sS'when '
p1471
I55
sS'andhow '
p1472
I1
sS'maybe '
p1473
I1
sS'his '
p1474
I1
sS'e- '
p1475
I1
sS'practically '
p1476
I2
sS'sort '
p1477
I1
sS'looking '
p1478
I1
sS'shooter '
p1479
I1
sS'forget '
p1480
I1
sS'out '
p1481
I2
sS"'s "
p1482
I6
sS'such '
p1483
I20
sS'um '
p1484
I6
sS'however '
p1485
I82
sS'jonah '
p1486
I1
sS'way '
p1487
I641
sS'ah '
p1488
I1
sS'remind '
p1489
I1
sS'but '
p1490
I17
sS'( '
p1491
I7
sS'lemon '
p1492
I1
sS'too '
p1493
I3
sS'nevertheless '
p1494
I1
sS'there '
p1495
I5
sS'h '
p1496
I1
sS'for '
p1497
I7
sS'absolutely '
p1498
I3
sS'by '
p1499
I4
sS'guess '
p1500
I2
sS'every '
p1501
I1
sS'know '
p1502
I2
sS'gretchen '
p1503
I1
sS'have '
p1504
I10
sS'similar '
p1505
I1
sS'into '
p1506
I1
sS'nah '
p1507
I1
sS'howdy- '
p1508
I1
sS'oraenmanlya '
p1509
I1
sS'be '
p1510
I5
sS'w '
p1511
I2
sS'now '
p1512
I4
sS'hey '
p1513
I23
sS'scuse '
p1514
I1
sS'lighthearted '
p1515
I1
sS'thanks '
p1516
I1
sS'gosh '
p1517
I1
sS'right '
p1518
I4
sS'were '
p1519
I1
sS'watch '
p1520
I2
sS'why '
p1521
I114
sS'much '
p1522
I3
sS'so '
p1523
I117
sS'sir '
p1524
I1
sS'from '
p1525
I10
sS'like '
p1526
I10724
sS'hard '
p1527
I1
sS'hinky '
p1528
I1
sS'whose '
p1529
I1
sS'anyw '
p1530
I1
sS'justin '
p1531
I1
sS'you '
p1532
I64
sS'don '
p1533
I4
sS'they '
p1534
I6
sS'slugzilla '
p1535
I1
sS'whatever '
p1536
I72
sS'what '
p1537
I3645
sS'heh '
p1538
I1
sS'same '
p1539
I26
sS'appoint '
p1540
I1
sS'neither '
p1541
I1
sS'this '
p1542
I1
sS'okay '
p1543
I6
sS'are '
p1544
I50
sS'we '
p1545
I104
sS'sandeura '
p1546
I1
sS'and '
p1547
I50
sS'liability '
p1548
I1
sS'ba\\u0459 '
p1549
I1
sS'my '
p1550
I7
sS'[ '
p1551
I9
sS'he '
p1552
I12
sS'eh '
p1553
I3
sS'mr. '
p1554
I1
sS'will '
p1555
I2
sS'to '
p1556
I2
sS'who '
p1557
I51
sS'hang '
p1558
I1
sS'ahh '
p1559
I1
sS'\\u00bf '
p1560
I1
sS'person '
p1561
I1
sS'being '
p1562
I3
sS'huh '
p1563
I32
sS'lets '
p1564
I1
sS'like, '
p1565
I8
sS'where '
p1566
I116
sS'guy '
p1567
I1
sS'bet '
p1568
I4
sS'handle '
p1569
I1
sS'brother '
p1570
I1
sS'kind '
p1571
I8
sS'well '
p1572
I34
sS'howyou '
p1573
I3
sS'aw '
p1574
I1
sS'jay '
p1575
I1
sS'these '
p1576
I3
sS'of '
p1577
I106
sS', '
p1578
I1
sS"'t "
p1579
I1
sS'phil '
p1580
I3
sS'do '
p1581
I37
sS"'m "
p1582
I5
sS'your '
p1583
I4
sS'howwhat '
p1584
I1
sS'understand '
p1585
I1
sS'how '
p1586
I18333
sS'anyhow '
p1587
I5
sS'andy '
p1588
I1
sS'whore '
p1589
I1
sS's '
p1590
I2
sS'what, '
p1591
I2
sS'matchless '
p1592
I1
sS'not '
p1593
I2
sS'does '
p1594
I15
sS'very '
p1595
I17
sS'pouvez '
p1596
I1
sS'stall '
p1597
I1
sS'stand '
p1598
I1
sS'can '
p1599
I3
sS'again '
p1600
I6
sS'oh '
p1601
I19
sS'hike '
p1602
I1
sS'tell '
p1603
I4
sS'fry '
p1604
I1
sS'knights '
p1605
I1
sS'bad '
p1606
I2
sS'see '
p1607
I5
sS'hows '
p1608
I2
sS'i '
p1609
I207
sS'none '
p1610
I1
sS'kako '
p1611
I1
sS'in '
p1612
I13
sS'excuse '
p1613
I152
sS'become '
p1614
I1
sS'get '
p1615
I1
sS'real '
p1616
I3
sS'gone '
p1617
I1
sS'changed '
p1618
I1
sS'eottae '
p1619
I1
sS'two- '
p1620
I1
sS'saying '
p1621
I1
sS'great '
p1622
I2
sS"' "
p1623
I1
sS'something '
p1624
I2
sS'please '
p1625
I1
sS'thing '
p1626
I1
sS'whichever '
p1627
I2
sS'yeah '
p1628
I14
sS'which '
p1629
I24
stp1630
a((lp1631
S'unwahrscheinlicher'
p1632
aS'Unwahrscheinlicher'
p1633
a(dp1634
S'likely '
p1635
I1
stp1636
a((lp1637
S'02,'
p1638
aS'02,'
p1639
a(dp1640
S'likely '
p1641
I2
stp1642
a.