(lp0
((lp1
S'erfolgreich'
p2
aS'Erfolgreich'
p3
a(dp4
S'one '
p5
I1
sS'correctly '
p6
I1
sS'sucessfully '
p7
I1
sS'job '
p8
I1
sS'fruitful '
p9
I1
sS'well '
p10
I3
sS'succeeded '
p11
I13
sS'succeeding '
p12
I1
sS'success '
p13
I8
sS'succeeds '
p14
I1
sS'talk '
p15
I1
sS'successfully '
p16
I20
sS'successfull '
p17
I1
sS'gangbusters '
p18
I2
sS'succeed '
p19
I22
sS'accomplished '
p20
I4
sS'works '
p21
I1
sS'wassuccessful '
p22
I1
sS'effectively '
p23
I2
sS'taking '
p24
I2
sS'successful '
p25
I57
sS'cool '
p26
I1
sS'glowing '
p27
I1
sS'splash '
p28
I1
sS'thriving '
p29
I1
stp30
a((lp31
S'gegenden'
p32
aS'Gegenden'
p33
a(dp34
S'successfully '
p35
I1
sS'areas '
p36
I7
sS'neighborhoods '
p37
I2
sS'places '
p38
I1
stp39
a((lp40
S'erfolgreiches'
p41
aS'Erfolgreiches'
p42
a(dp43
S'winning '
p44
I2
sS'banner '
p45
I1
sS'successful '
p46
I4
sS'successfully '
p47
I1
stp48
a((lp49
S'erfolgreichen'
p50
aS'Erfolgreichen'
p51
a(dp52
S'triumphant '
p53
I2
sS'count '
p54
I1
sS'super '
p55
I1
sS'successful '
p56
I11
sS'winning '
p57
I1
sS'successfully '
p58
I1
stp59
a((lp60
S'erfolg'
p61
aS'Erfolg'
p62
a(dp63
S'triumph '
p64
I3
sS'anyone '
p65
I1
sS'working '
p66
I1
sS'go '
p67
I1
sS'accomplish '
p68
I2
sS'achievement '
p69
I2
sS'luck '
p70
I20
sS'succeeding '
p71
I3
sS'making '
p72
I2
sS'well '
p73
I1
sS'halliburton '
p74
I1
sS'succeeded '
p75
I9
sS'work '
p76
I3
sS'hit '
p77
I5
sS'unsuccessful '
p78
I1
sS'annie '
p79
I1
sS'accomplishment '
p80
I2
sS'succeeds '
p81
I3
sS'unsuccessfully '
p82
I2
sS'look '
p83
I2
sS'successes '
p84
I1
sS'success '
p85
I118
sS'made '
p86
I4
sS'moving '
p87
I1
sS'great '
p88
I1
sS'succeed '
p89
I19
sS'outcome '
p90
I1
sS'days '
p91
I1
sS'famous '
p92
I1
sS'prosperity '
p93
I1
sS'successful '
p94
I10
sS'godspeed '
p95
I3
sS'successfully '
p96
I1
sS'pack '
p97
I1
sS'here '
p98
I1
sS'victory '
p99
I5
stp100
a((lp101
S'erf\xc3\xbcllt'
p102
aS'Erf\xc3\xbcllt'
p103
a(dp104
S'fills '
p105
I3
sS'fulfilled '
p106
I10
sS'nano- '
p107
I1
sS'gives '
p108
I1
sS'completing '
p109
I1
sS'complete '
p110
I1
sS'filled '
p111
I10
sS'end '
p112
I1
sS'done '
p113
I2
sS'completed '
p114
I5
sS'obey '
p115
I2
sS'finished '
p116
I1
sS'finish '
p117
I1
sS'duty '
p118
I1
sS'do '
p119
I1
sS'true '
p120
I4
sS'full '
p121
I2
sS'fill '
p122
I1
sS'does '
p123
I1
sS'achieved '
p124
I1
sS'met '
p125
I7
sS'accomplished '
p126
I10
sS'angst- '
p127
I1
sS'fulfill '
p128
I2
sS'check '
p129
I1
sS'granted '
p130
I10
sS'fulfills '
p131
I1
sS'put '
p132
I1
sS'successfully '
p133
I1
stp134
a((lp135
S'duchgezogen'
p136
aS'Duchgezogen'
p137
a(dp138
S'successfully '
p139
I1
stp140
a((lp141
S'richtig'
p142
aS'Richtig'
p143
a(dp144
S'one '
p145
I2
sS'becomethis '
p146
I2
sS'wise '
p147
I2
sS'uh '
p148
I1
sS'am '
p149
I1
sS'ought '
p150
I1
sS'no '
p151
I4
sS'dream '
p152
I1
sS'ok '
p153
I2
sS'giant '
p154
I1
sS'touch\xc3\xa9 '
p155
I1
sS'yes '
p156
I20
sS'job '
p157
I2
sS'hook '
p158
I1
sS'jake '
p159
I1
sS'course '
p160
I2
sS'fair '
p161
I3
sS'knocking '
p162
I1
sS'veldig '
p163
I1
sS'work '
p164
I4
sS'really '
p165
I251
sS'true '
p166
I36
sS'haven '
p167
I1
sS'crews '
p168
I1
sS'ninja '
p169
I1
sS'humans '
p170
I1
sS'brilliant '
p171
I1
sS'dead '
p172
I1
sS'gods '
p173
I1
sS'amnesia '
p174
I1
sS'help '
p175
I1
sS'mistake '
p176
I1
sS'isn '
p177
I8
sS'ordered '
p178
I1
sS'pretty '
p179
I5
sS'it '
p180
I28
sS'duh '
p181
I1
sS'phew '
p182
I1
sS'empty '
p183
I1
sS'god '
p184
I1
sS'plumb '
p185
I1
sS'aye '
p186
I1
sS'sorr '
p187
I1
sS'- '
p188
I2
sS'l '
p189
I1
sS'all '
p190
I2
sS'talking '
p191
I1
sS'\xc3\xadt '
p192
I1
sS'fine '
p193
I10
sS'crazy '
p194
I1
sS'geiss '
p195
I1
sS'totally '
p196
I1
sS'soon '
p197
I1
sS'seem '
p198
I1
sS'cares '
p199
I1
sS'else '
p200
I1
sS'correct '
p201
I54
sS'getting '
p202
I3
sS'got '
p203
I1
sS'jeez '
p204
I1
sS'straight '
p205
I18
sS'running '
p206
I1
sS'bec '
p207
I1
sS'perfect '
p208
I1
sS'aren '
p209
I7
sS'just '
p210
I7
sS'greet '
p211
I1
sS'want '
p212
I1
sS'actually '
p213
I4
sS'that '
p214
I13
sS'come '
p215
I1
sS'accurate '
p216
I4
sS'good '
p217
I16
sS'sod '
p218
I1
sS'condom '
p219
I1
sS'hitch '
p220
I1
sS'phrase '
p221
I1
sS'is '
p222
I1
sS'time '
p223
I11
sS'suggesting '
p224
I1
sS'patient '
p225
I1
sS'audit '
p226
I1
sS'them '
p227
I1
sS'exactly '
p228
I8
sS'truly '
p229
I1
sS'told '
p230
I1
sS'say '
p231
I3
sS'agreed '
p232
I1
sS'pouring '
p233
I1
sS'seriously '
p234
I4
sS'six '
p235
I1
sS'crunk '
p236
I1
sS'dematerialize '
p237
I1
sS'ight '
p238
I1
sS'oikein '
p239
I2
sS'things '
p240
I2
sS'nicely '
p241
I1
sS'spot '
p242
I1
sS'beautiful '
p243
I1
sS'exams '
p244
I1
sS'properly '
p245
I45
sS'here '
p246
I1
sS'total '
p247
I1
sS'fuck '
p248
I2
sS'boy '
p249
I1
sS'students '
p250
I1
sS'pact '
p251
I1
sS'absolutely '
p252
I2
sS'sense '
p253
I1
sS'wedding '
p254
I1
sS"'t "
p255
I2
sS'clearly '
p256
I2
sS'ended '
p257
I1
sS'together '
p258
I1
sS'drafting '
p259
I1
sS'right, '
p260
I21
sS'hearing '
p261
I1
sS'reai '
p262
I1
sS'christine '
p263
I2
sS'didn '
p264
I3
sS'idea '
p265
I1
sS'straightforward '
p266
I1
sS'there '
p267
I1
sS'applause '
p268
I1
sS'sure '
p269
I2
sS'fairly '
p270
I1
sS'right '
p271
I3217
sS'place '
p272
I2
sS'believe '
p273
I1
sS'gupta '
p274
I1
sS'sir '
p275
I2
sS'working '
p276
I1
sS'ian '
p277
I1
sS'fucking '
p278
I2
sS'like '
p279
I4
sS'count '
p280
I2
sS'on '
p281
I1
sS'ooh '
p282
I1
sS'bits '
p283
I1
sS'areolas '
p284
I1
sS'they '
p285
I3
sS'what '
p286
I4
sS'right- '
p287
I1
sS'drinking '
p288
I1
sS'rightly '
p289
I3
sS'wrong '
p290
I9
sS'okay '
p291
I5
sS'tried '
p292
I2
sS'yeah '
p293
I26
sS'shit '
p294
I3
sS'later '
p295
I1
sS'vey '
p296
I1
sS'cleveland '
p297
I1
sS'catch '
p298
I1
sS'lunch, '
p299
I1
sS'communist '
p300
I1
sS'richtig '
p301
I1
sS'fox '
p302
I1
sS'successfully '
p303
I1
sS'big '
p304
I2
sS'proper '
p305
I10
sS'so '
p306
I5
sS'huh '
p307
I6
sS'tie '
p308
I1
sS'fit '
p309
I5
sS'where '
p310
I1
sS'sapo '
p311
I1
sS'alright '
p312
I2
sS'half- '
p313
I1
sS'well '
p314
I6
sS'mkm '
p315
I1
sS'point '
p316
I2
sS'look '
p317
I1
sS"'s "
p318
I1
sS'boyfriend '
p319
I1
sS'do '
p320
I8
sS'understand '
p321
I1
sS'money '
p322
I1
sS'bad '
p323
I2
sS'what, '
p324
I1
sS'some '
p325
I1
sS'does '
p326
I2
sS'very '
p327
I13
sS'almighty '
p328
I1
sS'spirit '
p329
I2
sS'can '
p330
I1
sS'indeed '
p331
I1
sS'oh '
p332
I2
sS'tali '
p333
I1
sS'whoa '
p334
I1
sS'quite '
p335
I5
sS'completely '
p336
I2
sS'hear '
p337
I1
sS'correctly '
p338
I14
sS'distinguishing '
p339
I1
sS'i '
p340
I2
sS'you '
p341
I8
sS'gary '
p342
I1
sS'way '
p343
I4
sS'get '
p344
I5
sS'real '
p345
I49
sS'aidan '
p346
I1
sS'alone '
p347
I1
sS'cool '
p348
I1
sS'not '
p349
I4
sS'thing '
p350
I2
sS'lucky, '
p351
I1
sS'polygrapher '
p352
I1
sS'back '
p353
I1
stp354
a((lp355
S'transferierte'
p356
aS'Transferierte'
p357
a(dp358
S'successfully '
p359
I1
stp360
a.