(lp0
((lp1
S'erlaubnis'
p2
aS'Erlaubnis'
p3
a(dp4
S'indulgence '
p5
I2
sS'consent '
p6
I4
sS'authorized '
p7
I1
sS'permits '
p8
I2
sS'dammit '
p9
I1
sS'permission '
p10
I152
sS'cop '
p11
I1
sS'allowed '
p12
I3
sS'gifts '
p13
I1
sS'approval '
p14
I2
sS'credits '
p15
I1
sS'permit '
p16
I11
sS'became '
p17
I1
sS'leave '
p18
I3
sS'cleared '
p19
I1
sS'approvalto '
p20
I1
sS'allowance '
p21
I1
sS'license '
p22
I1
sS'shitty '
p23
I1
sS'authorizations '
p24
I1
sS'kidnapped '
p25
I1
sS'say '
p26
I2
sS'kira '
p27
I1
sS'warrant '
p28
I2
sS'pass '
p29
I1
sS'vouching '
p30
I1
sS'hall '
p31
I1
sS'granted '
p32
I1
sS'authorize '
p33
I1
sS'authorisation '
p34
I1
sS'bellman '
p35
I1
sS'papers '
p36
I1
sS'authorization '
p37
I3
sS'clearance '
p38
I1
sS'authority '
p39
I1
stp40
a((lp41
S'genehmigung'
p42
aS'Genehmigung'
p43
a(dp44
S'preapproved '
p45
I1
sS'access '
p46
I1
sS'permission '
p47
I13
sS'consent '
p48
I1
sS'authorisation '
p49
I3
sS'permit '
p50
I13
sS'authorization '
p51
I20
sS'approval '
p52
I8
stp53
a((lp54
S'zustimmung'
p55
aS'Zustimmung'
p56
a(dp57
S'consent '
p58
I11
sS'okay '
p59
I79
sS'agreement '
p60
I1
sS'minds '
p61
I1
sS'acceptance '
p62
I2
sS'permission '
p63
I7
sS'authorization '
p64
I1
sS'haircut '
p65
I1
sS'agree '
p66
I1
sS'climate- '
p67
I1
sS'consented '
p68
I1
sS'corroboration '
p69
I1
sS'agreeing '
p70
I1
sS'approval '
p71
I13
sS'cleared '
p72
I2
sS'favorable '
p73
I1
sS'nod '
p74
I2
stp75
a((lp76
S'erlauben'
p77
aS'Erlauben'
p78
a(dp79
S'consent '
p80
I1
sS'may '
p81
I2
sS'permission '
p82
I4
sS'ok '
p83
I1
sS'have '
p84
I2
sS'approve '
p85
I2
sS'allowed '
p86
I4
sS'break '
p87
I1
sS'pardon '
p88
I1
sS'do '
p89
I9
sS'dare '
p90
I2
sS'hump '
p91
I1
sS'permit '
p92
I11
sS'watch '
p93
I1
sS'allow '
p94
I104
sS'slipping '
p95
I1
sS'afford '
p96
I15
sS'i '
p97
I1
sS'let '
p98
I14
sS'excuse '
p99
I2
sS'mind '
p100
I6
sS'authorize '
p101
I1
sS'allows '
p102
I2
sS'allowing '
p103
I2
stp104
a((lp105
S'erlaubt'
p106
aS'Erlaubt'
p107
a(dp108
S'dare '
p109
I1
sS'may '
p110
I2
sS'lets '
p111
I1
sS'gives '
p112
I1
sS'permission '
p113
I4
sS'forbid '
p114
I1
sS'said '
p115
I1
sS'ok '
p116
I1
sS'liberty '
p117
I5
sS'allows '
p118
I31
sS'allowed '
p119
I100
sS'approve '
p120
I1
sS'supposed '
p121
I2
sS'fair '
p122
I3
sS'number '
p123
I1
sS'could '
p124
I4
sS'goes '
p125
I1
sS'permit '
p126
I2
sS'leave '
p127
I1
sS'mind '
p128
I1
sS'allow '
p129
I40
sS'can '
p130
I2
sS'this '
p131
I1
sS'told '
p132
I1
sS'permitted '
p133
I5
sS'dawdled '
p134
I1
sS'enables '
p135
I1
sS'let '
p136
I7
sS'forbidden '
p137
I1
sS'legal '
p138
I4
sS'winding '
p139
I1
sS'won '
p140
I1
sS'tolerated '
p141
I1
sS'invalid '
p142
I1
sS'allowing '
p143
I8
stp144
a((lp145
S'permission'
p146
aS'Permission'
p147
a(dp148
S'permission '
p149
I3
stp150
a((lp151
S'erteilt'
p152
aS'Erteilt'
p153
a(dp154
S'issued '
p155
I1
sS'driving '
p156
I1
sS'permission '
p157
I3
sS'granted '
p158
I5
sS'hi '
p159
I1
sS'ahead '
p160
I1
sS'given '
p161
I2
sS'approved '
p162
I1
sS'teach '
p163
I1
sS'h- '
p164
I1
stp165
a((lp166
S'erteile'
p167
aS'Erteile'
p168
a(dp169
S'permission '
p170
I3
sS'superspy '
p171
I1
sS'granting '
p172
I1
sS'give '
p173
I3
sS'call '
p174
I1
stp175
a((lp176
S'd\xc3\xbcrfen'
p177
aS'D\xc3\xbcrfen'
p178
a(dp179
S'could '
p180
I2
sS'may '
p181
I32
sS'use '
p182
I1
sS'hope '
p183
I1
sS'permission '
p184
I2
sS'nurses '
p185
I1
sS'allowed '
p186
I52
sS'have '
p187
I9
sS'shouldn '
p188
I6
sS'cannot '
p189
I24
sS'ride '
p190
I2
sS'should '
p191
I5
sS'supposed '
p192
I12
sS', '
p193
I1
sS'do '
p194
I7
sS'gotta '
p195
I1
sS'dare '
p196
I3
sS'sure '
p197
I1
sS'right '
p198
I1
sS"'re "
p199
I13
sS'cleared '
p200
I4
sS'watch '
p201
I1
sS'allow '
p202
I2
sS'can '
p203
I271
sS'admittance '
p204
I1
sS'diplomats '
p205
I1
sS'couldn '
p206
I2
sS'don '
p207
I3
sS'permitted '
p208
I1
sS'see '
p209
I1
sS'mustn '
p210
I5
sS'able '
p211
I2
sS'ridiculous '
p212
I1
sS'let '
p213
I16
sS'... '
p214
I1
sS'are '
p215
I4
sS'cant '
p216
I1
sS'get '
p217
I2
sS'go '
p218
I1
sS'mind '
p219
I5
sS'need '
p220
I6
sS'coverts '
p221
I1
sS'must '
p222
I17
sS'to '
p223
I2
sS'free '
p224
I4
stp225
a((lp226
S'einwilligung'
p227
aS'Einwilligung'
p228
a(dp229
S'both '
p230
I1
sS'consent '
p231
I10
sS'permission '
p232
I2
sS'bryan '
p233
I1
sS'comply '
p234
I1
stp235
a((lp236
S'darf'
p237
aS'Darf'
p238
a(dp239
S'mayl '
p240
I1
sS'dare '
p241
I2
sS'may '
p242
I364
sS'am '
p243
I1
sS'permission '
p244
I2
sS'would '
p245
I8
sS'liberty '
p246
I3
sS'cannot '
p247
I52
sS'letting '
p248
I3
sS'join '
p249
I1
sS'possible '
p250
I1
sS'gotta '
p251
I4
sS'anjadodwaeyo '
p252
I1
sS'crab '
p253
I1
sS'if '
p254
I10
sS'asposed '
p255
I1
sS'isn '
p256
I3
sS'heaven '
p257
I2
sS'no '
p258
I3
sS'mademoiselle '
p259
I2
sS'senator '
p260
I1
sS'nailing '
p261
I1
sS'please '
p262
I1
sS'let '
p263
I47
sS'- '
p264
I7
sS'sympathetic '
p265
I1
sS'have '
p266
I4
sS'the" '
p267
I1
sS'sandstorm '
p268
I1
sS'me '
p269
I1
sS'has '
p270
I4
sS"'ll "
p271
I16
sS'having '
p272
I1
sS'allowed '
p273
I84
sS'daresay '
p274
I1
sS'should '
p275
I10
sS'or '
p276
I2
sS'could '
p277
I17
sS'come '
p278
I3
sS'hancock '
p279
I1
sS'is '
p280
I8
sS'mind '
p281
I74
sS'allow '
p282
I11
sS'might '
p283
I12
sS'say '
p284
I1
sS'gets '
p285
I17
sS'forbidden '
p286
I1
sS'perhaps '
p287
I1
sS'show '
p288
I1
sS'joel '
p289
I1
sS"'s "
p290
I10
sS'cass '
p291
I1
sS'must '
p292
I27
sS'can\\u2019 '
p293
I2
sS'myself '
p294
I8
sS'want '
p295
I21
sS'my '
p296
I3
sS'right '
p297
I1
sS'permit '
p298
I2
sS'tofu '
p299
I1
sS'endure '
p300
I1
sS'flossing '
p301
I3
sS'takes '
p302
I2
sS'doesn '
p303
I1
sS'million '
p304
I1
sS'couldn '
p305
I6
sS'don '
p306
I1
sS'permitted '
p307
I1
sS'what '
p308
I3
sS'manner '
p309
I1
sS'said '
p310
I1
sS'storybook '
p311
I2
sS'okay '
p312
I1
sS'lion '
p313
I1
sS'why '
p314
I1
sS'take '
p315
I3
sS'will '
p316
I10
sS'to '
p317
I6
sS'??????? '
p318
I1
sS"' "
p319
I1
sS"'d "
p320
I2
sS'meet '
p321
I5
sS'coming '
p322
I4
sS'shouldn '
p323
I5
sS'supposed '
p324
I13
sS'keep '
p325
I3
sS'do '
p326
I21
sS"'m "
p327
I1
sS'tung '
p328
I1
sS'does '
p329
I3
sS'can '
p330
I693
sS'tali '
p331
I1
sS'hello '
p332
I1
sS'i '
p333
I1
sS'mustn '
p334
I10
sS'abalone '
p335
I1
sS'shall '
p336
I3
sS'excuse '
p337
I3
sS'free '
p338
I1
sS'get '
p339
I20
sS'warschau '
p340
I1
sS'need '
p341
I5
sS'claim '
p342
I4
sS'yeah '
p343
I1
stp344
a((lp345
S'eriaubnis'
p346
aS'Eriaubnis'
p347
a(dp348
tp349
a((lp350
S'hand'
p351
aS'Hand'
p352
a(dp353
S'hanna '
p354
I1
sS'hand- '
p355
I5
sS'starving '
p356
I1
sS'hand '
p357
I1071
sS'overreacting '
p358
I1
sS'doing '
p359
I1
sS'back '
p360
I1
sS'got '
p361
I1
sS'permission '
p362
I1
sS'aaaaaaaaah '
p363
I1
sS'over '
p364
I1
sS'shake '
p365
I4
sS'grasp '
p366
I2
sS'covered '
p367
I1
sS'fist '
p368
I3
sS'balls '
p369
I1
sS'mouth '
p370
I1
sS'poultice '
p371
I1
sS'blowjob '
p372
I1
sS'down '
p373
I1
sS'research '
p374
I1
sS'handy '
p375
I1
sS'face '
p376
I1
sS'neil '
p377
I1
sS'marry '
p378
I3
sS'really '
p379
I1
sS'reached '
p380
I2
sS'up '
p381
I2
sS'palms '
p382
I1
sS'touch '
p383
I2
sS'easy '
p384
I1
sS'sweaters '
p385
I1
sS'palm '
p386
I7
sS'choice '
p387
I1
sS'shots '
p388
I1
sS'hand, '
p389
I5
sS'manually '
p390
I1
sS'impasse '
p391
I1
sS'assistance '
p392
I1
sS'handful '
p393
I3
sS'held '
p394
I1
sS'hands '
p395
I124
sS'finger '
p396
I3
sS'fingers '
p397
I2
sS'woah '
p398
I1
sS'daddy '
p399
I1
sS'handed '
p400
I3
sS'heft '
p401
I1
sS'books '
p402
I1
sS'aye '
p403
I1
sS'help '
p404
I2
sS'ask '
p405
I1
sS'handshake '
p406
I1
sS'go '
p407
I1
sS'handoff '
p408
I2
sS'strong '
p409
I1
sS'table '
p410
I5
sS'put '
p411
I1
sS'aaaaaah '
p412
I1
sS'life '
p413
I3
sS'touching '
p414
I3
sS'aah '
p415
I1
sS'holding '
p416
I11
sS'control '
p417
I2
sS'arm '
p418
I3
sS'wrist '
p419
I6
stp420
a((lp421
S'dreherlaubnis'
p422
aS'Dreherlaubnis'
p423
a(dp424
S'permission '
p425
I1
stp426
a((lp427
S'sondererlaubnis'
p428
aS'Sondererlaubnis'
p429
a(dp430
S'permission '
p431
I1
sS'clearance '
p432
I1
sS'okay '
p433
I1
stp434
a((lp435
S'feuerbefehi'
p436
aS'Feuerbefehi'
p437
a(dp438
tp439
a((lp440
S'angst'
p441
aS'Angst'
p442
a(dp443
S'feel '
p444
I1
sS'movies '
p445
I1
sS'aww '
p446
I1
sS'afraid '
p447
I890
sS'dangerous '
p448
I1
sS'permission '
p449
I1
sS'matter '
p450
I1
sS'chills '
p451
I1
sS'ok '
p452
I3
sS'allard '
p453
I1
sS'terror '
p454
I11
sS'nervous '
p455
I2
sS'terrify '
p456
I3
sS'fearful '
p457
I2
sS'erection '
p458
I1
sS'feared '
p459
I1
sS'fearing '
p460
I4
sS'terrified '
p461
I41
sS'frightens '
p462
I4
sS'scaring '
p463
I44
sS'embarrassed '
p464
I1
sS'spooked '
p465
I6
sS'worrying '
p466
I3
sS'surprises '
p467
I1
sS'project '
p468
I1
sS'worry, '
p469
I1
sS'dreading '
p470
I1
sS'wrong '
p471
I1
sS'retracted '
p472
I1
sS'relax '
p473
I4
sS'terro '
p474
I1
sS'iast '
p475
I1
sS'desert '
p476
I1
sS'pubes '
p477
I1
sS'worst '
p478
I1
sS'scared '
p479
I734
sS'me '
p480
I2
sS'impervious '
p481
I1
sS'safe '
p482
I1
sS'willie '
p483
I1
sS'sheldon '
p484
I1
sS'outfits '
p485
I1
sS'fright '
p486
I1
sS'chill '
p487
I1
sS'fearless '
p488
I4
sS'yes '
p489
I2
sS'scares '
p490
I15
sS'alarmed '
p491
I1
sS'mind '
p492
I1
sS'bizarre '
p493
I1
sS'many '
p494
I1
sS'scare '
p495
I65
sS'riled '
p496
I1
sS'afraid, '
p497
I1
sS'frightened '
p498
I44
sS'frighten '
p499
I14
sS'freaking '
p500
I5
sS'go '
p501
I2
sS"'s "
p502
I1
sS'sweat '
p503
I1
sS'claire '
p504
I1
sS'feelings '
p505
I1
sS'creeps '
p506
I2
sS'concerned '
p507
I1
sS'anxiety '
p508
I24
sS'anyone '
p509
I1
sS'lutz '
p510
I1
sS'grill '
p511
I1
sS'anxious '
p512
I2
sS'worried '
p513
I40
sS'worries '
p514
I3
sS'boys '
p515
I1
sS'fears '
p516
I6
sS'harmed '
p517
I1
sS'be '
p518
I4
sS'sticking '
p519
I1
sS'easy '
p520
I2
sS'right '
p521
I5
sS'afeared '
p522
I1
sS'much '
p523
I1
sS"'in "
p524
I1
sS'you '
p525
I1
sS'worries, '
p526
I1
sS'cower '
p527
I1
sS'bother '
p528
I1
sS'okay '
p529
I18
sS'beingscared '
p530
I1
sS'frightening '
p531
I8
sS'freaked '
p532
I2
sS'pointing '
p533
I1
sS'psychophobia '
p534
I1
sS'show '
p535
I1
sS'scary '
p536
I31
sS'sced '
p537
I1
sS'shy '
p538
I1
sS'problem '
p539
I1
sS"'t "
p540
I1
sS'of '
p541
I1
sS'heart '
p542
I1
sS'scared, '
p543
I1
sS'scarin '
p544
I1
sS'roger '
p545
I1
sS'worry '
p546
I126
sS'dread '
p547
I6
sS'paula '
p548
I1
sS'concern '
p549
I1
sS'sam '
p550
I1
sS'changed '
p551
I1
sS'calm '
p552
I2
sS'fear '
p553
I525
stp554
a((lp555
S'zugangserlaubnis'
p556
aS'Zugangserlaubnis'
p557
a(dp558
S'permission '
p559
I1
stp560
a((lp561
S'erbitte'
p562
aS'Erbitte'
p563
a(dp564
S'requesting '
p565
I6
sS'request '
p566
I3
sS'permission '
p567
I1
sS'beg '
p568
I3
sS'ask '
p569
I2
sS'solicit '
p570
I1
stp571
a((lp572
S'\\u0395rlaubnis'
p573
aS'\\u0395rlaubnis'
p574
a(dp575
S'permission '
p576
I2
stp577
a((lp578
S'ihnen'
p579
aS'Ihnen'
p580
a(dp581
S'one '
p582
I1
sS'feel '
p583
I2
sS'going '
p584
I4
sS'actions '
p585
I1
sS'y '
p586
I1
sS'knock '
p587
I2
sS'spectacular '
p588
I1
sS'permission '
p589
I1
sS'yo5 '
p590
I1
sS'micah '
p591
I1
sS'knocked '
p592
I1
sS'break '
p593
I1
sS'wow '
p594
I1
sS'em '
p595
I5
sS'today '
p596
I1
sS'either '
p597
I1
sS'manage '
p598
I1
sS'everyone '
p599
I1
sS'it '
p600
I7
sS'inappropriate '
p601
I1
sS'about '
p602
I1
sS"'am "
p603
I1
sS'please '
p604
I2
sS'offer '
p605
I2
sS'whenyou '
p606
I2
sS'help '
p607
I2
sS'all '
p608
I2
sS'our '
p609
I2
sS'fine '
p610
I1
sS'have '
p611
I14
sS'unsolicited '
p612
I1
sS'any '
p613
I3
sS'uncle '
p614
I2
sS'house '
p615
I1
sS'a '
p616
I1
sS'willie '
p617
I1
sS'got '
p618
I2
sS'implying '
p619
I1
sS'theirs '
p620
I5
sS'that '
p621
I1
sS'come '
p622
I1
sS'make '
p623
I2
sS'good '
p624
I1
sS"'em "
p625
I181
sS'their '
p626
I50
sS'him '
p627
I13
sS'doing '
p628
I1
sS'them '
p629
I2367
sS'exactly '
p630
I1
sS'tell '
p631
I1
sS'say '
p632
I3
sS'them, '
p633
I2
sS'shitcomes '
p634
I1
sS'pursuit '
p635
I2
sS'demands '
p636
I1
sS'mister '
p637
I1
sS'such '
p638
I1
sS'empire '
p639
I1
sS'those '
p640
I4
sS'very '
p641
I1
sS'whom '
p642
I3
sS'here '
p643
I4
sS'yourself '
p644
I5
sS'owes '
p645
I1
sS'boys '
p646
I1
sS'. '
p647
I1
sS'be '
p648
I3
sS'recognized '
p649
I1
sS'there '
p650
I3
sS'prepared '
p651
I1
sS'sir '
p652
I1
sS'on '
p653
I1
sS'bride '
p654
I1
sS'you '
p655
I6936
sS'stays '
p656
I1
sS'they '
p657
I131
sS'curse '
p658
I1
sS'themi '
p659
I1
sS'bathtub '
p660
I1
sS'charge '
p661
I1
sS'three '
p662
I1
sS'observation '
p663
I1
sS'us '
p664
I2
sS'give '
p665
I2
sS'parents '
p666
I1
sS'take '
p667
I1
sS'to '
p668
I23
sS'tracy '
p669
I1
sS'ya '
p670
I15
sS'aiutarvi '
p671
I1
sS'gonna '
p672
I2
sS'side '
p673
I1
sS'everybody '
p674
I2
sS'well '
p675
I1
sS"'t "
p676
I1
sS'these '
p677
I7
sS'bed '
p678
I1
sS"'m "
p679
I1
sS'giving '
p680
I1
sS'your '
p681
I108
sS'you, '
p682
I21
sS'call '
p683
I4
sS'neyi '
p684
I1
sS'youa '
p685
I2
sS'taste '
p686
I2
sS'can '
p687
I1
sS'looking '
p688
I1
sS'yours '
p689
I138
sS'nice '
p690
I2
sS'granger '
p691
I2
sS'ahead '
p692
I1
sS'hooper '
p693
I1
sS'people '
p694
I2
sS'aiding '
p695
I1
sS'get '
p696
I7
sS'trust '
p697
I1
sS'need '
p698
I1
sS'english '
p699
I1
sS'haley '
p700
I1
stp701
a((lp702
S'vollmacht'
p703
aS'Vollmacht'
p704
a(dp705
S'warrant '
p706
I2
sS'authority '
p707
I1
sS'attorney '
p708
I2
sS'permission '
p709
I1
sS'authorization '
p710
I1
stp711
a((lp712
S'erlaube'
p713
aS'Erlaube'
p714
a(dp715
S'let '
p716
I4
sS'permission '
p717
I1
sS'won '
p718
I1
sS'permit '
p719
I4
sS'allowing '
p720
I3
sS'allow '
p721
I19
stp722
a((lp723
S'athleten'
p724
aS'Athleten'
p725
a(dp726
S'mathletes '
p727
I1
sS'athletic '
p728
I1
sS'permission '
p729
I1
sS'athlete '
p730
I5
sS'athletics '
p731
I1
sS'athletes '
p732
I11
stp733
a((lp734
S'befugung'
p735
aS'Befugung'
p736
a(dp737
S'permission '
p738
I1
stp739
a((lp740
S'auslaufen'
p741
aS'Auslaufen'
p742
a(dp743
S'sail '
p744
I1
sS'leaking '
p745
I1
sS'permission '
p746
I1
stp747
a((lp748
S'erm\xc3\xa4chtigung'
p749
aS'Erm\xc3\xa4chtigung'
p750
a(dp751
S'warrant '
p752
I2
sS'consent '
p753
I1
sS'permission '
p754
I1
sS'authorization '
p755
I1
stp756
a((lp757
S'sonderlizenz'
p758
aS'Sonderlizenz'
p759
a(dp760
S'permission '
p761
I1
stp762
a((lp763
S'feuerfreigabe'
p764
aS'Feuerfreigabe'
p765
a(dp766
S'permission '
p767
I1
stp768
a((lp769
S'einverst\xc3\xa4ndnis'
p770
aS'Einverst\xc3\xa4ndnis'
p771
a(dp772
S'consent '
p773
I5
sS'agreement '
p774
I4
sS'permission '
p775
I1
sS'comply '
p776
I1
sS'log '
p777
I1
sS'approve '
p778
I1
sS'approval '
p779
I1
stp780
a((lp781
S'schussfreigabe'
p782
aS'Schussfreigabe'
p783
a(dp784
S'permission '
p785
I1
stp786
a((lp787
S'danke'
p788
aS'Danke'
p789
a(dp790
S'one '
p791
I3
sS'definitely '
p792
I2
sS'sweet '
p793
I3
sS'may '
p794
I1
sS'uh '
p795
I2
sS'sole '
p796
I1
sS'fine, '
p797
I1
sS'permission '
p798
I1
sS'cam '
p799
I1
sS'come '
p800
I3
sS'hi '
p801
I4
sS'ok '
p802
I8
sS'greetings '
p803
I1
sS'doctor '
p804
I1
sS'dirtbags '
p805
I1
sS'soon '
p806
I1
sS'accent '
p807
I1
sS'wow '
p808
I1
sS'charity '
p809
I1
sS'good '
p810
I33
sS'course '
p811
I3
sS'hanks '
p812
I2
sS'monopoly '
p813
I1
sS'excited '
p814
I1
sS'stan '
p815
I2
sS'dewey '
p816
I1
sS'something '
p817
I1
sS'really '
p818
I2
sS'absolutely '
p819
I1
sS'trace '
p820
I1
sS'dennis '
p821
I2
sS'leonard '
p822
I2
sS'hvala '
p823
I2
sS'adam '
p824
I1
sS'pleasure '
p825
I3
sS'listen '
p826
I1
sS'248 '
p827
I1
sS'tanks '
p828
I1
sS'thank '
p829
I5205
sS'awthanks, '
p830
I1
sS'owen '
p831
I1
sS'no '
p832
I14
sS'welcome '
p833
I4
sS'hannah '
p834
I1
sS'it '
p835
I4
sS'gloria '
p836
I1
sS'erin '
p837
I1
sS'great '
p838
I8
sS'we '
p839
I4
sS'tomorrow '
p840
I2
sS'please '
p841
I8
sS'( '
p842
I3
sS'sorry '
p843
I1
sS'pass '
p844
I3
sS'thank- '
p845
I1
sS'tough '
p846
I1
sS'let '
p847
I2
sS'anything '
p848
I1
sS'did '
p849
I1
sS'- '
p850
I16
sS'navid '
p851
I1
sS'all '
p852
I2
sS'thanyok '
p853
I1
sS'confessions '
p854
I1
sS'doll '
p855
I1
sS'fine '
p856
I7
sS'vote '
p857
I1
sS'swinging '
p858
I1
sS'guardsman '
p859
I1
sS'ks '
p860
I1
sS'sky '
p861
I1
sS'ideawhat '
p862
I1
sS'pining '
p863
I1
sS'done '
p864
I4
sS'vasectomy '
p865
I1
sS'else '
p866
I2
sS'auggie '
p867
I1
sS'vacation '
p868
I1
sS'direction '
p869
I1
sS'bye '
p870
I2
sS'stitch '
p871
I1
sS"'ll "
p872
I4
sS'haircut '
p873
I1
sS'mott '
p874
I1
sS'car '
p875
I1
sS'weird '
p876
I1
sS'mm '
p877
I1
sS'vivian '
p878
I1
sS'mention '
p879
I1
sS'that '
p880
I6
sS'dopes '
p881
I1
sS'barnard '
p882
I1
sS'yes '
p883
I16
sS'man '
p884
I6
sS'date '
p885
I1
sS'politely '
p886
I1
sS'bless '
p887
I1
sS'start '
p888
I1
sS'turntable '
p889
I1
sS'time '
p890
I1
sS'mind '
p891
I1
sS'haunt '
p892
I1
sS'2 '
p893
I1
sS'he '
p894
I1
sS'mommy '
p895
I1
sS'thanx '
p896
I1
sS'anyway '
p897
I1
sS'shook '
p898
I1
sS'brilliant '
p899
I1
sS'openlng '
p900
I1
sS'drink '
p901
I2
sS'2010 '
p902
I1
sS'somebody '
p903
I1
sS'trunk '
p904
I1
sS'highness '
p905
I1
sS'volyn '
p906
I1
sS'five '
p907
I1
sS'hey, '
p908
I1
sS'applause '
p909
I1
sS'phone '
p910
I1
sS'merci '
p911
I3
sS'thanks '
p912
I3703
sS'leather '
p913
I1
sS'thankyou '
p914
I2
sS'inviting '
p915
I1
sS"'thank "
p916
I1
sS'pleased '
p917
I1
sS'enjoy '
p918
I1
sS'assistant '
p919
I1
sS'purple '
p920
I1
sS'mint '
p921
I1
sS'dear '
p922
I1
sS'respect '
p923
I2
sS'liked '
p924
I1
sS'um '
p925
I3
sS'swap '
p926
I1
sS'trlnity '
p927
I1
sS'ta '
p928
I1
sS'way '
p929
I1
sS'thanking '
p930
I1
sS'obliged '
p931
I2
sS'but '
p932
I2
sS'gracias '
p933
I15
sS'anyone '
p934
I1
sS'too '
p935
I4
sS'beer '
p936
I2
sS'for '
p937
I1
sS'agree '
p938
I1
sS'shutter '
p939
I1
sS'yeah, '
p940
I1
sS'fun '
p941
I2
sS'peculiar '
p942
I1
sS'honey '
p943
I1
sS'republican '
p944
I1
sS'appreciate '
p945
I24
sS'god, '
p946
I1
sS'ruin '
p947
I1
sS'god '
p948
I1
sS'kiitos '
p949
I2
sS'lemon '
p950
I1
sS'cheers '
p951
I35
sS'thks '
p952
I1
sS'clever '
p953
I1
sS'lovely '
p954
I1
sS'hey '
p955
I11
sS'minute '
p956
I1
sS'sure '
p957
I7
sS'baby '
p958
I1
sS'manatee '
p959
I1
sS'right '
p960
I14
sS'bella '
p961
I1
sS'dr. '
p962
I1
sS'laughs '
p963
I1
sS'watch '
p964
I1
sS'so '
p965
I4
sS'sir '
p966
I2
sS'working '
p967
I1
sS'like '
p968
I2
sS'jay '
p969
I1
sS'administration '
p970
I1
sS'on '
p971
I2
sS'jewish '
p972
I1
sS'ooh '
p973
I1
sS'you '
p974
I37
sS'they '
p975
I1
sS'mac '
p976
I1
sS'whatever '
p977
I1
sS'what '
p978
I3
sS'\\u00bc\\u00fa\\u00c3\\u00a8 '
p979
I1
sS'arsenio '
p980
I1
sS'kimball '
p981
I1
sS'anks '
p982
I2
sS'mwah '
p983
I1
sS'okay '
p984
I29
sS'are '
p985
I1
sS'grandpa '
p986
I1
sS'titan '
p987
I1
sS'shit '
p988
I2
sS'proud '
p989
I1
sS'eternity '
p990
I1
sS'[ '
p991
I5
sS'wait '
p992
I5
sS'uh- '
p993
I1
sS'take '
p994
I2
sS'incredibly '
p995
I1
sS'will '
p996
I2
sS'congressman '
p997
I1
sS'peter '
p998
I2
sS'ya '
p999
I1
sS'choose '
p1000
I1
sS'app '
p1001
I1
sS'thk '
p1002
I1
sS'raimunda '
p1003
I1
sS'boat '
p1004
I1
sS'enters '
p1005
I1
sS'officially '
p1006
I1
sS'kind '
p1007
I2
sS'spoiler '
p1008
I1
sS'designing '
p1009
I1
sS'gratitude '
p1010
I9
sS'would '
p1011
I1
sS'thanks, '
p1012
I28
sS'affection '
p1013
I1
sS'personally '
p1014
I1
sS'juice '
p1015
I1
sS'well '
p1016
I2
sS'aw '
p1017
I2
sS'eddie '
p1018
I1
sS'keep '
p1019
I1
sS'ahem '
p1020
I1
sS'allah '
p1021
I1
sS'do '
p1022
I2
sS'te\\u015fekk\xc3\xbcrler '
p1023
I1
sS'lobby '
p1024
I1
sS'teamwork '
p1025
I1
sS'excellent '
p1026
I2
sS'understand '
p1027
I1
sS'how '
p1028
I2
sS'dietrich '
p1029
I1
sS'coach '
p1030
I1
sS'andy '
p1031
I1
sS'manners '
p1032
I1
sS'congratulations '
p1033
I2
sS'prefer '
p1034
I1
sS'embarrassment '
p1035
I1
sS'problem '
p1036
I1
sS'mr '
p1037
I1
sS'not '
p1038
I2
sS'mate '
p1039
I1
sS'very '
p1040
I2
sS'" '
p1041
I1
sS'owe '
p1042
I1
sS'feder '
p1043
I1
sS'because, '
p1044
I1
sS'french '
p1045
I3
sS'oh '
p1046
I15
sS'salt '
p1047
I1
sS'cause '
p1048
I3
sS'usage '
p1049
I1
sS'nice '
p1050
I4
sS'video '
p1051
I1
sS'see '
p1052
I2
sS'i '
p1053
I56
sS'* '
p1054
I2
sS'? '
p1055
I1
sS'excuse '
p1056
I2
sS'here '
p1057
I3
sS'babe '
p1058
I1
sS'cigarettes '
p1059
I1
sS'cobain '
p1060
I1
sS'sufficient '
p1061
I1
sS'yo '
p1062
I1
sS'knope '
p1063
I1
sS'need '
p1064
I2
sS'chicks '
p1065
I1
sS'grateful '
p1066
I4
sS'cool '
p1067
I1
sS'back '
p1068
I5
sS'ends '
p1069
I1
sS'danke '
p1070
I4
sS'waitrose '
p1071
I1
sS'yeah '
p1072
I15
sS'security '
p1073
I1
stp1074
a((lp1075
S'gestatten'
p1076
aS'Gestatten'
p1077
a(dp1078
S'let '
p1079
I1
sS'excuse '
p1080
I2
sS'concerned '
p1081
I1
sS'mywife '
p1082
I1
sS'may '
p1083
I3
sS'asbestos '
p1084
I1
sS'permission '
p1085
I1
sS'might '
p1086
I3
sS'meet '
p1087
I2
sS'permit '
p1088
I1
sS'indulge '
p1089
I1
sS'allow '
p1090
I20
sS'perhaps '
p1091
I1
stp1092
a.