(lp0
((lp1
S'm\xc3\xb6glich'
p2
aS'M\xc3\xb6glich'
p3
a(dp4
S'one '
p5
I2
sS'sweet '
p6
I1
sS'possible, '
p7
I1
sS'better '
p8
I1
sS'nervous '
p9
I1
sS'memories '
p10
I1
sS'cereal '
p11
I1
sS'forbid '
p12
I1
sS'posible '
p13
I1
sS'absolutely '
p14
I1
sS'admit '
p15
I1
sS'kn '
p16
I1
sS'lot '
p17
I1
sS'allowed '
p18
I1
sS'breathlessly '
p19
I1
sS'mom '
p20
I1
sS'should '
p21
I1
sS'bet '
p22
I1
sS'deserve '
p23
I1
sS'possibility '
p24
I5
sS'likely '
p25
I3
sS'options '
p26
I1
sS'possible '
p27
I647
sS'master '
p28
I1
sS'all, '
p29
I1
sS'be '
p30
I19
sS'could '
p31
I26
sS'asap '
p32
I11
sS'true '
p33
I1
sS'option '
p34
I8
sS'theory '
p35
I1
sS'suppose '
p36
I1
sS'how '
p37
I2
sS'againhow '
p38
I1
sS'mother '
p39
I1
sS'sustainable '
p40
I1
sS'deliver '
p41
I1
sS'liable '
p42
I1
sS'believe '
p43
I3
sS'try '
p44
I2
sS'chicken '
p45
I1
sS'mogu\\u0436e '
p46
I2
sS'can '
p47
I87
sS'alive '
p48
I2
sS'poss\xc3\xadvel '
p49
I1
sS'graiman '
p50
I1
sS'oh '
p51
I1
sS'possibly '
p52
I26
sS'might '
p53
I9
sS'impossible '
p54
I20
sS'possibhe '
p55
I1
sS'say '
p56
I1
sS'p. '
p57
I6
sS'chance '
p58
I4
sS'able '
p59
I33
sS'tripped '
p60
I2
sS'maybe '
p61
I23
sS'wrong '
p62
I1
sS'paper '
p63
I1
sS'perhaps '
p64
I1
sS'argument '
p65
I1
sS'time '
p66
I1
sS'best '
p67
I2
sS'later '
p68
I1
sS'happening '
p69
I2
sS'may '
p70
I1
sS'happen '
p71
I12
sS'must '
p72
I1
sS'fire, '
p73
I1
sS'vendors '
p74
I1
sS'dad '
p75
I1
sS'probably '
p76
I3
sS'way '
p77
I13
sS'weakness '
p78
I1
sS'conroy '
p79
I1
stp80
a((lp81
S'unm\xc3\xb6glich'
p82
aS'Unm\xc3\xb6glich'
p83
a(dp84
S'outrageous '
p85
I1
sS'lemon '
p86
I1
sS'no '
p87
I32
sS'innocent '
p88
I1
sS'coming '
p89
I1
sS'cannot '
p90
I7
sS'ended '
p91
I1
sS'dehydrated '
p92
I1
sS"'t "
p93
I24
sS'sake '
p94
I1
sS'can '
p95
I1
sS'possible '
p96
I49
sS'be '
p97
I1
sS'could '
p98
I1
sS'impossibility '
p99
I5
sS'absolutely '
p100
I1
sS'crazy '
p101
I1
sS'limit '
p102
I1
sS'unsustainable '
p103
I1
sS'enzyme '
p104
I1
sS'not '
p105
I1
sS'question '
p106
I4
sS'impossibly '
p107
I1
sS'hard '
p108
I1
sS'couldn '
p109
I1
sS'impossible '
p110
I392
sS'impossible, '
p111
I1
sS'disaster '
p112
I1
sS'exploit '
p113
I1
sS'unacceptabhe '
p114
I1
sS'chance '
p115
I1
sS'tear '
p116
I1
sS'possibly '
p117
I23
sS'nielsen '
p118
I1
sS'terrible '
p119
I1
sS'awful '
p120
I1
sS'lmpossible '
p121
I2
sS'wait '
p122
I1
sS'put '
p123
I2
sS'unable '
p124
I2
sS'stressed '
p125
I1
sS'way '
p126
I15
stp127
a((lp128
S'm\xc3\xb6gliche'
p129
aS'M\xc3\xb6gliche'
p130
a(dp131
S'topics '
p132
I1
sS'potential '
p133
I10
sS'wanting '
p134
I1
sS'going '
p135
I1
sS'intercept '
p136
I1
sS'kinds '
p137
I9
sS'possible '
p138
I39
sS'radios '
p139
I1
sS'whatever '
p140
I2
sS'maybes '
p141
I1
sS'stuff '
p142
I2
sS'name '
p143
I4
sS'globe '
p144
I1
sS'lupus '
p145
I1
sS'sorts '
p146
I1
sS'liar '
p147
I1
sS'possibles '
p148
I1
sS'reasonable '
p149
I2
sS'anything '
p150
I6
sS'things '
p151
I4
sS'scrap '
p152
I1
sS'any '
p153
I1
stp154
a((lp155
S'm\xc3\xb6glichen'
p156
aS'M\xc3\xb6glichen'
p157
a(dp158
S'sizes '
p159
I1
sS'blues '
p160
I1
sS'potential '
p161
I11
sS'kinds '
p162
I15
sS'possible '
p163
I32
sS'opportunity '
p164
I1
sS'issues '
p165
I1
sS'possibility '
p166
I2
sS'exotic '
p167
I2
sS'kind '
p168
I1
sS'sorts '
p169
I13
sS'confine '
p170
I1
sS'any '
p171
I1
stp172
a((lp173
S'm\xc3\xb6glicherweise'
p174
aS'M\xc3\xb6glicherweise'
p175
a(dp176
S'definitely '
p177
I1
sS'may '
p178
I37
sS'shove '
p179
I1
sS'guess '
p180
I1
sS'or '
p181
I1
sS'fortunately '
p182
I2
sS'possibility '
p183
I2
sS'neil '
p184
I1
sS'possible '
p185
I13
sS'could '
p186
I3
sS'owner '
p187
I1
sS'department '
p188
I1
sS'prob '
p189
I1
sS'maybe '
p190
I60
sS'tell '
p191
I1
sS'might '
p192
I44
sS'potentially '
p193
I12
sS'red '
p194
I1
sS'consider '
p195
I1
sS'chance '
p196
I2
sS'possibly '
p197
I64
sS'we '
p198
I1
sS'perhaps '
p199
I15
sS'takumi '
p200
I2
sS'iron '
p201
I1
sS'cool '
p202
I1
sS'probably '
p203
I60
stp204
a((lp205
S'sein'
p206
aS'Sein'
p207
a(dp208
S'one '
p209
I4
sS'stay '
p210
I8
sS'the '
p211
I48
sS'around '
p212
I2
sS'rest '
p213
I1
sS'mom '
p214
I1
sS'man '
p215
I8
sS'possible '
p216
I10
sS'host '
p217
I1
sS'work '
p218
I1
sS'then '
p219
I1
sS'detected '
p220
I1
sS'with '
p221
I5
sS'up '
p222
I5
sS'b '
p223
I1
sS'myself '
p224
I2
sS'it '
p225
I30
sS'hmm '
p226
I1
sS'about '
p227
I5
sS'muslims '
p228
I1
sS'anything '
p229
I1
sS'nonsense '
p230
I1
sS'guys '
p231
I1
sS'hate '
p232
I1
sS'jap '
p233
I1
sS'have '
p234
I44
sS'them '
p235
I1
sS'twice '
p236
I1
sS'by '
p237
I15
sS'seem '
p238
I2
sS'else '
p239
I4
sS'me '
p240
I3
sS'difficult '
p241
I1
sS'her '
p242
I4
sS'sein '
p243
I1
sS'end '
p244
I1
sS'as '
p245
I1
sS'should '
p246
I1
sS'become '
p247
I4
sS'nario '
p248
I1
sS'could '
p249
I1
sS'that '
p250
I16
sS'necessary '
p251
I9
sS'good '
p252
I1
sS'carry '
p253
I1
sS"'ll "
p254
I1
sS'their '
p255
I33
sS'is '
p256
I7
sS'time '
p257
I3
sS'mind '
p258
I1
sS'him '
p259
I12
sS'might '
p260
I2
sS'seriously '
p261
I1
sS'his '
p262
I3729
sS'perhaps '
p263
I1
sS'free '
p264
I1
sS'enjoy '
p265
I2
sS'go '
p266
I8
sS'happening '
p267
I1
sS'out '
p268
I3
sS"'s "
p269
I5
sS'happen '
p270
I3
sS'over '
p271
I1
sS'play '
p272
I2
sS'quite '
p273
I1
sS'here '
p274
I8
sS'fellow '
p275
I1
sS'always '
p276
I1
sS'but '
p277
I1
sS'too '
p278
I3
sS'live '
p279
I4
sS'there '
p280
I1
sS'for '
p281
I8
sS'true '
p282
I1
sS'guess '
p283
I3
sS'minutes '
p284
I2
sS'h '
p285
I1
sS'last '
p286
I2
sS'long '
p287
I1
sS'suppose '
p288
I1
sS'. '
p289
I7
sS'be '
p290
I12106
sS'now '
p291
I2
sS'baby '
p292
I2
sS'right '
p293
I1
sS'gosh '
p294
I1
sS'being '
p295
I524
sS'like '
p296
I2
sS'on '
p297
I1
sS'destination '
p298
I2
sS'you '
p299
I8
sS'off '
p300
I10
sS'serious '
p301
I1
sS'they '
p302
I1
sS'church '
p303
I1
sS'what '
p304
I2
sS'was '
p305
I1
sS'friend '
p306
I1
sS'this '
p307
I21
sS'yee- '
p308
I1
sS'are '
p309
I2
sS'us '
p310
I6
sS'later '
p311
I1
sS'miss '
p312
I1
sS'jared '
p313
I1
sS'he '
p314
I40
sS'life '
p315
I3
sS'to '
p316
I14
sS'so '
p317
I4
sS'side '
p318
I1
sS'guy '
p319
I2
sS'bet '
p320
I1
sS'comes '
p321
I1
sS'maureen '
p322
I1
sS'thunder '
p323
I1
sS'possibility '
p324
I1
sS'though '
p325
I1
sS', '
p326
I1
sS'anymore '
p327
I1
sS'do '
p328
I1
sS'dad '
p329
I1
sS'your '
p330
I38
sS'bad '
p331
I1
sS'future '
p332
I2
sS'must '
p333
I2
sS'assumption '
p334
I1
sS'a '
p335
I5
sS'can '
p336
I1
sS'again '
p337
I1
sS'of '
p338
I1
sS'been '
p339
I66
sS'gary '
p340
I1
sS'? '
p341
I1
sS'shall '
p342
I1
sS'way '
p343
I8
sS'hon '
p344
I1
sS'yourself '
p345
I1
sS'gone '
p346
I4
sS'alone '
p347
I3
sS'its '
p348
I54
sS'killed '
p349
I1
sS'interfere '
p350
I1
sS'something '
p351
I8
stp352
a((lp353
S'm\xc3\xb6glicher'
p354
aS'M\xc3\xb6glicher'
p355
a(dp356
S'likely '
p357
I1
sS'potential '
p358
I6
sS'possibles '
p359
I1
sS'possible '
p360
I10
stp361
a((lp362
S'geht'
p363
aS'Geht'
p364
a(dp365
S'feel '
p366
I36
sS'going '
p367
I124
sS'better '
p368
I2
sS'drives '
p369
I1
sS'okay '
p370
I7
sS'attack '
p371
I1
sS'am '
p372
I29
sS'no '
p373
I7
sS'would '
p374
I4
sS'hi '
p375
I7
sS'ok '
p376
I13
sS'party '
p377
I1
sS"'ii "
p378
I1
sS'bullshit '
p379
I1
sS'was '
p380
I13
sS'hanging '
p381
I1
sS'stay '
p382
I3
sS'busting '
p383
I1
sS'surround '
p384
I1
sS'disgusting '
p385
I1
sS'stake '
p386
I1
sS'mmm- '
p387
I1
sS'doing, '
p388
I2
sS'possible '
p389
I9
sS'step '
p390
I2
sS'work '
p391
I6
sS'wasn '
p392
I1
sS'gotta '
p393
I1
sS'really '
p394
I3
sS'up '
p395
I49
sS'officiant '
p396
I1
sS'won '
p397
I16
sS'archie '
p398
I1
sS'muerte '
p399
I1
sS'truth '
p400
I1
sS'manage '
p401
I1
sS'nothin '
p402
I1
sS'question '
p403
I2
sS'isn '
p404
I124
sS'handle '
p405
I1
sS'everyone '
p406
I2
sS'bad '
p407
I1
sS'happened '
p408
I5
sS'al '
p409
I2
sS'runs '
p410
I2
sS'hmm '
p411
I2
sS'about '
p412
I26
sS'pursuing '
p413
I1
sS'sleep '
p414
I1
sS'opens '
p415
I3
sS'please '
p416
I5
sS'fares '
p417
I2
sS'pass '
p418
I1
sS'** '
p419
I1
sS"'ve "
p420
I2
sS'hardison '
p421
I1
sS'turns '
p422
I1
sS'we '
p423
I4
sS'did '
p424
I2
sS'- '
p425
I4
sS'all '
p426
I39
sS'time '
p427
I2
sS'fine '
p428
I16
sS'gong '
p429
I1
sS'boils '
p430
I1
sS'ain '
p431
I22
sS'bets '
p432
I7
sS'moves '
p433
I3
sS'inwards '
p434
I1
sS"' "
p435
I1
sS'fire '
p436
I2
sS'getting '
p437
I2
sS'formal '
p438
I1
sS'got '
p439
I28
sS'sheldon '
p440
I1
sS'has '
p441
I26
sS'auntie '
p442
I1
sS'missed '
p443
I1
sS'leaving '
p444
I11
sS"'ll "
p445
I36
sS'kyouichi '
p446
I1
sS'having '
p447
I4
sS'running '
p448
I4
sS'harder '
p449
I1
sS'unlock '
p450
I1
sS'should '
p451
I5
sS'seems '
p452
I1
sS'revolves '
p453
I2
sS'keeps '
p454
I1
sS'just '
p455
I5
sS'y '
p456
I3
sS'heading '
p457
I1
sS'game '
p458
I1
sS'youtube '
p459
I1
sS'starts '
p460
I2
sS'could '
p461
I14
sS'badger '
p462
I1
sS'come '
p463
I24
sS'good '
p464
I2
sS'wants '
p465
I1
sS'goes '
p466
I435
sS'mission '
p467
I1
sS'if '
p468
I1
sS'leave '
p469
I49
sS'is '
p470
I1287
sS'don\\u2019 '
p471
I1
sS'mind '
p472
I3
sS'doing '
p473
I180
sS'rightey- '
p474
I1
sS'wellbeing '
p475
I1
sS'head '
p476
I2
sS'mcnally '
p477
I1
sS'goin '
p478
I1
sS'doin '
p479
I36
sS'role- '
p480
I1
sS'deal '
p481
I1
sS'hello '
p482
I2
sS'gets '
p483
I26
sS'everything '
p484
I2
sS'works '
p485
I25
sS'went '
p486
I3
sS'light '
p487
I1
sS'puked '
p488
I1
sS'his '
p489
I1
sS'goe '
p490
I1
sS'mimimimimi '
p491
I1
sS'courtesy '
p492
I1
sS'go '
p493
I515
sS'happening '
p494
I10
sS'out '
p495
I8
sS"'s "
p496
I3247
sS'um '
p497
I1
sS'stand '
p498
I4
sS'play '
p499
I3
sS'way '
p500
I13
sS'thrivin '
p501
I1
sS'love '
p502
I1
sS'predates '
p503
I1
sS'balloon- '
p504
I1
sS'too '
p505
I1
sS'hope '
p506
I1
sS'makes '
p507
I2
sS'walks '
p508
I20
sS'passes '
p509
I1
sS'have '
p510
I15
sS'done '
p511
I2
sS'honey '
p512
I1
sS'fast '
p513
I1
sS'couldn '
p514
I3
sS'jefe '
p515
I1
sS'non '
p516
I2
sS'proceed '
p517
I1
sS'cuts '
p518
I1
sS'be '
p519
I2
sS'up, '
p520
I2
sS'now '
p521
I3
sS'hey '
p522
I4
sS'buddy '
p523
I1
sS'sure '
p524
I1
sS'worked '
p525
I2
sS'right '
p526
I8
sS'place '
p527
I1
sS'sup '
p528
I2
sS'luc '
p529
I1
sS'choice '
p530
I1
sS'watch '
p531
I2
sS'why '
p532
I1
sS'insist '
p533
I1
sS'much '
p534
I1
sS'sir '
p535
I1
sS'sheriff '
p536
I1
sS'takes '
p537
I3
sS'doesn '
p538
I20
sS'on '
p539
I1
sS'steam '
p540
I1
sS'you '
p541
I72
sS'don '
p542
I15
sS'peacefuljudge '
p543
I1
sS'feels '
p544
I4
sS'uses '
p545
I1
sS'what '
p546
I6
sS'steve '
p547
I1
sS'honk '
p548
I1
sS'feeling '
p549
I26
sS'djaq '
p550
I1
sS'dena '
p551
I2
sS'facts '
p552
I1
sS'scattered '
p553
I1
sS'are '
p554
I1126
sS'attend '
p555
I1
sS'feelin '
p556
I2
sS'here '
p557
I1
sS'dog '
p558
I1
sS'kicks '
p559
I1
sS'[ '
p560
I1
sS'care '
p561
I3
sS'nothing '
p562
I1
sS'take '
p563
I15
sS'spirits '
p564
I1
sS'will '
p565
I35
sS'is- '
p566
I1
sS'ya '
p567
I1
sS'feei '
p568
I1
sS'rigsby '
p569
I1
sS'so- '
p570
I2
sS'comes '
p571
I55
sS'slow '
p572
I1
sS'coming '
p573
I2
sS'check '
p574
I1
sS'none '
p575
I28
sS'water '
p576
I1
sS'youguys '
p577
I1
sS'happens '
p578
I10
sS'roger '
p579
I2
sS'problem '
p580
I1
sS'point '
p581
I1
sS'ls '
p582
I6
sS', '
p583
I31
sS'bread '
p584
I1
sS'do '
p585
I107
sS"'m "
p586
I682
sS'dad '
p587
I1
sS'leads '
p588
I1
sS'bulldozers '
p589
I1
sS'glrl '
p590
I1
sS"'re "
p591
I264
sS'how '
p592
I9
sS"'up "
p593
I2
sS'steps '
p594
I3
sS'passed '
p595
I1
sS'aldo '
p596
I1
sS's '
p597
I15
sS'disperse '
p598
I1
sS'not '
p599
I1
sS'does '
p600
I56
sS'involves '
p601
I1
sS'walk '
p602
I13
sS'can '
p603
I240
sS'move '
p604
I10
sS'oh '
p605
I1
sS'yours '
p606
I1
sS'moving '
p607
I2
sS'impossible '
p608
I3
sS'dals '
p609
I1
sS'week '
p610
I1
sS'whassup '
p611
I2
sS'see '
p612
I3
sS'concerns '
p613
I7
sS'i '
p614
I5
sS'tab '
p615
I2
sS'vais '
p616
I1
sS'cover '
p617
I1
sS'concern '
p618
I4
sS'drill '
p619
I1
sS'excuse '
p620
I1
sS'leaves '
p621
I33
sS'off '
p622
I1
sS'get '
p623
I104
sS'staying '
p624
I1
sS'panda '
p625
I1
sS'stray '
p626
I1
sS'risin '
p627
I1
sS'cool '
p628
I3
sS'calmed '
p629
I1
sS'hasn '
p630
I6
sS'yeah '
p631
I5
stp632
a((lp633
S'vielleicht'
p634
aS'Vielleicht'
p635
a(dp636
S'one '
p637
I1
sS'may '
p638
I703
sS'uh '
p639
I1
sS'am '
p640
I1
sS'richard '
p641
I1
sS'no '
p642
I8
sS'ever '
p643
I1
sS'poderia '
p644
I1
sS'would '
p645
I2
sS'ok '
p646
I1
sS'um '
p647
I1
sS'mom '
p648
I2
sS'god '
p649
I2
sS't\xc3\xa4m\xc3\xa4 '
p650
I1
sS'sleepover '
p651
I1
sS'did '
p652
I1
sS'possible '
p653
I7
sS'it\\u2019 '
p654
I1
sS'then '
p655
I2
sS'wonder '
p656
I1
sS'true '
p657
I1
sS'if '
p658
I51
sS'turn '
p659
I1
sS'listen '
p660
I1
sS'try '
p661
I1
sS'shots '
p662
I1
sS'hope '
p663
I1
sS'martini '
p664
I1
sS'everyone '
p665
I1
sS'thinking '
p666
I3
sS'it '
p667
I20
sS'about '
p668
I2
sS'beep '
p669
I1
sS'\\u0442\\u0435\\u0431\\u044f '
p670
I1
sS'( '
p671
I1
sS'chance '
p672
I7
sS'mm- '
p673
I1
sS'weil '
p674
I1
sS'let '
p675
I4
sS'thoseout '
p676
I1
sS'we '
p677
I4
sS'- '
p678
I15
sS'all '
p679
I1
sS'guess '
p680
I4
sS'probably '
p681
I189
sS'any '
p682
I2
sS'me '
p683
I1
sS'and '
p684
I4
sS'course '
p685
I1
sS'likely '
p686
I1
sS'should '
p687
I3
sS'or '
p688
I4
sS'maybe, '
p689
I5
sS'just '
p690
I6
sS'because '
p691
I1
sS'could '
p692
I65
sS'that '
p693
I8
sS'yes '
p694
I4
sS'good '
p695
I1
sS'lies '
p696
I1
sS'wait '
p697
I1
sS'start '
p698
I1
sS'is '
p699
I2
sS'mind '
p700
I11
sS'she '
p701
I9
sS'even '
p702
I6
sS'perhaps, '
p703
I1
sS'might '
p704
I994
sS'think '
p705
I1
sS'say '
p706
I3
sS'suosiollisella '
p707
I1
sS'bowl '
p708
I1
sS'maybe '
p709
I6386
sS'perhaps '
p710
I720
sS'such '
p711
I5
sS'happen '
p712
I4
sS'must '
p713
I2
sS'starting '
p714
I1
sS'quite '
p715
I2
sS'delicate '
p716
I1
sS'but '
p717
I3
sS'now '
p718
I1
sS'whwhat '
p719
I1
sS'for '
p720
I2
sS'wanna '
p721
I1
sS'have '
p722
I8
sS'know '
p723
I2
sS'i '
p724
I70
sS'be '
p725
I14
sS'there '
p726
I5
sS'hey '
p727
I3
sS'suppose '
p728
I2
sS'right '
p729
I1
sS'encores '
p730
I1
sS'batman '
p731
I1
sS'why '
p732
I5
sS'so '
p733
I7
sS'ah '
p734
I2
sS'employees '
p735
I1
sS'sopranos '
p736
I1
sS'like '
p737
I17
sS'jay '
p738
I1
sS'relays '
p739
I1
sS'you '
p740
I14
sS'don '
p741
I2
sS'they '
p742
I4
sS'what '
p743
I13
sS'someone '
p744
I1
sS'hopefully '
p745
I5
sS'possibly '
p746
I19
sS'okay '
p747
I3
sS'except '
p748
I1
sS'decent '
p749
I1
sS'later '
p750
I1
sS'perchance '
p751
I1
sS'probable '
p752
I1
sS'andrea '
p753
I1
sS'he '
p754
I5
sS'teaches '
p755
I1
sS'who '
p756
I1
sS'maby '
p757
I1
sS'wondering '
p758
I1
sS'eventually '
p759
I13
sS'sister '
p760
I1
sS"'d "
p761
I1
sS'bet '
p762
I1
sS'kind '
p763
I1
sS'bret '
p764
I1
sS'well, '
p765
I1
sS'well '
p766
I14
sS'crocker '
p767
I1
sS'wondered '
p768
I3
sS'look '
p769
I1
sS'heart '
p770
I1
sS'how '
p771
I10
sS'jesus '
p772
I1
sS'some '
p773
I6
sS'crusoe '
p774
I1
sS'not '
p775
I1
sS'a '
p776
I3
sS'maybes '
p777
I2
sS'puts '
p778
I1
sS'an '
p779
I1
sS'can '
p780
I2
sS'oh '
p781
I8
sS'tell '
p782
I1
sS'see '
p783
I3
sS'my '
p784
I2
sS'\\u043c\\u0438\\u043b\\u044b\\u0439 '
p785
I1
sS'also '
p786
I1
sS'unless '
p787
I1
sS'hug '
p788
I1
sS'n '
p789
I1
sS'fifteen '
p790
I1
sS'yeah '
p791
I9
sS'do '
p792
I3
sS'something '
p793
I5
stp794
a((lp795
S'm\xc3\xb6glichst'
p796
aS'M\xc3\xb6glichst'
p797
a(dp798
S'coax '
p799
I1
sS'possible '
p800
I5
sS'fewer '
p801
I1
sS'asap '
p802
I1
sS'as '
p803
I11
sS'right '
p804
I1
sS'preferably '
p805
I1
sS'maximum '
p806
I1
sS'try '
p807
I1
stp808
a((lp809
S'denkbar'
p810
aS'Denkbar'
p811
a(dp812
S'maybe '
p813
I2
sS'possible '
p814
I5
sS'pursuits '
p815
I1
sS'\xc3\xadnausp\xc3\xadc\xc3\xadous '
p816
I1
sS'inconceivable '
p817
I1
sS'conceivable '
p818
I2
stp819
a((lp820
S'm\xc3\xb6giich'
p821
aS'M\xc3\xb6giich'
p822
a(dp823
tp824
a((lp825
S'akzeptabel'
p826
aS'Akzeptabel'
p827
a(dp828
S'possible '
p829
I4
sS'indefensibly '
p830
I1
sS'acceptable '
p831
I12
sS'unacceptable '
p832
I9
sS'alright '
p833
I1
sS'agreeable '
p834
I1
sS'enough '
p835
I1
sS'call '
p836
I1
stp837
a((lp838
S'schnellstm\xc3\xb6glich'
p839
aS'Schnellstm\xc3\xb6glich'
p840
a(dp841
S'possible '
p842
I3
sS'asap '
p843
I4
sS'although '
p844
I1
sS'soon '
p845
I4
sS'fastest '
p846
I1
sS'fast- '
p847
I2
stp848
a((lp849
S'k\xc3\xb6nnen'
p850
aS'K\xc3\xb6nnen'
p851
a(dp852
S"'m "
p853
I1
sS'reporter '
p854
I1
sS'may '
p855
I49
sS'spells '
p856
I1
sS'dad, '
p857
I1
sS'what '
p858
I1
sS'voi '
p859
I1
sS'would '
p860
I16
sS"'ii "
p861
I1
sS'cannot '
p862
I175
sS'better '
p863
I1
sS'before '
p864
I1
sS'did '
p865
I3
sS'possible '
p866
I3
sS'then '
p867
I1
sS'gotta '
p868
I3
sS'hell '
p869
I1
sS'haven '
p870
I1
sS'ready '
p871
I6
sS'if '
p872
I9
sS'am '
p873
I1
sS'skill '
p874
I7
sS'avoiding '
p875
I1
sS'he/ '
p876
I2
sS'it '
p877
I1
sS'we '
p878
I1
sS'please '
p879
I2
sS'god '
p880
I1
sS'chance '
p881
I5
sS"'ve "
p882
I14
sS'let '
p883
I8
sS'anything '
p884
I1
sS'help '
p885
I1
sS'cant '
p886
I3
sS'all '
p887
I1
sS'keeps '
p888
I1
sS'consequences '
p889
I1
sS"'re "
p890
I97
sS'them '
p891
I1
sS'along '
p892
I1
sS'any '
p893
I1
sS'done '
p894
I1
sS'me '
p895
I1
sS'safe '
p896
I1
sS'got '
p897
I4
sS"'ll "
p898
I48
sS'as '
p899
I1
sS'should '
p900
I14
sS'just '
p901
I1
sS'at '
p902
I1
sS'could '
p903
I564
sS'stake '
p904
I1
sS'come '
p905
I3
sS'make '
p906
I1
sS'leave '
p907
I1
sS'is '
p908
I12
sS'mind '
p909
I2
sS'unpleasant '
p910
I1
sS'challenge '
p911
I1
sS'might '
p912
I45
sS'think '
p913
I1
sS'can, '
p914
I2
sS'way '
p915
I1
sS'able '
p916
I211
sS'skills '
p917
I3
sS'ability '
p918
I2
sS'out '
p919
I1
sS"'s "
p920
I7
sS'knee '
p921
I1
sS'must '
p922
I4
sS'camera '
p923
I1
sS'free '
p924
I2
sS'fuck '
p925
I1
sS'somethingl '
p926
I1
sS'now '
p927
I1
sS'saved '
p928
I1
sS'have '
p929
I69
sS'every '
p930
I1
sS'know '
p931
I7
sS'bring '
p932
I1
sS'together '
p933
I1
sS'patient '
p934
I1
sS'there '
p935
I3
sS'hey '
p936
I2
sS'bite '
p937
I1
sS'sure '
p938
I1
sS'won '
p939
I1
sS'ilmeesi '
p940
I1
sS'c '
p941
I1
sS'couldn '
p942
I46
sS'you '
p943
I1
sS'off '
p944
I1
sS'they '
p945
I1
sS'wondering '
p946
I2
sS'this '
p947
I1
sS'possibly '
p948
I1
sS'can" '
p949
I4
sS'are '
p950
I37
sS'serena '
p951
I1
sS'and '
p952
I1
sS'put '
p953
I1
sS'take '
p954
I4
sS'will '
p955
I38
sS'to '
p956
I33
sS'use '
p957
I1
sS'go '
p958
I5
sS"'d "
p959
I5
sS'spectator '
p960
I1
sS'amy '
p961
I1
sS'point '
p962
I1
sS', '
p963
I6
sS'do '
p964
I115
sS'dare '
p965
I1
sS'understand '
p966
I1
sS'how '
p967
I9
sS'can\\u2019 '
p968
I2
sS'themselves '
p969
I1
sS'brad '
p970
I1
sS"'t "
p971
I1
sS'can '
p972
I7971
sS'welcome '
p973
I2
sS'screw '
p974
I2
sS'oh '
p975
I1
sS'minimoto '
p976
I1
sS'daddy '
p977
I1
sS'shall '
p978
I7
sS'here '
p979
I2
sS'get '
p980
I26
sS'need '
p981
I1
sS'hold '
p982
I1
sS'back '
p983
I1
stp984
a((lp985
S'm\xc3\xb6glichkeit'
p986
aS'M\xc3\xb6glichkeit'
p987
a(dp988
S'cares '
p989
I1
sS'shuffle- '
p990
I1
sS'wayi '
p991
I1
sS'bet '
p992
I2
sS'actually '
p993
I1
sS'answer '
p994
I2
sS'ways '
p995
I1
sS'travis '
p996
I1
sS'possibility '
p997
I84
sS'shot '
p998
I2
sS'possible '
p999
I3
sS'gary '
p1000
I1
sS'option '
p1001
I54
sS'available '
p1002
I2
sS'override '
p1003
I2
sS'doping '
p1004
I2
sS'choice '
p1005
I7
sS'reach '
p1006
I1
sS'arrangement '
p1007
I1
sS'capability '
p1008
I1
sS'options '
p1009
I2
sS'move '
p1010
I1
sS'play '
p1011
I1
sS'reason '
p1012
I1
sS'chance '
p1013
I111
sS'solution '
p1014
I2
sS'able '
p1015
I3
sS'purpose '
p1016
I1
sS'alternative '
p1017
I2
sS'means '
p1018
I1
sS'can '
p1019
I3
sS'opportunity '
p1020
I79
sS'ability '
p1021
I7
sS'opening '
p1022
I1
sS'mike '
p1023
I1
sS'thing '
p1024
I4
sS'way '
p1025
I243
sS'idea '
p1026
I1
stp1027
a((lp1028
S'm\xc3\xb6gliches'
p1029
aS'M\xc3\xb6gliches'
p1030
a(dp1031
S'potential '
p1032
I1
sS'possible '
p1033
I3
stp1034
a((lp1035
S'moeglich'
p1036
aS'Moeglich'
p1037
a(dp1038
S'possible '
p1039
I3
stp1040
a((lp1041
S'unvorstellbar'
p1042
aS'Unvorstellbar'
p1043
a(dp1044
S'possible '
p1045
I3
sS'heightened '
p1046
I1
sS'unimaginable '
p1047
I3
sS'unthinkable '
p1048
I2
sS'vast '
p1049
I2
sS'inconceivable '
p1050
I2
sS'really '
p1051
I1
sS'beyond '
p1052
I3
sS'incredible '
p1053
I1
sS'bullshit '
p1054
I1
sS'amazing '
p1055
I1
sS'imagine '
p1056
I4
sS'unimaginably '
p1057
I2
sS'unusual '
p1058
I1
stp1059
a((lp1060
S'moglich'
p1061
aS'Moglich'
p1062
a(dp1063
S'subtle '
p1064
I1
sS'possible '
p1065
I2
stp1066
a((lp1067
S'vermutlich'
p1068
aS'Vermutlich'
p1069
a(dp1070
S'alcoholic '
p1071
I1
sS'may '
p1072
I5
sS'maybe '
p1073
I4
sS'would '
p1074
I1
sS'guess '
p1075
I30
sS'likely '
p1076
I3
sS'butler '
p1077
I1
sS'supposed '
p1078
I13
sS'course '
p1079
I1
sS'possible '
p1080
I2
sS'shatner '
p1081
I1
sS'be '
p1082
I1
sS'guess, '
p1083
I2
sS'suppose '
p1084
I26
sS'presumably '
p1085
I19
sS'misspoke '
p1086
I1
sS'or '
p1087
I1
sS'enough '
p1088
I1
sS'proposal '
p1089
I1
sS'gue '
p1090
I1
sS'might '
p1091
I10
sS'think '
p1092
I1
sS'surely '
p1093
I1
sS'supposedly '
p1094
I4
sS'possibly '
p1095
I8
sS'perhaps '
p1096
I3
sS'confused '
p1097
I1
sS'all '
p1098
I1
sS'presumed '
p1099
I3
sS'guessing '
p1100
I1
sS'bet '
p1101
I1
sS'probably '
p1102
I423
stp1103
a((lp1104
S'denn'
p1105
aS'Denn'
p1106
a(dp1107
S'matter '
p1108
I38
sS'going '
p1109
I67
sS'lad '
p1110
I1
sS'uh '
p1111
I1
sS'what '
p1112
I24
sS'no '
p1113
I3
sS'ever '
p1114
I9
sS'the '
p1115
I9
sS'mean '
p1116
I15
sS'kill '
p1117
I1
sS'touch\xc3\xa9 '
p1118
I1
sS'wonderbra '
p1119
I1
sS'fickie '
p1120
I1
sS'tara '
p1121
I1
sS'actually '
p1122
I4
sS'assignment '
p1123
I2
sS'deal '
p1124
I2
sS'did '
p1125
I10
sS'possible '
p1126
I2
sS'hurting '
p1127
I1
sS'then '
p1128
I109
sS'really '
p1129
I2
sS'with '
p1130
I8
sS'up '
p1131
I26
sS'invited '
p1132
I1
sS'if '
p1133
I1
sS'straightjackets '
p1134
I1
sS'occasion '
p1135
I1
sS'bothering '
p1136
I1
sS"'course "
p1137
I1
sS'do, '
p1138
I1
sS'look '
p1139
I3
sS'thinking '
p1140
I1
sS'evelyn '
p1141
I1
sS'happened '
p1142
I9
sS'cause '
p1143
I545
sS'it '
p1144
I95
sS'about '
p1145
I61
sS'manfred '
p1146
I1
sS'god '
p1147
I2
sS'would '
p1148
I6
sS'perche '
p1149
I3
sS'mm- '
p1150
I1
sS'hanged '
p1151
I1
sS'- '
p1152
I1
sS'anything '
p1153
I2
sS'are '
p1154
I7
sS'all '
p1155
I11
sS'oause '
p1156
I1
sS'talking '
p1157
I5
sS'degree '
p1158
I1
sS'than '
p1159
I3
sS'want '
p1160
I9
sS'brothel '
p1161
I1
sS'fuckface '
p1162
I1
sS'heck '
p1163
I4
sS'tipton '
p1164
I1
sS'else '
p1165
I5
sS'me '
p1166
I3
sS'got '
p1167
I16
sS'sheldon '
p1168
I1
sS'becae '
p1169
I1
sS'strange '
p1170
I1
sS'as '
p1171
I6
sS'bec '
p1172
I3
sS'weird '
p1173
I1
sS'should '
p1174
I2
sS'aren '
p1175
I1
sS'because '
p1176
I1340
sS'at '
p1177
I3
sS'furniture '
p1178
I1
sS'young '
p1179
I1
sS'could '
p1180
I5
sS'that '
p1181
I61
sS'come '
p1182
I4
sS'find '
p1183
I1
sS'disappear '
p1184
I1
sS'good '
p1185
I4
sS'disgruntled '
p1186
I1
sS'even '
p1187
I12
sS'goin '
p1188
I2
sS'is '
p1189
I68
sS'thus '
p1190
I1
sS'doing '
p1191
I200
sS'yes '
p1192
I1
sS'anyway '
p1193
I4
sS'cos '
p1194
I62
sS'after '
p1195
I2
sS'exactly '
p1196
I7
sS'many '
p1197
I1
sS'think '
p1198
I7
sS'doin '
p1199
I3
sS'not- '
p1200
I1
sS'say '
p1201
I1
sS'father '
p1202
I1
sS'when '
p1203
I2
sS'eating '
p1204
I1
sS'su '
p1205
I1
sS'sort '
p1206
I1
sS'go '
p1207
I4
sS'happening '
p1208
I10
sS'learn '
p1209
I1
sS"'s "
p1210
I11
sS'such '
p1211
I4
sS'happen '
p1212
I3
sS'must '
p1213
I1
sS'stand '
p1214
I1
sS'horrible '
p1215
I2
sS'here '
p1216
I7
sS'gotten '
p1217
I1
sS'fuck '
p1218
I6
sS'! '
p1219
I1
sS'but '
p1220
I3
sS'boss '
p1221
I1
sS'there '
p1222
I3
sS'for '
p1223
I145
sS'eotteokhanl '
p1224
I1
sS'\\u043e\\u0442\\u0446\\u0430 '
p1225
I1
sS'burned '
p1226
I1
sS'done '
p1227
I3
sS'know '
p1228
I4
sS'have '
p1229
I15
sS'handicapped '
p1230
I1
sS'be '
p1231
I6
sS'now '
p1232
I13
sS'trip '
p1233
I1
sS'suppose '
p1234
I1
sS'right '
p1235
I2
sS', '
p1236
I1
sS'why '
p1237
I1
sS'much '
p1238
I1
sS'so '
p1239
I6
sS'except '
p1240
I1
sS'name '
p1241
I3
sS'on '
p1242
I3
sS'towers '
p1243
I1
sS'you '
p1244
I13
sS'don '
p1245
I2
sS'cooking '
p1246
I1
sS"'cause "
p1247
I169
sS'wen '
p1248
I1
sS'was '
p1249
I2
sS'this '
p1250
I3
sS'possibly '
p1251
I8
sS'wrong '
p1252
I52
sS'plans '
p1253
I6
sS'expect '
p1254
I1
sS'and '
p1255
I3
sS'earth '
p1256
I1
sS'[ '
p1257
I2
sS'put '
p1258
I1
sS'to '
p1259
I3
sS'vetting '
p1260
I1
sS'gonna '
p1261
I27
sS'brings '
p1262
I1
sS'kind '
p1263
I4
sS'german '
p1264
I1
sS'bethe '
p1265
I1
sS'guy '
p1266
I2
sS"'d "
p1267
I1
sS'donkeys '
p1268
I1
sS"' "
p1269
I1
sS'well '
p1270
I1
sS'supposed '
p1271
I82
sS'problem '
p1272
I1
sS"'t "
p1273
I12
sS'out '
p1274
I1
sS'like '
p1275
I12
sS'commutation '
p1276
I1
sS'burying '
p1277
I1
sS'do '
p1278
I64
sS'since '
p1279
I5
sS'guys '
p1280
I9
sS'hell '
p1281
I52
sS'martin '
p1282
I1
sS'nose '
p1283
I2
sS'pregnophiles '
p1284
I1
sS'does '
p1285
I4
sS'very '
p1286
I1
sS'" '
p1287
I4
sS'junior '
p1288
I1
sS'can '
p1289
I3
sS'sake '
p1290
I2
sS'story '
p1291
I1
sS'because, '
p1292
I1
sS'again '
p1293
I1
sS'looking '
p1294
I1
sS'tell '
p1295
I1
sS'nice '
p1296
I2
sS'see '
p1297
I9
sS'i '
p1298
I1
sS'been '
p1299
I4
sS'in '
p1300
I2
sS'afternoon '
p1301
I1
sS'kinds '
p1302
I1
sS'unless '
p1303
I2
sS'way '
p1304
I1
sS'?? '
p1305
I1
sS'get '
p1306
I7
sS'gone '
p1307
I1
sS'not '
p1308
I8
sS'thing '
p1309
I3
sS'yeah '
p1310
I1
stp1311
a((lp1312
S'wahrscheinlich'
p1313
aS'Wahrscheinlich'
p1314
a(dp1315
S'probablyjust '
p1316
I1
sS'oppenheimer '
p1317
I1
sS'js '
p1318
I1
sS'may '
p1319
I15
sS'frogs '
p1320
I1
sS'wintersgill '
p1321
I1
sS'sister '
p1322
I1
sS': '
p1323
I1
sS'reckon '
p1324
I2
sS'convince '
p1325
I1
sS'guess '
p1326
I12
sS'probabhy '
p1327
I2
sS'obviously '
p1328
I2
sS'likely '
p1329
I68
sS'tombstone '
p1330
I1
sS'uglies '
p1331
I1
sS'chance '
p1332
I1
sS'already '
p1333
I2
sS'shot '
p1334
I1
sS'possible '
p1335
I2
sS'racist '
p1336
I1
sS'be '
p1337
I2
sS'approximately '
p1338
I1
sS'that '
p1339
I4
sS'necessary '
p1340
I1
sS'lines '
p1341
I1
sS'sure '
p1342
I3
sS'suppose '
p1343
I3
sS'watches '
p1344
I1
sS'fill '
p1345
I1
sS'mm '
p1346
I1
sS'stupid '
p1347
I1
sS'propably '
p1348
I1
sS'eventually '
p1349
I3
sS'truth '
p1350
I1
sS'doing '
p1351
I1
sS'pony '
p1352
I1
sS'yes '
p1353
I1
sS'chances '
p1354
I7
sS'maybe '
p1355
I12
sS'it '
p1356
I5
sS'might '
p1357
I24
sS'supposedly '
p1358
I1
sS'they '
p1359
I1
sS'think '
p1360
I9
sS'i '
p1361
I2
sS'white '
p1362
I1
sS'when '
p1363
I1
sS'- '
p1364
I1
sS'wasprobably '
p1365
I1
sS'possibly '
p1366
I10
sS'perhaps '
p1367
I1
sS'apparently '
p1368
I1
sS'gone '
p1369
I1
sS'probable '
p1370
I3
sS'odds '
p1371
I1
sS'wanted '
p1372
I1
sS'awful '
p1373
I1
sS'odds- '
p1374
I1
sS'must '
p1375
I9
sS'possibility '
p1376
I1
sS'probably '
p1377
I1050
sS'wamapoke '
p1378
I1
sS'yeah '
p1379
I1
stp1380
a((lp1381
S'erm\xc3\xb6glicht'
p1382
aS'Erm\xc3\xb6glicht'
p1383
a(dp1384
S'arrange '
p1385
I1
sS'fire '
p1386
I1
sS'possible '
p1387
I1
sS'lets '
p1388
I1
sS'enabled '
p1389
I1
sS'support '
p1390
I2
sS'happen '
p1391
I1
sS'throws '
p1392
I1
sS'allows '
p1393
I4
sS'sustaining '
p1394
I2
sS'facilitated '
p1395
I2
stp1396
a((lp1397
S'eventuell'
p1398
aS'Eventuell'
p1399
a(dp1400
S'i- '
p1401
I1
sS'possibly '
p1402
I7
sS'may '
p1403
I11
sS'possible '
p1404
I1
sS'eventually '
p1405
I17
sS'later '
p1406
I1
sS'maybe '
p1407
I20
sS'looking '
p1408
I1
sS'might '
p1409
I16
sS'potentially '
p1410
I1
sS'happen '
p1411
I1
sS'encounter '
p1412
I1
sS'chance '
p1413
I1
sS'gone '
p1414
I1
sS'perhaps '
p1415
I1
stp1416
a((lp1417
S'chip'
p1418
aS'Chip'
p1419
a(dp1420
S'possible '
p1421
I1
sS'chips '
p1422
I1
sS'cromartie '
p1423
I1
sS'chip '
p1424
I122
sS'chip, '
p1425
I3
sS'belive '
p1426
I1
sS'spot '
p1427
I1
stp1428
a((lp1429
S'jedwede'
p1430
aS'Jedwede'
p1431
a(dp1432
S'any '
p1433
I2
sS'possible '
p1434
I1
stp1435
a((lp1436
S'aufzusteigen'
p1437
aS'Aufzusteigen'
p1438
a(dp1439
S'move '
p1440
I1
sS'soar '
p1441
I1
sS'genius '
p1442
I1
sS'bocciofili '
p1443
I1
sS'possible '
p1444
I1
stp1445
a((lp1446
S'erschaffen'
p1447
aS'Erschaffen'
p1448
a(dp1449
S'recreate '
p1450
I3
sS'reinvent '
p1451
I1
sS'create '
p1452
I75
sS'possible '
p1453
I1
sS'built '
p1454
I8
sS'exists '
p1455
I1
sS'created '
p1456
I81
sS'dunk '
p1457
I1
sS'creates '
p1458
I1
sS'creating '
p1459
I14
sS'make '
p1460
I7
sS'made '
p1461
I11
sS'pilly '
p1462
I1
sS'fuels '
p1463
I1
sS'building '
p1464
I1
sS'trucked '
p1465
I2
sS'rebuild '
p1466
I1
sS'making '
p1467
I1
sS'designed '
p1468
I2
stp1469
a((lp1470
S'darf'
p1471
aS'Darf'
p1472
a(dp1473
S'mayl '
p1474
I1
sS'dare '
p1475
I2
sS'may '
p1476
I364
sS'am '
p1477
I1
sS'permission '
p1478
I2
sS'would '
p1479
I8
sS'liberty '
p1480
I3
sS'cannot '
p1481
I52
sS'letting '
p1482
I3
sS'join '
p1483
I1
sS'possible '
p1484
I1
sS'gotta '
p1485
I4
sS'anjadodwaeyo '
p1486
I1
sS'crab '
p1487
I1
sS'if '
p1488
I10
sS'asposed '
p1489
I1
sS'isn '
p1490
I3
sS'heaven '
p1491
I2
sS'no '
p1492
I3
sS'mademoiselle '
p1493
I2
sS'senator '
p1494
I1
sS'nailing '
p1495
I1
sS'please '
p1496
I1
sS'let '
p1497
I47
sS'- '
p1498
I7
sS'sympathetic '
p1499
I1
sS'have '
p1500
I4
sS'the" '
p1501
I1
sS'sandstorm '
p1502
I1
sS'me '
p1503
I1
sS'has '
p1504
I4
sS"'ll "
p1505
I16
sS'having '
p1506
I1
sS'allowed '
p1507
I84
sS'daresay '
p1508
I1
sS'should '
p1509
I10
sS'or '
p1510
I2
sS'could '
p1511
I17
sS'come '
p1512
I3
sS'hancock '
p1513
I1
sS'is '
p1514
I8
sS'mind '
p1515
I74
sS'allow '
p1516
I11
sS'might '
p1517
I12
sS'say '
p1518
I1
sS'gets '
p1519
I17
sS'forbidden '
p1520
I1
sS'perhaps '
p1521
I1
sS'show '
p1522
I1
sS'joel '
p1523
I1
sS"'s "
p1524
I10
sS'cass '
p1525
I1
sS'must '
p1526
I27
sS'can\\u2019 '
p1527
I2
sS'myself '
p1528
I8
sS'want '
p1529
I21
sS'my '
p1530
I3
sS'right '
p1531
I1
sS'permit '
p1532
I2
sS'tofu '
p1533
I1
sS'endure '
p1534
I1
sS'flossing '
p1535
I3
sS'takes '
p1536
I2
sS'doesn '
p1537
I1
sS'million '
p1538
I1
sS'couldn '
p1539
I6
sS'don '
p1540
I1
sS'permitted '
p1541
I1
sS'what '
p1542
I3
sS'manner '
p1543
I1
sS'said '
p1544
I1
sS'storybook '
p1545
I2
sS'okay '
p1546
I1
sS'lion '
p1547
I1
sS'why '
p1548
I1
sS'take '
p1549
I3
sS'will '
p1550
I10
sS'to '
p1551
I6
sS'??????? '
p1552
I1
sS"' "
p1553
I1
sS"'d "
p1554
I2
sS'meet '
p1555
I5
sS'coming '
p1556
I4
sS'shouldn '
p1557
I5
sS'supposed '
p1558
I13
sS'keep '
p1559
I3
sS'do '
p1560
I21
sS"'m "
p1561
I1
sS'tung '
p1562
I1
sS'does '
p1563
I3
sS'can '
p1564
I693
sS'tali '
p1565
I1
sS'hello '
p1566
I1
sS'i '
p1567
I1
sS'mustn '
p1568
I10
sS'abalone '
p1569
I1
sS'shall '
p1570
I3
sS'excuse '
p1571
I3
sS'free '
p1572
I1
sS'get '
p1573
I20
sS'warschau '
p1574
I1
sS'need '
p1575
I5
sS'claim '
p1576
I4
sS'yeah '
p1577
I1
stp1578
a((lp1579
S'hat'
p1580
aS'Hat'
p1581
a(dp1582
S'one '
p1583
I2
sS'gives '
p1584
I2
sS'that '
p1585
I1
sS'no '
p1586
I1
sS'would '
p1587
I39
sS'looks '
p1588
I1
sS'hat '
p1589
I2
sS'making '
p1590
I1
sS'actually '
p1591
I1
sS'did '
p1592
I2358
sS'raised '
p1593
I1
sS'really '
p1594
I3
sS'with '
p1595
I27
sS'haven '
p1596
I1
sS'won '
p1597
I3
sS'carries '
p1598
I3
sS'took '
p1599
I234
sS'for '
p1600
I4
sS'cut '
p1601
I1
sS'isn '
p1602
I10
sS'pulled '
p1603
I4
sS'came '
p1604
I14
sS'happened '
p1605
I1
sS'it '
p1606
I5
sS'found '
p1607
I9
sS'about '
p1608
I2
sS'hooked '
p1609
I2
sS'filled '
p1610
I4
sS'let '
p1611
I2
sS'- '
p1612
I1
sS'had '
p1613
I331
sS'keeps '
p1614
I8
sS'given '
p1615
I1
sS'ain '
p1616
I4
sS'probably '
p1617
I2
sS'gig '
p1618
I1
sS'say '
p1619
I1
sS'wait '
p1620
I1
sS'last '
p1621
I1
sS'got '
p1622
I1903
sS'her '
p1623
I2
sS'has '
p1624
I4917
sS'into '
p1625
I1
sS'needs '
p1626
I1
sS'left '
p1627
I31
sS'having '
p1628
I13
sS'by '
p1629
I1
sS'broke '
p1630
I1
sS'just '
p1631
I11
sS'sees '
p1632
I1
sS'could '
p1633
I15
sS'holds '
p1634
I5
sS'man '
p1635
I1
sS'hit '
p1636
I4
sS'wouldn '
p1637
I7
sS'either '
p1638
I1
sS'saw '
p1639
I11
sS'is '
p1640
I615
sS'you '
p1641
I1
sS'she '
p1642
I22
sS'asked '
p1643
I4
sS'fuckin '
p1644
I1
sS'told '
p1645
I37
sS'will '
p1646
I2
sS'gets '
p1647
I38
sS'went '
p1648
I26
sS'maybe '
p1649
I1
sS'his '
p1650
I4
sS'freak '
p1651
I1
sS'who '
p1652
I1
sS'tells '
p1653
I2
sS'. '
p1654
I1
sS'liked '
p1655
I2
sS'must '
p1656
I8
sS'black '
p1657
I1
sS'wants '
p1658
I5
sS'excited '
p1659
I1
sS'sent '
p1660
I11
sS'makes '
p1661
I6
sS'stole '
p1662
I1
sS'taught '
p1663
I1
sS'have '
p1664
I291
sS'done '
p1665
I2
sS'called '
p1666
I11
sS'whoring '
p1667
I1
sS'dropped '
p1668
I2
sS'started '
p1669
I4
sS'own '
p1670
I2
sS'didn '
p1671
I991
sS'in '
p1672
I8
sS'now '
p1673
I1
sS'brought '
p1674
I27
sS'used '
p1675
I44
sS'worked '
p1676
I5
sS'turned '
p1677
I10
sS'were '
p1678
I17
sS'ran '
p1679
I2
sS'takes '
p1680
I12
sS'doesn '
p1681
I233
sS'jay '
p1682
I1
sS'on '
p1683
I3
sS'couldn '
p1684
I2
sS'ls '
p1685
I1
sS'don '
p1686
I1
sS'they '
p1687
I1
sS'gave '
p1688
I99
sS'what '
p1689
I13
sS'was '
p1690
I1435
sS'hath '
p1691
I8
sS'said '
p1692
I19
sS'... '
p1693
I4
sS'are '
p1694
I40
sS'owns '
p1695
I4
sS'up '
p1696
I3
sS'and '
p1697
I1
sS'bit '
p1698
I1
sS'he '
p1699
I44
sS'put '
p1700
I83
sS'take '
p1701
I1
sS'once '
p1702
I2
sS'entrusted '
p1703
I1
sS'shot '
p1704
I1
sS'cooked '
p1705
I1
sS'lost '
p1706
I2
sS'kept '
p1707
I23
sS'brings '
p1708
I3
sS'jax '
p1709
I1
sS"'d "
p1710
I166
sS'struck '
p1711
I1
sS'picked '
p1712
I11
sS'heard '
p1713
I1
sS'happens '
p1714
I1
sS'spent '
p1715
I1
sS'from '
p1716
I1
sS'me '
p1717
I2
sS'of '
p1718
I4
sS'set '
p1719
I8
sS'says '
p1720
I5
sS', '
p1721
I116
sS"'s "
p1722
I3100
sS'do '
p1723
I21
sS"'m "
p1724
I1
sS'if '
p1725
I4
sS'grand '
p1726
I1
sS'how '
p1727
I1
sS'kind '
p1728
I1
sS'anybody '
p1729
I1
sS'passed '
p1730
I1
sS's '
p1731
I5
sS'does '
p1732
I468
sS'a '
p1733
I1
sS'can '
p1734
I20
sS'bought '
p1735
I3
sS'caused '
p1736
I1
sS'tell '
p1737
I1
sS'made '
p1738
I223
sS"'t "
p1739
I1
sS'caught '
p1740
I3
sS'forgot '
p1741
I1
sS'i '
p1742
I1
sS'been '
p1743
I8
sS'wasn '
p1744
I60
sS'the '
p1745
I2
sS'taking '
p1746
I1
sS'knows '
p1747
I8
sS'isnt '
p1748
I1
sS'killed '
p1749
I2
sS'hasn '
p1750
I250
sS'thing '
p1751
I1
sS'tried '
p1752
I1
sS'any '
p1753
I2
sS'yeah '
p1754
I3
stp1755
a((lp1756
S'fassen'
p1757
aS'Fassen'
p1758
a(dp1759
S'boggling '
p1760
I1
sS'ladies '
p1761
I1
sS'know '
p1762
I1
sS'knew '
p1763
I1
sS'christ '
p1764
I1
sS'guy '
p1765
I1
sS'tripping '
p1766
I1
sS'measure '
p1767
I1
sS'served '
p1768
I1
sS'weird '
p1769
I1
sS'believei '
p1770
I1
sS'sum '
p1771
I2
sS'possible '
p1772
I1
sS'unbelievable '
p1773
I10
sS'touch '
p1774
I39
sS'catching '
p1775
I3
sS'pick '
p1776
I1
sS'belive '
p1777
I2
sS'reach '
p1778
I1
sS'flipando '
p1779
I1
sS'elusive '
p1780
I1
sS'skip '
p1781
I1
sS'protect '
p1782
I1
sS'370 '
p1783
I1
sS'express '
p1784
I1
sS'hands '
p1785
I2
sS'don '
p1786
I8
sS'believable '
p1787
I1
sS'grab '
p1788
I2
sS'annoying '
p1789
I1
sS'hon '
p1790
I1
sS'fancy '
p1791
I4
sS'get '
p1792
I3
sS'believe '
p1793
I110
sS'best '
p1794
I1
sS'schrodinger '
p1795
I1
sS'catch '
p1796
I21
sS'take '
p1797
I2
sS'head '
p1798
I1
sS'touching '
p1799
I6
sS'yeah '
p1800
I2
stp1801
a((lp1802
S'vermutlichen'
p1803
aS'Vermutlichen'
p1804
a(dp1805
S'possible '
p1806
I1
stp1807
a((lp1808
S'm\\u05e6gliche'
p1809
aS'M\\u05e6gliche'
p1810
a(dp1811
S'possible '
p1812
I1
stp1813
a((lp1814
S'k\xc3\xb6nnte'
p1815
aS'K\xc3\xb6nnte'
p1816
a(dp1817
S'could, '
p1818
I1
sS'may '
p1819
I274
sS'am '
p1820
I2
sS'no '
p1821
I1
sS'would '
p1822
I91
sS'looks '
p1823
I1
sS'renaissance '
p1824
I1
sS'did '
p1825
I3
sS'possible '
p1826
I1
sS'if '
p1827
I10
sS"'aurais "
p1828
I1
sS'\\u00bf '
p1829
I1
sS'swear, '
p1830
I1
sS'about '
p1831
I1
sS'greensleevers '
p1832
I1
sS'chance '
p1833
I4
sS"'ve "
p1834
I4
sS'had '
p1835
I2
sS'guess '
p1836
I2
sS'probably '
p1837
I4
sS'any '
p1838
I1
sS'has '
p1839
I2
sS"'ll "
p1840
I18
sS'likely '
p1841
I2
sS'should '
p1842
I14
sS'completely '
p1843
I1
sS'could '
p1844
I3774
sS'wouldn '
p1845
I6
sS'sounds '
p1846
I1
sS'is '
p1847
I26
sS'mind '
p1848
I2
sS'might '
p1849
I932
sS'think '
p1850
I4
sS'rye '
p1851
I1
sS'able '
p1852
I6
sS'thanks '
p1853
I1
sS'maybe '
p1854
I13
sS'perhaps '
p1855
I4
sS'mightn '
p1856
I1
sS'sort '
p1857
I2
sS'things '
p1858
I1
sS'check '
p1859
I1
sS"'s "
p1860
I32
sS'dd '
p1861
I1
sS'makes '
p1862
I3
sS'horse '
p1863
I1
sS'know '
p1864
I3
sS'have '
p1865
I1
sS'mmm '
p1866
I1
sS'didn '
p1867
I1
sS'be '
p1868
I2
sS'tiniest '
p1869
I1
sS'sure '
p1870
I2
sS'suppose '
p1871
I1
sS'careof '
p1872
I1
sS'right '
p1873
I1
sS'fulfil '
p1874
I1
sS'were '
p1875
I2
sS'why '
p1876
I1
sS'like '
p1877
I2
sS'couldn '
p1878
I153
sS'you '
p1879
I1
sS'don '
p1880
I1
sS'cultivate '
p1881
I1
sS'ought '
p1882
I1
sS'was '
p1883
I8
sS'possibly '
p1884
I2
sS'give '
p1885
I1
sS'will '
p1886
I2
sS'hang '
p1887
I1
sS'gonna '
p1888
I1
sS'thought '
p1889
I2
sS'xmas '
p1890
I1
sS"'d "
p1891
I41
sS'kind '
p1892
I1
sS'whispering '
p1893
I1
sS'possibility '
p1894
I1
sS', '
p1895
I1
sS'do '
p1896
I13
sS"'m "
p1897
I11
sS'well '
p1898
I1
sS'does '
p1899
I4
sS'can '
p1900
I323
sS'incognito '
p1901
I1
sS'i '
p1902
I1
sS'coulda '
p1903
I2
sS'need '
p1904
I1
sS'something '
p1905
I2
stp1906
a((lp1907
S'menschenm\xc3\xb6glichste'
p1908
aS'Menschenm\xc3\xb6glichste'
p1909
a(dp1910
S'possible '
p1911
I1
stp1912
a((lp1913
S'machbar'
p1914
aS'Machbar'
p1915
a(dp1916
S'passable '
p1917
I1
sS'possible '
p1918
I1
sS'handle '
p1919
I1
sS'do- '
p1920
I6
sS'doable '
p1921
I4
sS'unfeasible '
p1922
I1
sS'out '
p1923
I1
sS'done '
p1924
I2
sS'viable '
p1925
I2
sS'unenforceable '
p1926
I1
sS'solvable '
p1927
I1
stp1928
a((lp1929
S'anzureden'
p1930
aS'Anzureden'
p1931
a(dp1932
S'addressing '
p1933
I1
sS'possible '
p1934
I1
stp1935
a((lp1936
S'hineinschaffen'
p1937
aS'Hineinschaffen'
p1938
a(dp1939
S'possible '
p1940
I1
stp1941
a((lp1942
S'glaub'
p1943
aS'Glaub'
p1944
a(dp1945
S'feel '
p1946
I2
sS'dealing '
p1947
I1
sS'gotta '
p1948
I1
sS'doubt '
p1949
I2
sS'know '
p1950
I1
sS'believing '
p1951
I1
sS'faith '
p1952
I1
sS'thought '
p1953
I1
sS'thinkhe '
p1954
I1
sS'reckon '
p1955
I2
sS"'ll "
p1956
I1
sS'guess '
p1957
I20
sS'mean '
p1958
I1
sS'damned '
p1959
I1
sS'beast '
p1960
I1
sS'flipo '
p1961
I1
sS'believer '
p1962
I1
sS'imperial '
p1963
I1
sS'god '
p1964
I3
sS'nah '
p1965
I1
sS'seems '
p1966
I1
sS'donatelli '
p1967
I1
sS'course '
p1968
I1
sS'sopping '
p1969
I1
sS'possible '
p1970
I1
sS'suppose '
p1971
I5
sS'do '
p1972
I2
sS"'m "
p1973
I7
sS'really '
p1974
I2
sS'waeamudomosmannajl '
p1975
I1
sS'glaub '
p1976
I1
sS'sure '
p1977
I1
sS'understand '
p1978
I1
sS'cadet '
p1979
I1
sS'parmesan '
p1980
I1
sS'looks '
p1981
I1
sS'gosh '
p1982
I1
sS"'mon "
p1983
I1
sS'ca '
p1984
I1
sS'believe '
p1985
I260
sS'so '
p1986
I2
sS'promise '
p1987
I3
sS'can '
p1988
I8
sS'keeping '
p1989
I1
sS'listen '
p1990
I2
sS'might '
p1991
I5
sS'think '
p1992
I210
sS'you '
p1993
I3
sS'ereer '
p1994
I1
sS'don '
p1995
I52
sS'hear '
p1996
I1
sS'imagine '
p1997
I1
sS'frisbee '
p1998
I1
sS'ithink '
p1999
I1
sS'basket '
p2000
I1
sS'** '
p2001
I1
sS'let '
p2002
I3
sS'maybe '
p2003
I1
sS'paid '
p2004
I1
sS'buy '
p2005
I2
sS'- '
p2006
I1
sS'may '
p2007
I1
sS'readlng '
p2008
I1
sS'beleive '
p2009
I1
sS'belive '
p2010
I1
sS'plaza '
p2011
I1
sS'assume '
p2012
I5
sS'won '
p2013
I1
sS'shee '
p2014
I1
sS'bet '
p2015
I3
sS'he '
p2016
I1
sS'telling '
p2017
I1
sS'take '
p2018
I1
sS'way '
p2019
I2
sS'trust '
p2020
I68
sS'doggie '
p2021
I1
stp2022
a((lp2023
S'istpassiert'
p2024
aS'Istpassiert'
p2025
a(dp2026
S'possible '
p2027
I1
stp2028
a((lp2029
S'terrace'
p2030
aS'Terrace'
p2031
a(dp2032
S'torres '
p2033
I2
sS'possible '
p2034
I1
sS'terrace '
p2035
I1
stp2036
a((lp2037
S'perle'
p2038
aS'Perle'
p2039
a(dp2040
S'babe '
p2041
I1
sS'possible '
p2042
I1
sS'account '
p2043
I6
sS'bead '
p2044
I1
sS'chick '
p2045
I2
sS'gem '
p2046
I3
sS'not '
p2047
I1
sS'pearl '
p2048
I7
sS'brilla '
p2049
I1
stp2050
a((lp2051
S'erdenkliche'
p2052
aS'Erdenkliche'
p2053
a(dp2054
S'necklace '
p2055
I1
sS'as '
p2056
I1
sS'possible '
p2057
I1
stp2058
a((lp2059
S'ort'
p2060
aS'Ort'
p2061
a(dp2062
S'stay '
p2063
I1
sS'wherever '
p2064
I11
sS'places '
p2065
I7
sS'town '
p2066
I17
sS'city '
p2067
I2
sS'area '
p2068
I1
sS'where '
p2069
I16
sS'locationis '
p2070
I1
sS'village '
p2071
I2
sS'ground '
p2072
I2
sS'onsite '
p2073
I1
sS'anywhere '
p2074
I1
sS'water '
p2075
I1
sS'point '
p2076
I1
sS'attending '
p2077
I1
sS'possible '
p2078
I1
sS'anyplace '
p2079
I3
sS'suis- '
p2080
I1
sS'nowhere '
p2081
I6
sS'somewhere '
p2082
I14
sS'breeze '
p2083
I1
sS'call '
p2084
I1
sS'field '
p2085
I2
sS'rotation '
p2086
I1
sS'team '
p2087
I1
sS'scene '
p2088
I20
sS'place '
p2089
I1471
sS'ridicule '
p2090
I1
sS'someplace '
p2091
I31
sS'number '
p2092
I1
sS'local '
p2093
I2
sS'target '
p2094
I2
sS'bar '
p2095
I1
sS'slice '
p2096
I1
sS'there '
p2097
I2
sS'place, '
p2098
I2
sS'quarter '
p2099
I1
sS'venue '
p2100
I6
sS'location '
p2101
I103
sS'? '
p2102
I1
sS'nook '
p2103
I1
sS'locations '
p2104
I2
sS'placeto '
p2105
I1
sS'moving '
p2106
I1
sS'hold '
p2107
I1
sS'best '
p2108
I1
sS'put '
p2109
I3
sS'outside '
p2110
I1
sS'beaks '
p2111
I1
sS'here '
p2112
I5
sS'spot '
p2113
I42
sS'site '
p2114
I18
stp2115
a((lp2116
S'whoo'
p2117
aS'Whoo'
p2118
a(dp2119
S'whoo '
p2120
I66
sS'goddamn '
p2121
I2
sS'mom '
p2122
I1
sS'possible '
p2123
I1
sS'ha '
p2124
I1
sS'there '
p2125
I2
sS'bar '
p2126
I1
sS'cakes '
p2127
I1
sS'online '
p2128
I1
sS'sands '
p2129
I1
sS'woo '
p2130
I1
sS'here '
p2131
I1
sS'splashes '
p2132
I1
sS'um '
p2133
I1
stp2134
a((lp2135
S'verbringt'
p2136
aS'Verbringt'
p2137
a(dp2138
S'memorize '
p2139
I1
sS'possible '
p2140
I1
sS'spending '
p2141
I14
sS'spend '
p2142
I15
sS'spends '
p2143
I30
sS'lenwoloppali '
p2144
I1
sS'spent '
p2145
I3
stp2146
a((lp2147
S'etwaigen'
p2148
aS'Etwaigen'
p2149
a(dp2150
S'possible '
p2151
I1
stp2152
a((lp2153
S'm\xc3\xbcsste'
p2154
aS'M\xc3\xbcsste'
p2155
a(dp2156
S'gotta '
p2157
I3
sS'has '
p2158
I2
sS'would '
p2159
I50
sS"'d "
p2160
I57
sS"'ll "
p2161
I2
sS'needs '
p2162
I4
sS'without '
p2163
I1
sS'shouldn '
p2164
I1
sS'should '
p2165
I61
sS'supposed '
p2166
I11
sS'possible '
p2167
I1
sS'figure '
p2168
I2
sS'be '
p2169
I1
sS"'m "
p2170
I1
sS'used '
p2171
I1
sS'wouldn '
p2172
I14
sS'if '
p2173
I6
sS'but '
p2174
I1
sS'laughs '
p2175
I1
sS'needed '
p2176
I8
sS'moments '
p2177
I1
sS'she '
p2178
I1
sS'might '
p2179
I5
sS'think '
p2180
I2
sS'computer '
p2181
I1
sS'ought '
p2182
I4
sS'maybe '
p2183
I1
sS'could '
p2184
I3
sS'ok '
p2185
I2
sS'had '
p2186
I38
sS'talking '
p2187
I1
sS"'s "
p2188
I1
sS'need '
p2189
I33
sS'have '
p2190
I40
sS'must '
p2191
I14
sS'to '
p2192
I3
stp2193
a((lp2194
S'entscheiden'
p2195
aS'Entscheiden'
p2196
a(dp2197
S'agreed '
p2198
I1
sS'seconds '
p2199
I1
sS'jeff '
p2200
I1
sS'decision- '
p2201
I1
sS'choices '
p2202
I1
sS'input '
p2203
I1
sS'answer '
p2204
I1
sS'deal '
p2205
I1
sS'possible '
p2206
I1
sS'judge '
p2207
I6
sS'do '
p2208
I3
sS'up '
p2209
I10
sS'make '
p2210
I3
sS'divine '
p2211
I1
sS'call '
p2212
I4
sS'determine '
p2213
I4
sS'lose '
p2214
I1
sS'mind '
p2215
I14
sS'faced '
p2216
I1
sS'impasse '
p2217
I1
sS'decision '
p2218
I16
sS'ambulance '
p2219
I1
sS'decisions '
p2220
I5
sS'decide '
p2221
I214
sS'decides '
p2222
I3
sS'say '
p2223
I2
sS'pick '
p2224
I5
sS'minds '
p2225
I4
sS'todecide '
p2226
I1
sS'committed '
p2227
I2
sS"'s "
p2228
I1
sS'deciding '
p2229
I6
sS'judged '
p2230
I1
sS'choice '
p2231
I5
sS'toss- '
p2232
I1
sS'choose '
p2233
I69
sS'judgment '
p2234
I1
stp2235
a((lp2236
S'glich'
p2237
aS'Glich'
p2238
a(dp2239
S'possible '
p2240
I1
stp2241
a((lp2242
S'conroy'
p2243
aS'Conroy'
p2244
a(dp2245
S'occupant '
p2246
I1
sS'conroy '
p2247
I2
sS'possible '
p2248
I1
stp2249
a((lp2250
S'gelingen'
p2251
aS'Gelingen'
p2252
a(dp2253
S'defend '
p2254
I1
sS'going '
p2255
I1
sS'possible '
p2256
I1
sS'do '
p2257
I1
sS'success '
p2258
I2
sS'seemed '
p2259
I1
sS'happen '
p2260
I1
sS'succeed '
p2261
I3
sS'will '
p2262
I1
sS'bull- '
p2263
I1
sS'win '
p2264
I1
sS'luck '
p2265
I1
sS'outnumber '
p2266
I1
stp2267
a((lp2268
S'haut'
p2269
aS'Haut'
p2270
a(dp2271
S'terrific '
p2272
I1
sS'clear '
p2273
I1
sS'stay '
p2274
I2
sS'getting '
p2275
I2
sS'quit '
p2276
I1
sS'thanks, '
p2277
I1
sS'ba- '
p2278
I1
sS'runner '
p2279
I3
sS'flies '
p2280
I2
sS'derma '
p2281
I1
sS'leaving '
p2282
I7
sS"'ll "
p2283
I1
sS'rip '
p2284
I1
sS'missing '
p2285
I1
sS'kill '
p2286
I1
sS'running '
p2287
I2
sS'hits '
p2288
I2
sS'rips '
p2289
I1
sS'fighting '
p2290
I1
sS'dig '
p2291
I5
sS'flesh '
p2292
I1
sS'booze '
p2293
I1
sS'just '
p2294
I1
sS'bomb '
p2295
I2
sS'shoes '
p2296
I3
sS'kicks '
p2297
I2
sS'work '
p2298
I1
sS'blows '
p2299
I3
sS'bugger '
p2300
I1
sS'hey '
p2301
I2
sS'hit '
p2302
I1
sS'skn '
p2303
I1
sS'goes '
p2304
I1
sS'shoo '
p2305
I3
sS'damn '
p2306
I1
sS'nathaniel '
p2307
I1
sS'kick '
p2308
I1
sS'leave '
p2309
I6
sS'hides '
p2310
I3
sS'allow '
p2311
I1
sS'does '
p2312
I3
sS'beat '
p2313
I1
sS'deep '
p2314
I3
sS'puts '
p2315
I1
sS'costs '
p2316
I1
sS'hide '
p2317
I3
sS'takes '
p2318
I1
sS'slipping '
p2319
I1
sS'bye '
p2320
I1
sS'pull '
p2321
I1
sS'manna '
p2322
I1
sS'works '
p2323
I1
sS'blunt '
p2324
I1
sS'roll '
p2325
I1
sS'curfew '
p2326
I1
sS'don '
p2327
I2
sS'fires '
p2328
I1
sS'escape '
p2329
I1
sS'speedy '
p2330
I1
sS'bails '
p2331
I2
sS'blowing '
p2332
I2
sS'skin '
p2333
I287
sS'sight '
p2334
I2
sS'packs '
p2335
I1
sS'let '
p2336
I3
sS'leaves '
p2337
I2
sS'skinned '
p2338
I2
sS'possible '
p2339
I1
sS'get '
p2340
I27
sS'shit '
p2341
I1
sS'go '
p2342
I5
sS"'s "
p2343
I3
sS'crazy '
p2344
I1
sS'amazing '
p2345
I1
sS'knocks '
p2346
I1
sS'ahh '
p2347
I1
stp2348
a((lp2349
S'beschrieben'
p2350
aS'Beschrieben'
p2351
a(dp2352
S'describe '
p2353
I5
sS'describing '
p2354
I4
sS'shotgun '
p2355
I1
sS'possible '
p2356
I1
sS'jay '
p2357
I1
sS'toast '
p2358
I1
sS'billing '
p2359
I1
sS'described '
p2360
I24
sS'pete\\u2019 '
p2361
I1
sS'nutshell '
p2362
I1
stp2363
a((lp2364
S'keinesfalls'
p2365
aS'Keinesfalls'
p2366
a(dp2367
S"'t "
p2368
I2
sS'possible '
p2369
I1
sS'no '
p2370
I12
sS'\\u00b2 '
p2371
I1
sS'absolutely '
p2372
I1
sS'heal '
p2373
I1
sS'opener '
p2374
I1
sS'once '
p2375
I1
sS'not '
p2376
I8
sS'boggle '
p2377
I1
sS'cowboys '
p2378
I1
sS'way '
p2379
I1
sS'connected '
p2380
I1
sS'whatsoever '
p2381
I1
stp2382
a((lp2383
S'ausschlie\xc3\x9fen'
p2384
aS'Ausschlie\xc3\x9fen'
p2385
a(dp2386
S'toeliminate '
p2387
I1
sS'clanging '
p2388
I1
sS'possible '
p2389
I1
sS'cannotrule '
p2390
I1
sS'recur '
p2391
I1
sS'out '
p2392
I2
sS'exclude '
p2393
I1
sS'excluded '
p2394
I2
sS'eliminate '
p2395
I1
sS'shut '
p2396
I2
sS'we\\u2019 '
p2397
I1
sS'rule '
p2398
I18
sS'yet '
p2399
I1
stp2400
a((lp2401
S'w\xc3\xbcrden'
p2402
aS'W\xc3\xbcrden'
p2403
a(dp2404
S'weren '
p2405
I9
sS'going '
p2406
I1
sS'may '
p2407
I2
sS'gonna '
p2408
I1
sS'knew '
p2409
I1
sS'care '
p2410
I1
sS'say '
p2411
I1
sS'appraise '
p2412
I1
sS'd '
p2413
I1
sS'would '
p2414
I852
sS"'d "
p2415
I413
sS"'ll "
p2416
I41
sS'want '
p2417
I6
sS'please '
p2418
I2
sS'well '
p2419
I1
sS'colonel '
p2420
I1
sS'just '
p2421
I1
sS'because '
p2422
I2
sS'like '
p2423
I1
sS'possible '
p2424
I1
sS'step '
p2425
I1
sS'willing '
p2426
I2
sS'do '
p2427
I14
sS'could '
p2428
I52
sS'now '
p2429
I1
sS'come '
p2430
I1
sS'behalf '
p2431
I1
sS'wouldn '
p2432
I153
sS'if '
p2433
I24
sS'honors '
p2434
I2
sS'won '
p2435
I16
sS'paint '
p2436
I1
sS'everyonewho '
p2437
I1
sS'were '
p2438
I129
sS'mind '
p2439
I4
sS'not '
p2440
I1
sS'walk '
p2441
I1
sS'lf '
p2442
I1
sS'can '
p2443
I27
sS'might '
p2444
I23
sS'couldn '
p2445
I4
sS'jules '
p2446
I1
sS'red '
p2447
I1
sS'observe '
p2448
I1
sS"'cause "
p2449
I1
sS'was '
p2450
I1
sS'perpetrating '
p2451
I1
sS'murrow '
p2452
I1
sS'is '
p2453
I1
sS'- '
p2454
I1
sS'are '
p2455
I7
sS'roomful '
p2456
I1
sS"'ii "
p2457
I1
sS"'re "
p2458
I24
sS'um '
p2459
I1
sS'ranford '
p2460
I1
sS'will '
p2461
I79
sS'to '
p2462
I1
stp2463
a((lp2464
S'gehen'
p2465
aS'Gehen'
p2466
a(dp2467
S'feel '
p2468
I1
sS'going '
p2469
I665
sS'join '
p2470
I6
sS'lets '
p2471
I5
sS'school '
p2472
I1
sS'no '
p2473
I3
sS'blend '
p2474
I1
sS'the '
p2475
I1
sS'ok '
p2476
I3
sS'party '
p2477
I1
sS"'ii "
p2478
I1
sS'down '
p2479
I8
sS'may '
p2480
I1
sS'good '
p2481
I2
sS'travel '
p2482
I4
sS'break '
p2483
I1
sS'possible '
p2484
I1
sS'step '
p2485
I20
sS'work '
p2486
I10
sS'cataracts '
p2487
I1
sS'investigator '
p2488
I1
sS'how '
p2489
I2
sS'up '
p2490
I2
sS'run '
p2491
I17
sS'setting '
p2492
I2
sS'ieave '
p2493
I1
sS'turn '
p2494
I4
sS'thanks '
p2495
I1
sS'lead '
p2496
I2
sS'thank '
p2497
I4
sS'happened '
p2498
I1
sS'it '
p2499
I1
sS'calls '
p2500
I1
sS'college '
p2501
I1
sS"'d "
p2502
I1
sS'about '
p2503
I1
sS'banana '
p2504
I1
sS'save '
p2505
I1
sS'please '
p2506
I3
sS'chance '
p2507
I1
sS'pass '
p2508
I1
sS'let '
p2509
I204
sS'- '
p2510
I4
sS'all '
p2511
I3
sS'just, '
p2512
I1
sS'hurry '
p2513
I1
sS'fine '
p2514
I6
sS'ohh '
p2515
I1
sS'want '
p2516
I3
sS'goin '
p2517
I5
sS'pack '
p2518
I1
sS'done '
p2519
I1
sS'heck '
p2520
I1
sS'difficult '
p2521
I1
sS'quit '
p2522
I4
sS'bye '
p2523
I1
sS'leaving '
p2524
I143
sS"'ll "
p2525
I11
sS'left '
p2526
I10
sS'burp '
p2527
I1
sS'running '
p2528
I1
sS'brad '
p2529
I1
sS'should '
p2530
I5
sS'quiet '
p2531
I1
sS'dismissed '
p2532
I4
sS'aren '
p2533
I3
sS'buoyant '
p2534
I1
sS'just '
p2535
I4
sS'vamanos '
p2536
I1
sS'could '
p2537
I1
sS'that '
p2538
I2
sS'come '
p2539
I82
sS'make '
p2540
I13
sS'man '
p2541
I2
sS'hit '
p2542
I4
sS'goes '
p2543
I13
sS'leave '
p2544
I561
sS'time '
p2545
I2
sS'mind '
p2546
I2
sS'stay '
p2547
I10
sS'collect '
p2548
I1
sS'mommy '
p2549
I1
sS'after '
p2550
I1
sS'ieaving '
p2551
I1
sS'finding '
p2552
I1
sS'to '
p2553
I2
sS'aside '
p2554
I1
sS'went '
p2555
I5
sS'outside '
p2556
I1
sS'outta '
p2557
I1
sS'free '
p2558
I3
sS'understand '
p2559
I1
sS'go '
p2560
I5551
sS'out '
p2561
I39
sS"'s "
p2562
I8
sS'happen '
p2563
I2
sS'stand '
p2564
I5
sS'waegeurae '
p2565
I1
sS'way '
p2566
I5
sS'stop '
p2567
I2
sS'mine '
p2568
I2
sS'go, '
p2569
I10
sS'too '
p2570
I3
sS'there '
p2571
I1
sS'excused '
p2572
I4
sS'have '
p2573
I3
sS'goings '
p2574
I3
sS'hey '
p2575
I1
sS'anywhere '
p2576
I1
sS'boys '
p2577
I1
sS'together '
p2578
I2
sS'sorry '
p2579
I1
sS'unitard '
p2580
I1
sS'lay '
p2581
I1
sS'ready '
p2582
I2
sS'taxi '
p2583
I1
sS'be '
p2584
I20
sS'now '
p2585
I3
sS'lady '
p2586
I1
sS'allright '
p2587
I1
sS'stroll '
p2588
I1
sS'hearing '
p2589
I1
sS'britton '
p2590
I2
sS'right '
p2591
I5
sS'place '
p2592
I3
sS'split '
p2593
I2
sS'if '
p2594
I2
sS'enough '
p2595
I1
sS'were '
p2596
I1
sS'got '
p2597
I1
sS'why '
p2598
I3
sS'interested '
p2599
I2
sS'sir '
p2600
I1
sS'on '
p2601
I3
sS'roll '
p2602
I2
sS'you '
p2603
I1
sS'quickly '
p2604
I1
sS'off '
p2605
I15
sS'leaves '
p2606
I1
sS'what '
p2607
I2
sS'follow '
p2608
I2
sS'falling '
p2609
I2
sS'return '
p2610
I2
sS'headed '
p2611
I2
sS'okay '
p2612
I9
sS'are '
p2613
I151
sS'walking '
p2614
I41
sS'grandpa '
p2615
I1
sS'yeah '
p2616
I1
sS'give '
p2617
I1
sS'and '
p2618
I2
sS'geography '
p2619
I1
sS'mitchell '
p2620
I1
sS'take '
p2621
I47
sS'head '
p2622
I15
sS'will '
p2623
I10
sS'him/ '
p2624
I1
sS'hang '
p2625
I2
sS'retire '
p2626
I1
sS'started '
p2627
I1
sS'use '
p2628
I1
sS'skip '
p2629
I1
sS'said '
p2630
I1
sS'everybody '
p2631
I1
sS'alright '
p2632
I1
sS'reception '
p2633
I1
sS'tac '
p2634
I1
sS'die '
p2635
I1
sS'scram '
p2636
I1
sS'walked '
p2637
I3
sS"'t "
p2638
I1
sS'depart '
p2639
I1
sS'keep '
p2640
I2
sS'scrub '
p2641
I2
sS'summoning '
p2642
I1
sS'boyfriend '
p2643
I1
sS'biarritz '
p2644
I1
sS'do '
p2645
I30
sS'away '
p2646
I2
sS"'re "
p2647
I136
sS'pudding '
p2648
I1
sS'napi\\u00e6 '
p2649
I1
sS'treat '
p2650
I2
sS'late '
p2651
I1
sS'pick '
p2652
I3
sS'circling '
p2653
I1
sS'jail '
p2654
I1
sS'walk '
p2655
I226
sS'forgive '
p2656
I1
sS'can '
p2657
I4
sS'isidora '
p2658
I1
sS'move '
p2659
I75
sS'loose '
p2660
I1
sS'proceed '
p2661
I4
sS'moving '
p2662
I14
sS'couldn '
p2663
I1
sS'see '
p2664
I6
sS'heading '
p2665
I7
sS'carry '
p2666
I1
sS'cover '
p2667
I1
sS'shall '
p2668
I8
sS'dating '
p2669
I1
sS'excuse '
p2670
I1
sS'here '
p2671
I4
sS'don '
p2672
I1
sS'get '
p2673
I219
sS'gone '
p2674
I11
sS'alone '
p2675
I1
sS'leave, '
p2676
I1
sS'calm '
p2677
I2
sS'edward '
p2678
I1
sS'mosey '
p2679
I1
sS'dinner '
p2680
I1
sS'haley '
p2681
I1
sS'back '
p2682
I6
stp2683
a((lp2684
S'aufgefallen'
p2685
aS'Aufgefallen'
p2686
a(dp2687
S'occured '
p2688
I1
sS'across '
p2689
I1
sS'realised '
p2690
I1
sS'realized '
p2691
I4
sS'occurred '
p2692
I2
sS'possible '
p2693
I1
sS'hit '
p2694
I1
sS'allver '
p2695
I1
sS'saw '
p2696
I1
sS'whoo '
p2697
I1
sS'noticed '
p2698
I51
sS'serious '
p2699
I1
sS'notices '
p2700
I1
sS'occurs '
p2701
I1
sS'see '
p2702
I2
sS'spaceman '
p2703
I1
sS'oddity '
p2704
I1
sS'noticing '
p2705
I4
sS'notice '
p2706
I28
sS'attention '
p2707
I1
sS'occur '
p2708
I2
sS'birthday '
p2709
I1
sS'skillfully '
p2710
I1
sS'spotted '
p2711
I1
stp2712
a((lp2713
S'?'
p2714
aS'?'
p2715
a(dp2716
S'matter '
p2717
I2
sS'hand '
p2718
I4
sS'effect '
p2719
I2
sS'that '
p2720
I4
sS': '
p2721
I280
sS'??? '
p2722
I10
sS'mean '
p2723
I6
sS'break '
p2724
I2
sS'.... '
p2725
I6
sS'before '
p2726
I2
sS'did '
p2727
I4
sS'possible '
p2728
I2
sS'work '
p2729
I2
sS'duty '
p2730
I2
sS'with '
p2731
I4
sS'up '
p2732
I10
sS'seen '
p2733
I2
sS'mother '
p2734
I2
sS'disrupter '
p2735
I2
sS'banter '
p2736
I2
sS'slee '
p2737
I2
sS'little '
p2738
I2
sS'badge '
p2739
I4
sS'it '
p2740
I2
sS'.. '
p2741
I18
sS'about '
p2742
I8
sS'opens '
p2743
I2
sS'please '
p2744
I2
sS'the '
p2745
I4
sS'idiot '
p2746
I2
sS'rest '
p2747
I2
sS'- '
p2748
I14
sS'degree '
p2749
I12
sS'jar '
p2750
I2
sS'talking '
p2751
I12
sS'unseres '
p2752
I2
sS'married '
p2753
I4
sS'\\u2026 '
p2754
I14
sS'matter, '
p2755
I2
sS'rlngs '
p2756
I2
sS'them '
p2757
I4
sS'_ '
p2758
I2
sS'sex '
p2759
I2
sS'house '
p2760
I2
sS'anything '
p2761
I2
sS'a. '
p2762
I4
sS'me '
p2763
I54
sS'her '
p2764
I12
sS'minutes '
p2765
I2
sS'clearly, '
p2766
I2
sS'tattoo '
p2767
I2
sS'???? '
p2768
I2
sS'an '
p2769
I2
sS'car '
p2770
I2
sS'should '
p2771
I2
sS'lake '
p2772
I2
sS'deathwalker '
p2773
I2
sS'just '
p2774
I2
sS'face '
p2775
I4
sS'd. '
p2776
I4
sS'*** '
p2777
I16
sS'alreadydie '
p2778
I2
sS'i> '
p2779
I2
sS'yes '
p2780
I2
sS'man '
p2781
I2
sS'years '
p2782
I2
sS'is '
p2783
I14
sS'him '
p2784
I16
sS'doing '
p2785
I4
sS'guess '
p2786
I2
sS'think '
p2787
I6
sS'; '
p2788
I6
sS'authentical '
p2789
I2
sS'say '
p2790
I6
sS'glass '
p2791
I2
sS'h. '
p2792
I2
sS'famous '
p2793
I2
sS'feels '
p2794
I2
sS'himself '
p2795
I2
sS'hawaii '
p2796
I2
sS'gun '
p2797
I2
sS'out '
p2798
I4
sS"'s "
p2799
I4
sS'\\u00e2\\u0099\\u00aa '
p2800
I2
sS'] '
p2801
I398
sS'\\u266a '
p2802
I50
sS'here '
p2803
I14
sS'! '
p2804
I3292
sS'girl '
p2805
I2
sS'inzaghi '
p2806
I2
sS'want '
p2807
I8
sS'guy '
p2808
I2
sS'know '
p2809
I4
sS'> '
p2810
I2
sS') '
p2811
I196
sS'i- '
p2812
I2
sS'fast '
p2813
I2
sS'. '
p2814
I28498
sS'shop '
p2815
I2
sS'now '
p2816
I2
sS'exclusive '
p2817
I2
sS'sure '
p2818
I2
sS'baby '
p2819
I2
sS'home '
p2820
I2
sS'right '
p2821
I2
sS'place '
p2822
I2
sS'hair '
p2823
I4
sS'enough '
p2824
I2
sS'ago '
p2825
I2
sS'virgin '
p2826
I4
sS'gently '
p2827
I2
sS'\xc3\x9f '
p2828
I4
sS'samoa '
p2829
I2
sS'you '
p2830
I8
sS'dreamy '
p2831
I2
sS'confidence '
p2832
I2
sS'straight '
p2833
I2
sS'callfornla '
p2834
I2
sS'volcanoes '
p2835
I2
sS'... '
p2836
I1700
sS'us '
p2837
I8
sS'bit '
p2838
I2
sS'life '
p2839
I4
sS'to '
p2840
I2
sS'holding '
p2841
I2
sS'??????? '
p2842
I2
sS'gonna '
p2843
I2
sS'thought '
p2844
I4
sS'friend '
p2845
I2
sS'said '
p2846
I2
sS'j. '
p2847
I2
sS'secret '
p2848
I2
sS'princess '
p2849
I2
sS"' "
p2850
I16
sS'water '
p2851
I2
sS'-- '
p2852
I208
sS"'t "
p2853
I2
sS'!! '
p2854
I12
sS', '
p2855
I2812
sS'hon. '
p2856
I2
sS'do '
p2857
I6
sS'your '
p2858
I2
sS'touch '
p2859
I2
sS'escort '
p2860
I2
sS'" '
p2861
I58
sS'both '
p2862
I2
sS'hospital '
p2863
I4
sS'***** '
p2864
I2
sS'week '
p2865
I2
sS'i '
p2866
I2
sS'lunch '
p2867
I2
sS'been '
p2868
I2
sS'* '
p2869
I26
sS'? '
p2870
I481190
sS'rose '
p2871
I2
sS'like '
p2872
I4
sS'?? '
p2873
I38
sS'brown '
p2874
I2
sS'ipso '
p2875
I2
sS'night '
p2876
I2
sS'yeah '
p2877
I2
sS'back '
p2878
I2
stp2879
a((lp2880
S'mustafa'
p2881
aS'Mustafa'
p2882
a(dp2883
S'mustafa '
p2884
I10
sS'possible '
p2885
I1
sS'will '
p2886
I1
stp2887
a((lp2888
S'k\xc3\xb6nnten'
p2889
aS'K\xc3\xb6nnten'
p2890
a(dp2891
S'gotta '
p2892
I1
sS'may '
p2893
I68
sS'would '
p2894
I42
sS"'d "
p2895
I18
sS'mightbe '
p2896
I1
sS'guess '
p2897
I1
sS'should '
p2898
I13
sS'ould '
p2899
I1
sS'numbers '
p2900
I1
sS'just '
p2901
I5
sS'look '
p2902
I1
sS'possible '
p2903
I1
sS'need '
p2904
I2
sS'do '
p2905
I5
sS'could '
p2906
I1603
sS'wonder '
p2907
I2
sS'couldjust '
p2908
I1
sS'make '
p2909
I1
sS'sure '
p2910
I1
sS'wouldn '
p2911
I1
sS'if '
p2912
I8
sS'were '
p2913
I1
sS'mind '
p2914
I2
sS'can '
p2915
I282
sS'oh '
p2916
I1
sS'might '
p2917
I205
sS'couldn '
p2918
I28
sS'don '
p2919
I1
sS'about '
p2920
I1
sS'apartment '
p2921
I1
sS'think '
p2922
I1
sS'what '
p2923
I3
sS'procedure '
p2924
I1
sS'able '
p2925
I3
sS'thanks '
p2926
I2
sS'remains '
p2927
I1
sS'maybe '
p2928
I10
sS'like '
p2929
I1
sS'- '
p2930
I1
sS'are '
p2931
I1
sS'ages '
p2932
I1
sS'outfield '
p2933
I1
sS'must '
p2934
I1
sS'??? '
p2935
I1
sS'will '
p2936
I6
sS'yeah '
p2937
I1
stp2938
a((lp2939
S'possible'
p2940
aS'Possible'
p2941
a(dp2942
S'mother '
p2943
I1
sS'possible '
p2944
I1
stp2945
a((lp2946
S'k\xc3\xa4sest\xc3\xa4bchen'
p2947
aS'K\xc3\xa4sest\xc3\xa4bchen'
p2948
a(dp2949
S'dummy '
p2950
I1
sS'possible '
p2951
I1
sS'popular '
p2952
I1
sS'sticks '
p2953
I2
sS'stop '
p2954
I1
stp2955
a((lp2956
S'nummern'
p2957
aS'Nummern'
p2958
a(dp2959
S'sizes '
p2960
I1
sS'tactics '
p2961
I1
sS'possible '
p2962
I1
sS'number '
p2963
I5
sS'entertaining '
p2964
I1
sS'digits '
p2965
I1
sS'lines '
p2966
I4
sS'numbers '
p2967
I90
stp2968
a((lp2969
S'beischlaf'
p2970
aS'Beischlaf'
p2971
a(dp2972
S'project '
p2973
I1
sS'possible '
p2974
I1
stp2975
a((lp2976
S'buben'
p2977
aS'Buben'
p2978
a(dp2979
S'son '
p2980
I1
sS'cowboy, '
p2981
I1
sS'possible '
p2982
I1
sS'jacks '
p2983
I7
sS'guys '
p2984
I2
sS'guy '
p2985
I4
sS'jack '
p2986
I3
sS'boys '
p2987
I2
stp2988
a((lp2989
S'lamonsoff'
p2990
aS'Lamonsoff'
p2991
a(dp2992
S'this '
p2993
I1
sS'possible '
p2994
I1
sS'eating '
p2995
I1
sS'electric '
p2996
I1
sS'geils '
p2997
I1
sS'moustache '
p2998
I1
sS'blob '
p2999
I1
sS'whistling '
p3000
I1
stp3001
a((lp3002
S'okay'
p3003
aS'Okay'
p3004
a(dp3005
S'stay '
p3006
I3
sS'okayso '
p3007
I1
sS'cam '
p3008
I1
sS'micah '
p3009
I1
sS'bedroom '
p3010
I1
sS'lesbian '
p3011
I1
sS'really '
p3012
I5
sS'absolutely '
p3013
I1
sS"'all "
p3014
I1
sS'leonard '
p3015
I2
sS'mother '
p3016
I1
sS'turn '
p3017
I1
sS'coolers '
p3018
I1
sS'hmm '
p3019
I9
sS'wrong '
p3020
I2
sS'tomorrow '
p3021
I2
sS'relax '
p3022
I3
sS'- '
p3023
I34
sS'help '
p3024
I1
sS'arthur '
p3025
I1
sS'other '
p3026
I1
sS'me '
p3027
I2
sS'her '
p3028
I2
sS'and '
p3029
I1
sS'staying '
p3030
I1
sS'that '
p3031
I5
sS'leave '
p3032
I2
sS'screws '
p3033
I1
sS'mischief '
p3034
I1
sS'plea '
p3035
I1
sS'think '
p3036
I1
sS'grab '
p3037
I1
sS'maybe '
p3038
I1
sS'kenchy '
p3039
I1
sS'patiently '
p3040
I1
sS'firm '
p3041
I1
sS'chris '
p3042
I1
sS'cheese '
p3043
I1
sS'\\u266a '
p3044
I1
sS'here '
p3045
I8
sS'suburbs '
p3046
I1
sS'know '
p3047
I1
sS'prentice '
p3048
I1
sS'sarcasm '
p3049
I1
sS'lady '
p3050
I1
sS'ball '
p3051
I1
sS'right '
p3052
I1369
sS'planning '
p3053
I1
sS'believe '
p3054
I1
sS'fucking '
p3055
I1
sS'ordering '
p3056
I1
sS'ahead '
p3057
I3
sS'inside '
p3058
I1
sS'shit '
p3059
I2
sS'ay '
p3060
I3
sS'nothing '
p3061
I2
sS'take '
p3062
I1
sS'flaw '
p3063
I2
sS'cannulate '
p3064
I1
sS'until '
p3065
I1
sS'guy '
p3066
I1
sS'gulllermo '
p3067
I1
sS"'t "
p3068
I1
sS'sec '
p3069
I1
sS'class '
p3070
I2
sS'aldo '
p3071
I1
sS's '
p3072
I1
sS'listen '
p3073
I2
sS'lem '
p3074
I1
sS'awesome '
p3075
I1
sS'impede '
p3076
I1
sS'pritchett '
p3077
I1
sS'napkin- '
p3078
I1
sS'claire '
p3079
I1
sS'likey '
p3080
I1
sS'gone '
p3081
I1
sS'appropriate '
p3082
I1
sS'improved '
p3083
I2
sS'aah '
p3084
I2
sS'dinner '
p3085
I2
sS'ok, '
p3086
I10
sS'sweet '
p3087
I1
sS'alarm '
p3088
I1
sS'uh '
p3089
I4
sS'driving '
p3090
I2
sS'no '
p3091
I11
sS'ok '
p3092
I1282
sS'covered '
p3093
I1
sS'shh '
p3094
I1
sS'jeez '
p3095
I1
sS'mom '
p3096
I3
sS'wow '
p3097
I4
sS'naughty '
p3098
I1
sS'powerful '
p3099
I1
sS'michael '
p3100
I1
sS'then '
p3101
I2
sS'hetty '
p3102
I1
sS'josh '
p3103
I1
sS'ready '
p3104
I10
sS'fowler '
p3105
I1
sS'look '
p3106
I12
sS'readers '
p3107
I1
sS'welcome '
p3108
I2
sS'badge '
p3109
I1
sS'it '
p3110
I14
sS'great '
p3111
I6
sS'inconsistencies '
p3112
I1
sS'remnant '
p3113
I1
sS'reschedule '
p3114
I1
sS'alrighty '
p3115
I2
sS'all '
p3116
I67
sS'fine '
p3117
I163
sS'fbl '
p3118
I1
sS'fi '
p3119
I1
sS"'re "
p3120
I1
sS'twice '
p3121
I1
sS'dung '
p3122
I1
sS'soon '
p3123
I1
sS'trouble '
p3124
I1
sS'rehearse '
p3125
I1
sS'ncls '
p3126
I1
sS'got '
p3127
I4
sS'later '
p3128
I1
sS'mm '
p3129
I2
sS'scout '
p3130
I1
sS'yes '
p3131
I9
sS'is '
p3132
I2
sS'blue '
p3133
I1
sS'occasionally '
p3134
I2
sS'high- '
p3135
I1
sS'cupcakes '
p3136
I1
sS'go '
p3137
I15
sS'golden '
p3138
I1
sS'disgust '
p3139
I1
sS'trust '
p3140
I2
sS'cop '
p3141
I1
sS'but '
p3142
I4
sS'too '
p3143
I2
sS'relieve '
p3144
I1
sS'1- '
p3145
I1
sS'casey '
p3146
I1
sS'mmm '
p3147
I2
sS'nah '
p3148
I1
sS'i- '
p3149
I1
sS'family '
p3150
I2
sS'gay '
p3151
I1
sS'sure '
p3152
I9
sS'easy '
p3153
I1
sS'stuart '
p3154
I2
sS'compliment '
p3155
I1
sS'enough '
p3156
I1
sS'look, '
p3157
I1
sS'bacteriostatic '
p3158
I1
sS'sound '
p3159
I1
sS'on '
p3160
I1
sS'ooh '
p3161
I1
sS'don '
p3162
I6
sS'serious '
p3163
I2
sS'immediately '
p3164
I1
sS'okay, '
p3165
I302
sS'give '
p3166
I2
sS'bit '
p3167
I2
sS'head '
p3168
I2
sS'messin '
p3169
I2
sS'britta '
p3170
I1
sS'fucker '
p3171
I1
sS'repay '
p3172
I1
sS'huh '
p3173
I19
sS'well '
p3174
I63
sS'supposed '
p3175
I2
sS'duffy '
p3176
I1
sS'do '
p3177
I6
sS'first '
p3178
I2
sS'window '
p3179
I2
sS'beef '
p3180
I1
sS'promising '
p3181
I1
sS'meosdelrotteodeulragohae '
p3182
I1
sS'lisbon '
p3183
I1
sS'see '
p3184
I4
sS'* '
p3185
I1
sS'photos '
p3186
I1
sS'mainland '
p3187
I1
sS'kay '
p3188
I7
sS'104 '
p3189
I1
sS'not '
p3190
I4
sS'haley '
p3191
I1
sS'something '
p3192
I2
sS'exchange '
p3193
I1
sS'word '
p3194
I1
sS'medic '
p3195
I1
sS'hi '
p3196
I2
sS"'okay "
p3197
I1
sS'ugh '
p3198
I1
sS'golf '
p3199
I2
sS'cordial '
p3200
I1
sS'|| '
p3201
I1
sS'try '
p3202
I1
sS'depressed '
p3203
I1
sS'down- '
p3204
I1
sS'please '
p3205
I7
sS'embarrass '
p3206
I1
sS'ringtone '
p3207
I1
sS'replanted '
p3208
I1
sS'anything '
p3209
I3
sS'next '
p3210
I1
sS'design '
p3211
I1
sS'sucre '
p3212
I1
sS'friends '
p3213
I1
sS'probably '
p3214
I1
sS'symptoms '
p3215
I1
sS'proud '
p3216
I1
sS'sheldon '
p3217
I4
sS'bye '
p3218
I2
sS'once '
p3219
I1
sS'ireon '
p3220
I1
sS'benton '
p3221
I1
sS'because '
p3222
I1
sS'game '
p3223
I1
sS'wheel '
p3224
I1
sS'come '
p3225
I7
sS'invite '
p3226
I1
sS'man '
p3227
I2
sS'thought '
p3228
I1
sS'secret '
p3229
I1
sS'mind '
p3230
I4
sS'doing '
p3231
I1
sS'gotcha '
p3232
I1
sS'anyway '
p3233
I1
sS'exactly '
p3234
I1
sS'hey, '
p3235
I1
sS'already '
p3236
I1
sS'thanks '
p3237
I7
sS'possible '
p3238
I1
sS'radios '
p3239
I1
sS'no, '
p3240
I2
sS'check '
p3241
I2
sS'righty, '
p3242
I1
sS'henry '
p3243
I2
sS"'s "
p3244
I4
sS'starting '
p3245
I1
sS'initiating '
p3246
I1
sS'karner '
p3247
I1
sS'go, '
p3248
I1
sS'angle '
p3249
I1
sS'deens '
p3250
I1
sS'done '
p3251
I1
sS'spanish '
p3252
I2
sS'dropped '
p3253
I1
sS'there '
p3254
I3
sS'hey '
p3255
I24
sS'if '
p3256
I4
sS'conworthy '
p3257
I1
sS'arcade '
p3258
I1
sS'panic '
p3259
I1
sS'whatever '
p3260
I1
sS'dude '
p3261
I1
sS'storybook '
p3262
I1
sS'okay '
p3263
I11003
sS'angry '
p3264
I2
sS'whoah '
p3265
I1
sS'will '
p3266
I21
sS'ya '
p3267
I4
sS'tabs '
p3268
I1
sS'outstanding '
p3269
I1
sS'where '
p3270
I1
sS'meet '
p3271
I1
sS'alright '
p3272
I47
sS'though '
p3273
I1
sS'room '
p3274
I1
sS'flake '
p3275
I1
sS'wonderingabout '
p3276
I1
sS'clear '
p3277
I2
sS'dad '
p3278
I1
sS'meals '
p3279
I1
sS'okayi '
p3280
I1
sS'how '
p3281
I3
sS'some '
p3282
I1
sS'164 '
p3283
I1
sS'read '
p3284
I2
sS'can '
p3285
I2
sS'happened '
p3286
I1
sS'simon '
p3287
I1
sS'guns '
p3288
I3
sS'i '
p3289
I48
sS'bro '
p3290
I1
sS'kyle '
p3291
I1
sS'get '
p3292
I1
sS'yougotta '
p3293
I1
sS'ew '
p3294
I3
sS'shir '
p3295
I1
sS"'skay "
p3296
I1
sS'cool '
p3297
I33
sS'thing '
p3298
I1
sS'okeydoke '
p3299
I3
sS'chores '
p3300
I1
sS'undercurrent '
p3301
I1
sS'only '
p3302
I1
sS'am '
p3303
I1
sS'??? '
p3304
I1
sS'test '
p3305
I1
sS'kill '
p3306
I1
sS'twat '
p3307
I1
sS'perfect '
p3308
I1
sS'zombie '
p3309
I1
sS'shoes '
p3310
I1
sS'understand '
p3311
I3
sS'work '
p3312
I1
sS'rhlannon '
p3313
I1
sS'adam '
p3314
I1
sS'thank '
p3315
I6
sS'( '
p3316
I2
sS'sorry '
p3317
I4
sS'let '
p3318
I13
sS'we '
p3319
I9
sS'badly '
p3320
I1
sS'career '
p3321
I1
sS'ohh '
p3322
I3
sS'totally '
p3323
I1
sS'shen '
p3324
I1
sS'zip '
p3325
I1
sS'vain '
p3326
I1
sS"'ll "
p3327
I1
sS'walk '
p3328
I1
sS'besides '
p3329
I1
sS'just '
p3330
I14
sS'iguana '
p3331
I1
sS'o '
p3332
I4
sS'good '
p3333
I45
sS'clean '
p3334
I1
sS'oscar '
p3335
I1
sS'miles '
p3336
I1
sS'she '
p3337
I1
sS'pete '
p3338
I1
sS'erm '
p3339
I1
sS'dexter '
p3340
I1
sS'sociopath '
p3341
I1
sS'five '
p3342
I1
sS'righ '
p3343
I1
sS'works '
p3344
I1
sS'understanding '
p3345
I1
sS'um '
p3346
I5
sS'cooh '
p3347
I1
sS'needle '
p3348
I1
sS'agreed '
p3349
I1
sS'boss '
p3350
I2
sS'now '
p3351
I10
sS'morning '
p3352
I1
sS'butter '
p3353
I1
sS'right, '
p3354
I26
sS'. '
p3355
I1
sS'theory '
p3356
I1
sS'brave '
p3357
I1
sS'place '
p3358
I2
sS'ghouse '
p3359
I1
sS'why '
p3360
I3
sS'so '
p3361
I15
sS'ah '
p3362
I4
sS'um, '
p3363
I1
sS'you '
p3364
I30
sS'hands '
p3365
I1
sS'olivia '
p3366
I1
sS'gave '
p3367
I1
sS'what '
p3368
I6
sS'chopper '
p3369
I1
sS'this '
p3370
I6
sS'stressful '
p3371
I1
sS'[ '
p3372
I4
sS'wait '
p3373
I3
sS'dlckerson '
p3374
I1
sS'eh '
p3375
I6
sS'eyes '
p3376
I1
sS'planned '
p3377
I1
sS'stock '
p3378
I1
sS'philadelphia '
p3379
I2
sS"' "
p3380
I1
sS'well, '
p3381
I2
sS'whispering '
p3382
I1
sS'problem '
p3383
I2
sS'ginsburg '
p3384
I1
sS'neil '
p3385
I1
sS'suffer '
p3386
I1
sS'sick '
p3387
I1
sS'jesus '
p3388
I1
sS'god '
p3389
I3
sS'move '
p3390
I1
sS'again '
p3391
I1
sS'oh '
p3392
I28
sS'okayy '
p3393
I1
sS'whoa '
p3394
I2
sS'potteryville '
p3395
I1
sS'gary '
p3396
I1
sS'shall '
p3397
I7
sS'unless '
p3398
I1
sS'slumber '
p3399
I1
sS'confused '
p3400
I1
sS'sergei '
p3401
I1
sS'yeah '
p3402
I54
sS'eyeing '
p3403
I1
sS"'kay "
p3404
I2
sS'back '
p3405
I4
stp3406
a((lp3407
S'k\xc3\xbcrzester'
p3408
aS'K\xc3\xbcrzester'
p3409
a(dp3410
S'blank '
p3411
I1
sS'no '
p3412
I5
sS'possible '
p3413
I1
stp3414
a((lp3415
S'angerufen'
p3416
aS'Angerufen'
p3417
a(dp3418
S'checked '
p3419
I1
sS'kept '
p3420
I1
sS'jer '
p3421
I1
sS'calling '
p3422
I57
sS'telephoned '
p3423
I2
sS'called '
p3424
I731
sS'buzzed '
p3425
I2
sS'cailing '
p3426
I1
sS'letting '
p3427
I1
sS'messages '
p3428
I1
sS'sorry '
p3429
I1
sS'own '
p3430
I1
sS'telephone '
p3431
I1
sS'song '
p3432
I1
sS'bartender '
p3433
I1
sS'ringing '
p3434
I2
sS'ihop '
p3435
I1
sS'right '
p3436
I2
sS'call '
p3437
I176
sS'rang '
p3438
I10
sS'called, '
p3439
I2
sS'dialed '
p3440
I5
sS'spoke '
p3441
I1
sS'risky '
p3442
I1
sS'congratulations '
p3443
I1
sS'arod '
p3444
I1
sS'tell '
p3445
I1
sS'calls '
p3446
I5
sS'through '
p3447
I3
sS'cailed '
p3448
I1
sS'phone '
p3449
I4
sS'been '
p3450
I1
sS'calleom '
p3451
I1
sS'sense '
p3452
I1
sS'fault '
p3453
I1
sS'universal '
p3454
I1
sS'possible '
p3455
I1
sS'here '
p3456
I3
sS'miss '
p3457
I1
sS'phoned '
p3458
I18
sS'front '
p3459
I1
sS'rung '
p3460
I1
sS'without '
p3461
I1
sS'flaw '
p3462
I1
sS'surprise '
p3463
I1
sS'holding '
p3464
I1
sS'who '
p3465
I2
sS'message '
p3466
I1
stp3467
a((lp3468
S'schaffen'
p3469
aS'Schaffen'
p3470
a(dp3471
S'going '
p3472
I4
sS'accomplish '
p3473
I3
sS'goods '
p3474
I3
sS'break '
p3475
I1
sS'making '
p3476
I5
sS'make '
p3477
I272
sS'perfect '
p3478
I1
sS'this, '
p3479
I1
sS'possible '
p3480
I1
sS'work '
p3481
I6
sS'up '
p3482
I1
sS'busted '
p3483
I2
sS'manage '
p3484
I22
sS'room '
p3485
I1
sS'fiix '
p3486
I2
sS'pass '
p3487
I1
sS'let '
p3488
I4
sS'fine '
p3489
I6
sS"'re "
p3490
I4
sS'read '
p3491
I1
sS'getting '
p3492
I1
sS'got '
p3493
I2
sS"'ll "
p3494
I16
sS'fix '
p3495
I5
sS'create '
p3496
I35
sS'figure '
p3497
I3
sS'finish '
p3498
I4
sS'could '
p3499
I3
sS'algae '
p3500
I1
sS'change '
p3501
I2
sS'good '
p3502
I1
sS'carry '
p3503
I1
sS'278 '
p3504
I1
sS'leave '
p3505
I1
sS'compensate '
p3506
I1
sS'drink '
p3507
I1
sS'hurts '
p3508
I1
sS'through '
p3509
I5
sS'checks '
p3510
I1
sS'able '
p3511
I8
sS'thanks '
p3512
I3
sS'drivin '
p3513
I1
sS'out '
p3514
I1
sS'fail '
p3515
I4
sS'way '
p3516
I8
sS'live '
p3517
I2
sS'hope '
p3518
I1
sS'survive '
p3519
I1
sS'have '
p3520
I1
sS'done '
p3521
I5
sS'remove '
p3522
I2
sS'loathe '
p3523
I1
sS'allright '
p3524
I2
sS'mistakes, '
p3525
I1
sS'right '
p3526
I6
sS'build '
p3527
I2
sS'know, '
p3528
I1
sS'shipping '
p3529
I1
sS'tampering '
p3530
I2
sS'pull '
p3531
I7
sS'off '
p3532
I3
sS'succeed '
p3533
I1
sS'means '
p3534
I1
sS'handle '
p3535
I4
sS'okay '
p3536
I5
sS'are '
p3537
I2
sS'survival '
p3538
I2
sS'threepeat '
p3539
I1
sS'take '
p3540
I7
sS'will '
p3541
I4
sS'youout '
p3542
I1
sS'hang '
p3543
I1
sS'gonna '
p3544
I5
sS'creating '
p3545
I2
sS'rush '
p3546
I1
sS'desk '
p3547
I1
sS'these '
p3548
I1
sS'iwant '
p3549
I1
sS'do '
p3550
I132
sS'wandering '
p3551
I1
sS'treat '
p3552
I1
sS'win '
p3553
I1
sS'breathe '
p3554
I1
sS'beat '
p3555
I3
sS'can '
p3556
I47
sS'saving '
p3557
I1
sS'move '
p3558
I1
sS'moving '
p3559
I1
sS'hear '
p3560
I1
sS'fight '
p3561
I2
sS'cover '
p3562
I1
sS'pulling '
p3563
I2
sS'get '
p3564
I123
stp3565
a.