(lp0
((lp1
S'erschaffen'
p2
aS'Erschaffen'
p3
a(dp4
S'recreate '
p5
I3
sS'reinvent '
p6
I1
sS'create '
p7
I75
sS'possible '
p8
I1
sS'built '
p9
I8
sS'exists '
p10
I1
sS'created '
p11
I81
sS'dunk '
p12
I1
sS'creates '
p13
I1
sS'creating '
p14
I14
sS'make '
p15
I7
sS'made '
p16
I11
sS'pilly '
p17
I1
sS'fuels '
p18
I1
sS'building '
p19
I1
sS'trucked '
p20
I2
sS'rebuild '
p21
I1
sS'making '
p22
I1
sS'designed '
p23
I2
stp24
a((lp25
S'schaffen'
p26
aS'Schaffen'
p27
a(dp28
S'going '
p29
I4
sS'accomplish '
p30
I3
sS'goods '
p31
I3
sS'break '
p32
I1
sS'making '
p33
I5
sS'make '
p34
I272
sS'perfect '
p35
I1
sS'this, '
p36
I1
sS'possible '
p37
I1
sS'work '
p38
I6
sS'up '
p39
I1
sS'busted '
p40
I2
sS'manage '
p41
I22
sS'room '
p42
I1
sS'fiix '
p43
I2
sS'pass '
p44
I1
sS'let '
p45
I4
sS'fine '
p46
I6
sS"'re "
p47
I4
sS'read '
p48
I1
sS'getting '
p49
I1
sS'got '
p50
I2
sS"'ll "
p51
I16
sS'fix '
p52
I5
sS'create '
p53
I35
sS'figure '
p54
I3
sS'finish '
p55
I4
sS'could '
p56
I3
sS'algae '
p57
I1
sS'change '
p58
I2
sS'good '
p59
I1
sS'carry '
p60
I1
sS'278 '
p61
I1
sS'leave '
p62
I1
sS'compensate '
p63
I1
sS'drink '
p64
I1
sS'hurts '
p65
I1
sS'through '
p66
I5
sS'checks '
p67
I1
sS'able '
p68
I8
sS'thanks '
p69
I3
sS'drivin '
p70
I1
sS'out '
p71
I1
sS'fail '
p72
I4
sS'way '
p73
I8
sS'live '
p74
I2
sS'hope '
p75
I1
sS'survive '
p76
I1
sS'have '
p77
I1
sS'done '
p78
I5
sS'remove '
p79
I2
sS'loathe '
p80
I1
sS'allright '
p81
I2
sS'mistakes, '
p82
I1
sS'right '
p83
I6
sS'build '
p84
I2
sS'know, '
p85
I1
sS'shipping '
p86
I1
sS'tampering '
p87
I2
sS'pull '
p88
I7
sS'off '
p89
I3
sS'succeed '
p90
I1
sS'means '
p91
I1
sS'handle '
p92
I4
sS'okay '
p93
I5
sS'are '
p94
I2
sS'survival '
p95
I2
sS'threepeat '
p96
I1
sS'take '
p97
I7
sS'will '
p98
I4
sS'youout '
p99
I1
sS'hang '
p100
I1
sS'gonna '
p101
I5
sS'creating '
p102
I2
sS'rush '
p103
I1
sS'desk '
p104
I1
sS'these '
p105
I1
sS'iwant '
p106
I1
sS'do '
p107
I132
sS'wandering '
p108
I1
sS'treat '
p109
I1
sS'win '
p110
I1
sS'breathe '
p111
I1
sS'beat '
p112
I3
sS'can '
p113
I47
sS'saving '
p114
I1
sS'move '
p115
I1
sS'moving '
p116
I1
sS'hear '
p117
I1
sS'fight '
p118
I2
sS'cover '
p119
I1
sS'pulling '
p120
I2
sS'get '
p121
I123
stp122
a((lp123
S'erzeugen'
p124
aS'Erzeugen'
p125
a(dp126
S'create '
p127
I11
sS'creating '
p128
I4
sS'sustain '
p129
I1
sS'generating '
p130
I1
sS'produce '
p131
I2
sS'builds '
p132
I2
sS'generate '
p133
I12
stp134
a((lp135
S'kreieren'
p136
aS'Kreieren'
p137
a(dp138
S'create '
p139
I9
sS'weaponize '
p140
I6
sS'build '
p141
I1
sS'creating '
p142
I2
stp143
a((lp144
S'schaffe'
p145
aS'Schaffe'
p146
a(dp147
S'level '
p148
I2
sS'laden '
p149
I1
sS"'m "
p150
I11
sS'am '
p151
I2
sS'got '
p152
I11
sS'saturdays '
p153
I1
sS'would '
p154
I1
sS'most- '
p155
I1
sS"'ll "
p156
I11
sS'gather '
p157
I2
sS'create '
p158
I6
sS'work '
p159
I2
sS'do '
p160
I3
sS'could '
p161
I5
sS'up '
p162
I2
sS'make '
p163
I20
sS'adam '
p164
I1
sS'footloose '
p165
I1
sS'manage '
p166
I4
sS'arrest '
p167
I1
sS'can '
p168
I91
sS'can, '
p169
I1
sS'bi\\u0436u '
p170
I1
sS'swastikas '
p171
I1
sS'hat '
p172
I1
sS'able '
p173
I2
sS'handle '
p174
I1
sS'celebrating '
p175
I1
sS'inside '
p176
I1
sS'hoping '
p177
I1
sS'take '
p178
I1
sS'tick '
p179
I1
stp180
a((lp181
S'erstellen'
p182
aS'Erstellen'
p183
a(dp184
S'virgin '
p185
I1
sS'create '
p186
I5
sS'old- '
p187
I1
sS'draw '
p188
I3
sS'harassment '
p189
I1
sS'spent '
p190
I1
sS'construct '
p191
I1
stp192
a((lp193
S'erstellt'
p194
aS'Erstellt'
p195
a(dp196
S'does '
p197
I2
sS'manufactured '
p198
I2
sS'create '
p199
I3
sS'created '
p200
I3
sS'issued '
p201
I1
sS'wrote '
p202
I1
sS'bird '
p203
I1
sS'made '
p204
I1
sS'builds '
p205
I2
sS'draw '
p206
I1
sS'compiled '
p207
I3
stp208
a((lp209
S'bauen'
p210
aS'Bauen'
p211
a(dp212
S'develop '
p213
I2
sS'stronger '
p214
I2
sS'relieve '
p215
I1
sS'putting '
p216
I3
sS'car, '
p217
I1
sS'together '
p218
I1
sS'construct '
p219
I2
sS'create '
p220
I3
sS'set '
p221
I2
sS'finish '
p222
I2
sS'expanding '
p223
I4
sS'up '
p224
I1
sS'make '
p225
I17
sS'brunch '
p226
I1
sS'build '
p227
I156
sS'depend '
p228
I1
sS'built '
p229
I4
sS'blow '
p230
I1
sS'assemble '
p231
I7
sS'wrong '
p232
I2
sS'building '
p233
I46
sS'alreadywent '
p234
I1
sS'give '
p235
I1
sS'grow '
p236
I1
sS'rebuild '
p237
I2
sS'construction '
p238
I1
sS'put '
p239
I1
sS'do '
p240
I1
sS'back '
p241
I1
stp242
a((lp243
S'erschafft'
p244
aS'Erschafft'
p245
a(dp246
S'create '
p247
I3
sS'created '
p248
I2
sS'creative '
p249
I1
sS'brings '
p250
I2
sS'creates '
p251
I6
sS'creating '
p252
I4
sS'makes '
p253
I2
sS'mph '
p254
I1
sS'evolves '
p255
I1
sS'performs '
p256
I1
sS'construct '
p257
I2
stp258
a((lp259
S'machen'
p260
aS'Machen'
p261
a(dp262
S'one '
p263
I1
sS"'m "
p264
I1
sS'going '
p265
I12
sS'better '
p266
I1
sS'only '
p267
I1
sS'knock '
p268
I2
sS'do, '
p269
I7
sS'no '
p270
I1
sS'project '
p271
I2
sS'would '
p272
I1
sS'party '
p273
I1
sS'while '
p274
I3
sS'kill '
p275
I1
sS'please '
p276
I6
sS'continue '
p277
I1
sS'down '
p278
I1
sS'making '
p279
I177
sS'lessons '
p280
I1
sS'deal '
p281
I5
sS'did '
p282
I4
sS'joe '
p283
I1
sS'hit '
p284
I1
sS'work '
p285
I11
sS'then '
p286
I2
sS'really '
p287
I1
sS'with '
p288
I4
sS'up '
p289
I37
sS'regrettable '
p290
I1
sS'cook '
p291
I1
sS'won '
p292
I1
sS'gomey '
p293
I1
sS'follow '
p294
I6
sS'try '
p295
I1
sS'truth '
p296
I1
sS'manage '
p297
I3
sS'relax '
p298
I1
sS'for '
p299
I7
sS'cut '
p300
I2
sS'room '
p301
I4
sS'this '
p302
I2
sS'dowith '
p303
I1
sS'consist '
p304
I1
sS'it '
p305
I9
sS'kids '
p306
I1
sS'about '
p307
I8
sS'meeting '
p308
I1
sS'sorry '
p309
I1
sS'seal '
p310
I1
sS'flip '
p311
I1
sS'sight '
p312
I1
sS"'ve "
p313
I2
sS'let '
p314
I88
sS'help '
p315
I4
sS'wiggling '
p316
I1
sS'all '
p317
I1
sS'fine '
p318
I1
sS'dot '
p319
I1
sS"'re "
p320
I208
sS'desert '
p321
I1
sS'them '
p322
I1
sS'affecting '
p323
I1
sS'smoke '
p324
I2
sS'suit '
p325
I1
sS'gig '
p326
I1
sS'day- '
p327
I1
sS'know '
p328
I4
sS'vacation '
p329
I1
sS'difficult '
p330
I1
sS'got '
p331
I5
sS'zip '
p332
I2
sS'open '
p333
I22
sS'areyoudoing '
p334
I1
sS"'ll "
p335
I45
sS'decided '
p336
I3
sS'having '
p337
I1
sS'break '
p338
I1
sS'myself '
p339
I1
sS'unlock '
p340
I1
sS'should '
p341
I9
sS'answer '
p342
I3
sS'fix '
p343
I10
sS'just '
p344
I5
sS'number '
p345
I1
sS'want '
p346
I1
sS'uncool '
p347
I1
sS'could '
p348
I2
sS'that '
p349
I3
sS'come '
p350
I15
sS'make '
p351
I1737
sS'man '
p352
I1
sS'carry '
p353
I2
sS'creep '
p354
I1
sS'leave '
p355
I1
sS'start '
p356
I8
sS'is '
p357
I9
sS'time '
p358
I4
sS'him '
p359
I7
sS'clean '
p360
I1
sS'doing '
p361
I479
sS'stuff '
p362
I1
sS'latif '
p363
I1
sS'think '
p364
I2
sS'doin '
p365
I2
sS'through '
p366
I4
sS'grumpy '
p367
I1
sS'mercedes '
p368
I1
sS'send '
p369
I2
sS'fixed '
p370
I6
sS'thanks '
p371
I1
sS'grab '
p372
I1
sS'things '
p373
I4
sS'go '
p374
I95
sS'happening '
p375
I1
sS'out '
p376
I7
sS'beautiful '
p377
I1
sS'close '
p378
I8
sS'stand '
p379
I2
sS'play '
p380
I6
sS"'am, "
p381
I1
sS'way '
p382
I6
sS'crashed '
p383
I1
sS'money '
p384
I1
sS'bhock '
p385
I1
sS'track '
p386
I1
sS'happens '
p387
I1
sS'kick '
p388
I5
sS'makes '
p389
I10
sS'have '
p390
I8
sS'done '
p391
I34
sS'jack '
p392
I1
sS'difference '
p393
I1
sS'minutes '
p394
I1
sS'bring '
p395
I4
sS'together '
p396
I5
sS'dig '
p397
I1
sS'me '
p398
I2
sS'ml '
p399
I1
sS'stop '
p400
I2
sS'dissension '
p401
I1
sS'cheers '
p402
I1
sS'run '
p403
I9
sS'works '
p404
I1
sS'be '
p405
I23
sS'use '
p406
I3
sS'now '
p407
I9
sS'sure '
p408
I2
sS'agh '
p409
I1
sS'right '
p410
I2
sS'place '
p411
I9
sS'omar '
p412
I1
sS'stay '
p413
I2
sS'were '
p414
I6
sS'why '
p415
I1
sS'surgery '
p416
I1
sS'so '
p417
I1
sS'chatting '
p418
I1
sS'christmas '
p419
I1
sS'shoot '
p420
I1
sS'on '
p421
I5
sS'roll '
p422
I3
sS'ahead '
p423
I1
sS'don '
p424
I27
sS'uradim '
p425
I1
sS'what '
p426
I7
sS'clocks '
p427
I1
sS'turn '
p428
I22
sS'handle '
p429
I19
sS'bother '
p430
I1
sS'okay '
p431
I6
sS'are '
p432
I749
sS'give '
p433
I15
sS'redo '
p434
I1
sS'enjoying '
p435
I1
sS'catch '
p436
I1
sS'bulb '
p437
I1
sS'care '
p438
I2
sS'put '
p439
I33
sS'take '
p440
I101
sS'will '
p441
I18
sS'to '
p442
I10
sS'hang '
p443
I3
sS'ourselves '
p444
I1
sS'gonna '
p445
I6
sS'needn '
p446
I4
sS'fairies '
p447
I1
sS'uncuff '
p448
I3
sS"'d "
p449
I3
sS'alright '
p450
I1
sS'plan '
p451
I4
sS"' "
p452
I1
sS'blame '
p453
I1
sS'heard '
p454
I1
sS'well '
p455
I3
sS'point '
p456
I1
sS'keep '
p457
I4
sS', '
p458
I2
sS"'s "
p459
I21
sS'boyfriend '
p460
I1
sS'j '
p461
I1
sS'do '
p462
I3646
sS'clear '
p463
I3
sS'around '
p464
I2
sS'away '
p465
I2
sS'muah- '
p466
I1
sS'hurry '
p467
I3
sS'pull '
p468
I2
sS'line '
p469
I3
sS'does '
p470
I2
sS'severance '
p471
I1
sS'business '
p472
I2
sS'neighing '
p473
I1
sS'elderwine '
p474
I1
sS'can '
p475
I6
sS'move '
p476
I15
sS'oh '
p477
I1
sS'made '
p478
I18
sS'hold '
p479
I1
sS'create '
p480
I3
sS'waste '
p481
I1
sS'newsletter '
p482
I1
sS'thing '
p483
I2
sS'? '
p484
I2
sS'shall '
p485
I3
sS'taking '
p486
I3
sS'people '
p487
I1
sS'off '
p488
I2
sS'get '
p489
I94
sS'nip '
p490
I1
sS'growls '
p491
I1
sS'shut '
p492
I1
sS'act '
p493
I1
sS'maid '
p494
I1
sS'yeah '
p495
I1
stp496
a((lp497
S'anrichten'
p498
aS'Anrichten'
p499
a(dp500
S'otherwise '
p501
I1
sS'do '
p502
I4
sS'create '
p503
I2
sS'done '
p504
I2
stp505
a((lp506
S'aufzubauen'
p507
aS'Aufzubauen'
p508
a(dp509
S'create '
p510
I2
sS'set '
p511
I3
sS'called '
p512
I1
sS'raise '
p513
I1
sS'rebuilding '
p514
I1
sS'cheer '
p515
I1
sS'rebuild '
p516
I4
sS'building '
p517
I8
sS'relationship '
p518
I1
sS'put '
p519
I2
sS'build '
p520
I20
sS'establishing '
p521
I2
sS'lost '
p522
I1
sS'recruit '
p523
I2
sS'beginning '
p524
I1
stp525
a((lp526
S'verursachen'
p527
aS'Verursachen'
p528
a(dp529
S'coleslaw '
p530
I2
sS'bring '
p531
I1
sS'create '
p532
I2
sS'causing '
p533
I16
sS'cause '
p534
I29
stp535
a((lp536
S'gr\xc3\xbcnden'
p537
aS'Gr\xc3\xbcnden'
p538
a(dp539
S'grounds '
p540
I3
sS'ways '
p541
I1
sS'forming '
p542
I1
sS'create '
p543
I2
sS'reasons '
p544
I56
sS'raise '
p545
I2
sS'sticking '
p546
I1
sS'ground '
p547
I1
sS'grounded '
p548
I1
sS'baby '
p549
I1
sS'form '
p550
I4
sS'starting '
p551
I1
sS'anew '
p552
I1
sS'purposes '
p553
I2
sS'start '
p554
I13
sS'reason '
p555
I14
sS'complaints '
p556
I1
stp557
a((lp558
S'bau'
p559
aS'Bau'
p560
a(dp561
S'duct '
p562
I4
sS'tank '
p563
I3
sS'slammer '
p564
I1
sS'usa '
p565
I1
sS'rack '
p566
I1
sS'building '
p567
I10
sS'trouble, '
p568
I1
sS'create '
p569
I1
sS'set '
p570
I1
sS'throw '
p571
I1
sS'build '
p572
I25
sS'lair '
p573
I2
sS'don '
p574
I3
sS'joint '
p575
I1
sS'brick '
p576
I1
sS'cave '
p577
I1
sS'pep '
p578
I1
sS'brig '
p579
I1
sS'construction '
p580
I12
sS'jail '
p581
I2
sS'take '
p582
I3
sS'demolition '
p583
I1
stp584
a((lp585
S'schafft'
p586
aS'Schafft'
p587
a(dp588
S'manage '
p589
I3
sS'gonna '
p590
I1
sS'getting '
p591
I1
sS'breeds '
p592
I1
sS'creates '
p593
I5
sS'accomplish '
p594
I1
sS"'ll "
p595
I2
sS'manages '
p596
I3
sS'hanging '
p597
I1
sS'bring '
p598
I1
sS'shovels '
p599
I1
sS'beam '
p600
I1
sS'create '
p601
I1
sS'did '
p602
I2
sS"'s "
p603
I1
sS'wheel '
p604
I1
sS'do '
p605
I7
sS'make '
p606
I45
sS'capable '
p607
I1
sS'planning '
p608
I1
sS'is '
p609
I3
sS'yale '
p610
I1
sS'sitting '
p611
I1
sS'does '
p612
I3
sS'toss '
p613
I1
sS'can '
p614
I39
sS'move '
p615
I3
sS'managing '
p616
I1
sS'pull '
p617
I2
sS'makes '
p618
I1
sS'made '
p619
I1
sS'don '
p620
I1
sS'both '
p621
I1
sS'able '
p622
I1
sS'handle '
p623
I2
sS'through '
p624
I1
sS'get '
p625
I88
sS'fine '
p626
I1
sS'catch '
p627
I3
sS'wait '
p628
I1
sS'take '
p629
I8
sS'will '
p630
I1
stp631
a((lp632
S'geschaffen'
p633
aS'Geschaffen'
p634
a(dp635
S'create '
p636
I1
sS'cut '
p637
I7
sS'built '
p638
I4
sS'work '
p639
I1
sS'created '
p640
I50
sS'meant '
p641
I1
sS'overcome '
p642
I1
sS'jenna '
p643
I1
sS'digest '
p644
I1
sS'made '
p645
I28
sS'boyfriend '
p646
I1
sS'j. '
p647
I1
sS'added '
p648
I1
sS'exist '
p649
I1
sS'rehab '
p650
I1
sS'unleashed '
p651
I1
sS'perfect '
p652
I1
sS'designed '
p653
I4
sS'efforts '
p654
I1
stp655
a((lp656
S'erzeuge'
p657
aS'Erzeuge'
p658
a(dp659
S'create '
p660
I1
sS'flags '
p661
I1
stp662
a((lp663
S'generieren'
p664
aS'Generieren'
p665
a(dp666
S'generating '
p667
I1
sS'create '
p668
I1
sS'generate '
p669
I4
sS'manufacture '
p670
I1
stp671
a((lp672
S'wiso'
p673
aS'Wiso'
p674
a(dp675
S'geta '
p676
I1
sS'create '
p677
I1
sS'why '
p678
I1
sS'usehis '
p679
I1
stp680
a((lp681
S'erschaffe'
p682
aS'Erschaffe'
p683
a(dp684
S'create '
p685
I1
sS'euphoric '
p686
I1
sS'make '
p687
I1
stp688
a((lp689
S'benutzen'
p690
aS'Benutzen'
p691
a(dp692
S'tyler '
p693
I1
sS'use '
p694
I629
sS'connecting '
p695
I1
sS'manipulate '
p696
I2
sS'airplane '
p697
I1
sS'create '
p698
I1
sS'since '
p699
I1
sS'used '
p700
I18
sS'using '
p701
I124
sS'wangs '
p702
I1
sS'focus '
p703
I1
sS'from '
p704
I1
sS'prohibits '
p705
I1
sS'uses '
p706
I3
sS'utilize '
p707
I1
sS'meuse '
p708
I1
sS'operate '
p709
I1
sS'mices '
p710
I1
sS'? '
p711
I1
sS'taking '
p712
I2
sS'blowing '
p713
I2
sS'enjoy '
p714
I1
sS'slipped '
p715
I1
sS'take '
p716
I3
sS'shocky '
p717
I1
stp718
a((lp719
S'dient'
p720
aS'Dient'
p721
a(dp722
S'matter '
p723
I1
sS'create '
p724
I1
sS'serving '
p725
I4
sS'appropriate '
p726
I1
sS'acts '
p727
I1
sS'service '
p728
I2
sS'go '
p729
I1
sS"'s "
p730
I1
sS'enlisted '
p731
I1
sS'for '
p732
I1
sS'is '
p733
I6
sS'serve '
p734
I4
sS'bound '
p735
I1
sS'serves '
p736
I12
stp737
a((lp738
S'herzustellen'
p739
aS'Herzustellen'
p740
a(dp741
S'guesses '
p742
I1
sS'manufactured '
p743
I1
sS'synthesize '
p744
I1
sS'scales '
p745
I1
sS'manufacturing '
p746
I3
sS'locally '
p747
I1
sS'create '
p748
I1
sS'won '
p749
I1
sS'produce '
p750
I1
sS'restore '
p751
I7
sS'recover '
p752
I1
sS'connect '
p753
I1
stp754
a((lp755
S'erfinden'
p756
aS'Erfinden'
p757
a(dp758
S'reinvent '
p759
I8
sS'create '
p760
I1
sS'tornado '
p761
I1
sS'game '
p762
I1
sS'work '
p763
I1
sS'shit '
p764
I1
sS'inventor '
p765
I1
sS'up '
p766
I1
sS'make '
p767
I3
sS'paid, '
p768
I2
sS'steamer '
p769
I2
sS'inventing '
p770
I4
sS'making '
p771
I1
sS'ideas '
p772
I1
sS'invent '
p773
I20
stp774
a((lp775
S'finden'
p776
aS'Finden'
p777
a(dp778
S'feel '
p779
I2
sS'matter '
p780
I1
sS'sue '
p781
I1
sS'devise '
p782
I1
sS"'ii "
p783
I1
sS'work '
p784
I4
sS'up '
p785
I2
sS'trace '
p786
I1
sS'if '
p787
I2
sS'create '
p788
I1
sS'isn '
p789
I3
sS'agree '
p790
I1
sS'found '
p791
I36
sS'let '
p792
I1
sS'anything '
p793
I1
sS"'re "
p794
I1
sS'track '
p795
I11
sS'getting '
p796
I1
sS'somewhere '
p797
I1
sS'located '
p798
I1
sS'lane '
p799
I1
sS"'ll "
p800
I7
sS'just '
p801
I1
sS'figure '
p802
I94
sS'tracking '
p803
I2
sS'come '
p804
I1
sS'find '
p805
I3500
sS'make '
p806
I13
sS'wouldn '
p807
I2
sS'thinks '
p808
I3
sS'is '
p809
I8
sS'after '
p810
I1
sS'might '
p811
I2
sS'finds '
p812
I2
sS'think '
p813
I40
sS'say '
p814
I2
sS'street '
p815
I1
sS'discover '
p816
I1
sS'go '
p817
I1
sS'check '
p818
I1
sS'out '
p819
I4
sS'without '
p820
I1
sS'way '
p821
I1
sS'finding '
p822
I160
sS'for '
p823
I1
sS'316 '
p824
I1
sS'drawn '
p825
I1
sS'have '
p826
I1
sS'fun '
p827
I1
sS'deny '
p828
I1
sS'anywhere '
p829
I1
sS'bring '
p830
I1
sS'dig '
p831
I2
sS'hunt '
p832
I4
sS'gay '
p833
I1
sS'now '
p834
I2
sS'place '
p835
I2
sS'favor '
p836
I1
sS'ahead '
p837
I1
sS'don '
p838
I2
sS'bridesmaid '
p839
I1
sS'are '
p840
I3
sS'electrical '
p841
I1
sS'chase '
p842
I2
sS'catch '
p843
I3
sS'eyes '
p844
I1
sS'will '
p845
I2
sS'to '
p846
I1
sS'spot '
p847
I1
sS'where '
p848
I1
sS'guy '
p849
I1
sS'meet '
p850
I3
sS'plan '
p851
I1
sS'approve '
p852
I1
sS'tremeshko '
p853
I1
sS'set '
p854
I1
sS'do '
p855
I23
sS'prefer '
p856
I1
sS'does '
p857
I5
sS'can '
p858
I5
sS'thickens '
p859
I1
sS'looking '
p860
I8
sS'tell '
p861
I1
sS'caught '
p862
I2
sS'death '
p863
I1
sS'bringing '
p864
I1
sS'see '
p865
I12
sS'i '
p866
I1
sS'watson '
p867
I1
sS"'dfindyou "
p868
I1
sS'trovarti '
p869
I1
sS'get '
p870
I37
sS'game '
p871
I1
sS'locate '
p872
I9
sS'yeah '
p873
I1
stp874
a((lp875
S'unglaublich'
p876
aS'Unglaublich'
p877
a(dp878
S'seconds '
p879
I1
sS'hippie '
p880
I1
sS'tonight '
p881
I1
sS'unbellevable '
p882
I1
sS'wow '
p883
I1
sS'dump '
p884
I1
sS'ladonica '
p885
I1
sS'work '
p886
I1
sS'meant '
p887
I1
sS'really '
p888
I1
sS'absolutely '
p889
I1
sS'clit '
p890
I1
sS'try '
p891
I1
sS'unlikely '
p892
I1
sS'truth '
p893
I1
sS'theme '
p894
I1
sS'look '
p895
I2
sS'great '
p896
I2
sS'hook '
p897
I1
sS'ridiculous '
p898
I1
sS'anything '
p899
I1
sS'incredible '
p900
I115
sS'unique '
p901
I1
sS'awful '
p902
I3
sS'crazy '
p903
I1
sS'amazing '
p904
I107
sS'know '
p905
I1
sS'vlctlm '
p906
I1
sS'ellie '
p907
I1
sS'extremely '
p908
I2
sS'maximum '
p909
I1
sS'mm '
p910
I1
sS'create '
p911
I1
sS'come '
p912
I1
sS'good '
p913
I2
sS'scares '
p914
I1
sS'unbelievable '
p915
I146
sS'gnarly '
p916
I1
sS'worse '
p917
I1
sS'jenna '
p918
I1
sS'massively '
p919
I1
sS'way '
p920
I2
sS'race '
p921
I1
sS'true '
p922
I1
sS'bitch '
p923
I1
sS'enormous '
p924
I1
sS'unbelievably '
p925
I14
sS'103 '
p926
I1
sS'skirt '
p927
I1
sS'beyond '
p928
I1
sS'role '
p929
I1
sS'believe '
p930
I43
sS'so '
p931
I2
sS'believable '
p932
I7
sS'miracle '
p933
I2
sS'gorgeous '
p934
I1
sS'insanely '
p935
I1
sS'blowing '
p936
I1
sS'are '
p937
I1
sS'incredibly '
p938
I55
sS'magnificent '
p939
I1
sS'girl '
p940
I1
sS'imply '
p941
I1
sS'thank '
p942
I1
sS'spectacularly '
p943
I1
sS'galsuroktaesanlda '
p944
I1
sS'song '
p945
I1
sS'amusement '
p946
I2
sS'unreal '
p947
I3
sS'extraordinary '
p948
I2
sS'useless '
p949
I1
sS'very '
p950
I3
sS'pathetic '
p951
I1
sS'isn '
p952
I1
sS'awesome '
p953
I12
sS'impossible '
p954
I2
sS'immensely '
p955
I1
sS'see '
p956
I1
sS'vera '
p957
I1
sS'fetish '
p958
I1
sS'unimaginably '
p959
I1
sS'bro '
p960
I1
sS'here '
p961
I1
sS'prejudices '
p962
I1
sS'overwhelming '
p963
I1
sS'real '
p964
I1
sS'park '
p965
I1
sS'back '
p966
I1
stp967
a((lp968
S'kreierst'
p969
aS'Kreierst'
p970
a(dp971
S'create '
p972
I1
stp973
a((lp974
S'er\xc3\xb6ffnen'
p975
aS'Er\xc3\xb6ffnen'
p976
a(dp977
S'reopening '
p978
I3
sS'reopen '
p979
I1
sS'create '
p980
I1
sS'opening '
p981
I15
sS'open '
p982
I58
sS'expo '
p983
I1
sS'communicate '
p984
I1
sS'start '
p985
I1
sS'upon '
p986
I3
stp987
a((lp988
S'errichten'
p989
aS'Errichten'
p990
a(dp991
S'create '
p992
I1
sS'set '
p993
I2
sS'erect '
p994
I2
sS'land '
p995
I1
sS'build '
p996
I14
sS'allowed '
p997
I1
stp998
a((lp999
S'probleme'
p1000
aS'Probleme'
p1001
a(dp1002
S'troublewith '
p1003
I1
sS'complications '
p1004
I1
sS'stutter '
p1005
I1
sS'problems, '
p1006
I2
sS'conflict '
p1007
I1
sS'punishment '
p1008
I1
sS'prevails '
p1009
I1
sS'hot '
p1010
I1
sS'having '
p1011
I1
sS'struggling '
p1012
I1
sS'issues '
p1013
I109
sS'happens '
p1014
I1
sS'problem '
p1015
I79
sS'deal '
p1016
I2
sS'worry '
p1017
I1
sS'heat '
p1018
I2
sS'troublemaker '
p1019
I1
sS'with '
p1020
I1
sS'list '
p1021
I1
sS'snags '
p1022
I1
sS'promises '
p1023
I1
sS'troubling '
p1024
I1
sS'issueswith '
p1025
I1
sS'slams '
p1026
I1
sS'mess '
p1027
I1
sS'business '
p1028
I1
sS'stuff '
p1029
I2
sS'troubles '
p1030
I23
sS'hard '
p1031
I1
sS"'clock "
p1032
I1
sS'c '
p1033
I1
sS'issue '
p1034
I3
sS'difficulties '
p1035
I2
sS'serious '
p1036
I1
sS'create '
p1037
I1
sS'situation '
p1038
I1
sS'straighten '
p1039
I2
sS'ones '
p1040
I3
sS'wrong '
p1041
I1
sS'problems '
p1042
I470
sS'headaches '
p1043
I2
sS'things '
p1044
I4
sS'differences '
p1045
I1
sS'fine '
p1046
I3
sS'happening '
p1047
I1
sS'lucked '
p1048
I1
sS'troubled '
p1049
I5
sS'about '
p1050
I1
sS'weird '
p1051
I1
sS'contrary '
p1052
I1
sS'splashed '
p1053
I1
sS'thing '
p1054
I1
sS'difficulty '
p1055
I3
sS'trouble '
p1056
I155
stp1057
a((lp1058
S'daliegt'
p1059
aS'Daliegt'
p1060
a(dp1061
S'create '
p1062
I1
sS'lying '
p1063
I3
stp1064
a((lp1065
S'week'
p1066
aS'Week'
p1067
a(dp1068
S'dramatic '
p1069
I1
sS'week '
p1070
I6
sS'create '
p1071
I1
sS'really '
p1072
I1
sS'therapist '
p1073
I1
stp1074
a((lp1075
S'gestalten'
p1076
aS'Gestalten'
p1077
a(dp1078
S'manage '
p1079
I1
sS'simplify '
p1080
I1
sS'create '
p1081
I1
sS'shapes '
p1082
I1
sS'make '
p1083
I6
sS'figures '
p1084
I1
sS'bopping '
p1085
I1
sS'characters '
p1086
I2
stp1087
a((lp1088
S'baue'
p1089
aS'Baue'
p1090
a(dp1091
S'mess '
p1092
I1
sS'create '
p1093
I1
sS'set '
p1094
I1
sS'bureau '
p1095
I1
sS'rebuilding '
p1096
I1
sS'founding '
p1097
I2
sS'counting '
p1098
I2
sS'building '
p1099
I5
sS'put '
p1100
I1
sS'build '
p1101
I10
sS'renovating '
p1102
I1
sS'tea '
p1103
I1
sS'starting '
p1104
I2
stp1105
a.