(lp0
((lp1
S'erreicht'
p2
aS'Erreicht'
p3
a(dp4
S'lost '
p5
I1
sS'ahold '
p6
I5
sS'getting '
p7
I1
sS'accomplish '
p8
I1
sS'end '
p9
I1
sS'done '
p10
I3
sS'hits '
p11
I1
sS'reaching '
p12
I3
sS'become '
p13
I2
sS'well '
p14
I1
sS'approaches '
p15
I1
sS'obtained '
p16
I1
sS'ruled '
p17
I1
sS'gotten '
p18
I1
sS'reach '
p19
I19
sS'message '
p20
I1
sS'does '
p21
I1
sS'achieved '
p22
I11
sS'finds '
p23
I3
sS'through '
p24
I2
sS'clocking '
p25
I1
sS'nice '
p26
I1
sS'accomplished '
p27
I7
sS'gets '
p28
I3
sS'iife '
p29
I1
sS'managed '
p30
I1
sS'accomplishing '
p31
I1
sS'arrived '
p32
I1
sS'get '
p33
I4
sS'regained '
p34
I1
sS'approaching '
p35
I1
sS'reached '
p36
I41
sS'reaches '
p37
I23
sS'gained '
p38
I1
stp39
a((lp40
S'erreichte'
p41
aS'Erreichte'
p42
a(dp43
S'youngest '
p44
I1
sS'achieved '
p45
I4
sS'got '
p46
I1
sS'affiliate '
p47
I1
sS'baby '
p48
I1
sS'reached '
p49
I3
sS'reach '
p50
I3
sS'lodged '
p51
I2
stp52
a((lp53
S'vollendet'
p54
aS'Vollendet'
p55
a(dp56
S'completed '
p57
I2
sS'achieved '
p58
I3
sS'finished '
p59
I7
sS'accomplished '
p60
I4
sS'complete '
p61
I6
sS'completes '
p62
I1
sS'incomplete '
p63
I2
sS'completo '
p64
I2
stp65
a((lp66
S'erlangt'
p67
aS'Erlangt'
p68
a(dp69
S'achieve '
p70
I1
sS'earned '
p71
I1
sS'gains '
p72
I1
sS'regained '
p73
I1
sS'gained '
p74
I2
sS'achieved '
p75
I1
sS'redeem '
p76
I1
stp77
a((lp78
S'jobs'
p79
aS'Jobs'
p80
a(dp81
S'doing '
p82
I1
sS'hiring '
p83
I1
sS'\\u201d '
p84
I1
sS'achieved '
p85
I1
sS'jobs '
p86
I99
sS'places '
p87
I1
sS'work '
p88
I2
sS'that '
p89
I1
sS'go '
p90
I1
sS'mail '
p91
I1
sS'paying '
p92
I1
sS'job '
p93
I33
sS'offers '
p94
I2
sS'interview '
p95
I1
sS'tiny '
p96
I1
stp97
a((lp98
S'erreichen'
p99
aS'Erreichen'
p100
a(dp101
S'track '
p102
I1
sS'ahold '
p103
I8
sS'access '
p104
I1
sS'getting '
p105
I1
sS'deliver '
p106
I1
sS'see '
p107
I2
sS'difference '
p108
I1
sS'arrive '
p109
I5
sS'jammed '
p110
I1
sS'short '
p111
I1
sS'communicate '
p112
I1
sS'reception '
p113
I1
sS'anywhere '
p114
I1
sS'reaching '
p115
I2
sS'brutal '
p116
I1
sS'touch '
p117
I7
sS'movie '
p118
I1
sS'available '
p119
I2
sS'do '
p120
I9
sS'make '
p121
I2
sS'hit '
p122
I2
sS'call '
p123
I3
sS'achieving '
p124
I2
sS'contacting '
p125
I2
sS'approaching '
p126
I9
sS'unreachable '
p127
I1
sS'excerpts '
p128
I1
sS'reach '
p129
I166
sS'cuff '
p130
I1
sS'doing '
p131
I2
sS'reach, '
p132
I1
sS'achieve '
p133
I34
sS'achieved '
p134
I1
sS'raise '
p135
I1
sS'this '
p136
I1
sS'it '
p137
I1
sS'succeed '
p138
I2
sS'accomplished '
p139
I1
sS'calling '
p140
I3
sS'accomplish '
p141
I11
sS'signal '
p142
I1
sS'get '
p143
I43
sS'texting '
p144
I1
sS'enter '
p145
I1
sS'catch '
p146
I2
sS'reached '
p147
I2
sS'reaches '
p148
I1
sS'contact '
p149
I15
sS'locate '
p150
I1
sS'hold '
p151
I1
stp152
a((lp153
S'starkem'
p154
aS'Starkem'
p155
a(dp156
S'strong '
p157
I1
sS'heavy '
p158
I1
sS'achieved '
p159
I1
sS'existing '
p160
I1
stp161
a((lp162
S'erzielt'
p163
aS'Erzielt'
p164
a(dp165
S'achieved '
p166
I1
sS'obtained '
p167
I1
sS'reached '
p168
I1
sS'scored '
p169
I2
sS'score '
p170
I2
sS'generated '
p171
I1
stp172
a((lp173
S'verwirklicht'
p174
aS'Verwirklicht'
p175
a(dp176
S'achieved '
p177
I1
sS'actualizing '
p178
I1
stp179
a((lp180
S'erf\xc3\xbcllt'
p181
aS'Erf\xc3\xbcllt'
p182
a(dp183
S'fills '
p184
I3
sS'fulfilled '
p185
I10
sS'nano- '
p186
I1
sS'gives '
p187
I1
sS'completing '
p188
I1
sS'complete '
p189
I1
sS'filled '
p190
I10
sS'end '
p191
I1
sS'done '
p192
I2
sS'completed '
p193
I5
sS'obey '
p194
I2
sS'finished '
p195
I1
sS'finish '
p196
I1
sS'duty '
p197
I1
sS'do '
p198
I1
sS'true '
p199
I4
sS'full '
p200
I2
sS'fill '
p201
I1
sS'does '
p202
I1
sS'achieved '
p203
I1
sS'met '
p204
I7
sS'accomplished '
p205
I10
sS'angst- '
p206
I1
sS'fulfill '
p207
I2
sS'check '
p208
I1
sS'granted '
p209
I10
sS'fulfills '
p210
I1
sS'put '
p211
I1
sS'successfully '
p212
I1
stp213
a((lp214
S'nutzen'
p215
aS'Nutzen'
p216
a(dp217
S'seize '
p218
I1
sS'advantage '
p219
I12
sS'exploit '
p220
I1
sS'exploiting '
p221
I1
sS'helpful '
p222
I1
sS'equations '
p223
I1
sS'gain '
p224
I5
sS'become '
p225
I1
sS'waste '
p226
I3
sS'most '
p227
I2
sS'point '
p228
I1
sS'useful '
p229
I4
sS'value '
p230
I1
sS'use '
p231
I178
sS'profit '
p232
I2
sS'used '
p233
I4
sS'using '
p234
I10
sS'beneficial '
p235
I1
sS'usefulness '
p236
I3
sS'crying '
p237
I1
sS'cultivate '
p238
I1
sS'serve '
p239
I1
sS'ed '
p240
I1
sS'service '
p241
I2
sS'achieved '
p242
I1
sS'usefu '
p243
I1
sS'count '
p244
I1
sS'pull '
p245
I1
sS'benefit '
p246
I16
sS'exactly '
p247
I1
sS'need '
p248
I1
sS'utilize '
p249
I1
sS'swag '
p250
I1
sS'good '
p251
I4
sS'pass '
p252
I1
sS'intend '
p253
I1
sS'help '
p254
I1
sS'opportunity '
p255
I1
sS'assistant '
p256
I1
sS'benefits '
p257
I2
sS'wearing '
p258
I2
sS'tap '
p259
I1
sS'arabic '
p260
I1
sS'take '
p261
I10
sS'collected '
p262
I1
sS'something '
p263
I1
sS'abused '
p264
I1
stp265
a((lp266
S'errichtet'
p267
aS'Errichtet'
p268
a(dp269
S'achieved '
p270
I1
sS'built '
p271
I4
sS'erected '
p272
I3
sS'building '
p273
I2
sS'established '
p274
I7
sS'build '
p275
I3
sS'ished '
p276
I1
sS'which '
p277
I1
stp278
a((lp279
S'geschafft'
p280
aS'Geschafft'
p281
a(dp282
S'messed '
p283
I1
sS'down '
p284
I2
sS'making '
p285
I2
sS'$20 '
p286
I1
sS'ugh '
p287
I1
sS'did '
p288
I27
sS'gotten '
p289
I2
sS'solve '
p290
I1
sS'manage '
p291
I12
sS'pulled '
p292
I3
sS'it '
p293
I5
sS'accomplished '
p294
I7
sS'god '
p295
I1
sS'fine '
p296
I1
sS'ha '
p297
I1
sS'cherry '
p298
I1
sS'successful '
p299
I1
sS'ouch '
p300
I1
sS'house '
p301
I1
sS'got '
p302
I8
sS'afro '
p303
I1
sS'impressions '
p304
I1
sS'exam '
p305
I1
sS'finished '
p306
I6
sS'could '
p307
I1
sS'make '
p308
I71
sS'good '
p309
I3
sS'time '
p310
I1
sS'doing '
p311
I1
sS'taken '
p312
I1
sS'volcano '
p313
I1
sS'way '
p314
I3
sS'able '
p315
I3
sS'managed '
p316
I49
sS'through '
p317
I11
sS'tip '
p318
I1
sS'crewman '
p319
I1
sS'out '
p320
I3
sS'here '
p321
I1
sS'fred '
p322
I1
sS'sprung '
p323
I1
sS'carried '
p324
I1
sS'survive '
p325
I1
sS'done '
p326
I56
sS'oughta '
p327
I1
sS'goob '
p328
I1
sS'there '
p329
I1
sS'home '
p330
I1
sS'worked '
p331
I1
sS'juggling '
p332
I1
sS'needed '
p333
I1
sS'achieved '
p334
I1
sS'visuals '
p335
I1
sS'couldn '
p336
I2
sS'off '
p337
I3
sS'forward '
p338
I1
sS'smart '
p339
I1
sS'held '
p340
I1
sS'bandage '
p341
I1
sS'charlie '
p342
I1
sS'okay '
p343
I3
sS'cardiac '
p344
I1
sS'chimp '
p345
I1
sS'tapped '
p346
I1
sS'snap '
p347
I1
sS'well '
p348
I1
sS'knackered '
p349
I1
sS'endured '
p350
I1
sS'colin '
p351
I1
sS'succeeded '
p352
I2
sS'invest '
p353
I1
sS'clear '
p354
I1
sS'away '
p355
I3
sS'worry '
p356
I1
sS'brad '
p357
I1
sS'does, '
p358
I1
sS'beat '
p359
I3
sS'made '
p360
I162
sS'longer '
p361
I1
sS'long '
p362
I1
sS'verge '
p363
I1
sS'free '
p364
I1
sS'get '
p365
I5
sS'nailed '
p366
I1
sS'weight '
p367
I1
sS'finally '
p368
I3
sS'hold '
p369
I1
sS'do '
p370
I6
sS'yeah '
p371
I1
stp372
a.