(lp0
((lp1
S'schaffen'
p2
aS'Schaffen'
p3
a(dp4
S'going '
p5
I4
sS'accomplish '
p6
I3
sS'goods '
p7
I3
sS'break '
p8
I1
sS'making '
p9
I5
sS'make '
p10
I272
sS'perfect '
p11
I1
sS'this, '
p12
I1
sS'possible '
p13
I1
sS'work '
p14
I6
sS'up '
p15
I1
sS'busted '
p16
I2
sS'manage '
p17
I22
sS'room '
p18
I1
sS'fiix '
p19
I2
sS'pass '
p20
I1
sS'let '
p21
I4
sS'fine '
p22
I6
sS"'re "
p23
I4
sS'read '
p24
I1
sS'getting '
p25
I1
sS'got '
p26
I2
sS"'ll "
p27
I16
sS'fix '
p28
I5
sS'create '
p29
I35
sS'figure '
p30
I3
sS'finish '
p31
I4
sS'could '
p32
I3
sS'algae '
p33
I1
sS'change '
p34
I2
sS'good '
p35
I1
sS'carry '
p36
I1
sS'278 '
p37
I1
sS'leave '
p38
I1
sS'compensate '
p39
I1
sS'drink '
p40
I1
sS'hurts '
p41
I1
sS'through '
p42
I5
sS'checks '
p43
I1
sS'able '
p44
I8
sS'thanks '
p45
I3
sS'drivin '
p46
I1
sS'out '
p47
I1
sS'fail '
p48
I4
sS'way '
p49
I8
sS'live '
p50
I2
sS'hope '
p51
I1
sS'survive '
p52
I1
sS'have '
p53
I1
sS'done '
p54
I5
sS'remove '
p55
I2
sS'loathe '
p56
I1
sS'allright '
p57
I2
sS'mistakes, '
p58
I1
sS'right '
p59
I6
sS'build '
p60
I2
sS'know, '
p61
I1
sS'shipping '
p62
I1
sS'tampering '
p63
I2
sS'pull '
p64
I7
sS'off '
p65
I3
sS'succeed '
p66
I1
sS'means '
p67
I1
sS'handle '
p68
I4
sS'okay '
p69
I5
sS'are '
p70
I2
sS'survival '
p71
I2
sS'threepeat '
p72
I1
sS'take '
p73
I7
sS'will '
p74
I4
sS'youout '
p75
I1
sS'hang '
p76
I1
sS'gonna '
p77
I5
sS'creating '
p78
I2
sS'rush '
p79
I1
sS'desk '
p80
I1
sS'these '
p81
I1
sS'iwant '
p82
I1
sS'do '
p83
I132
sS'wandering '
p84
I1
sS'treat '
p85
I1
sS'win '
p86
I1
sS'breathe '
p87
I1
sS'beat '
p88
I3
sS'can '
p89
I47
sS'saving '
p90
I1
sS'move '
p91
I1
sS'moving '
p92
I1
sS'hear '
p93
I1
sS'fight '
p94
I2
sS'cover '
p95
I1
sS'pulling '
p96
I2
sS'get '
p97
I123
stp98
a((lp99
S'hin'
p100
aS'Hin'
p101
a(dp102
S'one '
p103
I1
sS'while '
p104
I1
sS'going '
p105
I585
sS'tama- '
p106
I1
sS'tense '
p107
I2
sS'down '
p108
I164
sS'headed, '
p109
I2
sS'work '
p110
I9
sS'up '
p111
I12
sS'run '
p112
I1
sS'stalling '
p113
I2
sS'position '
p114
I1
sS'dead '
p115
I2
sS'manage '
p116
I15
sS'ladder '
p117
I1
sS'it '
p118
I8
sS'hmm '
p119
I1
sS'sleep '
p120
I7
sS'ruined '
p121
I1
sS'okay '
p122
I2
sS'broken '
p123
I2
sS'towards '
p124
I1
sS'fine '
p125
I7
sS'hin '
p126
I2
sS'goin '
p127
I5
sS'them '
p128
I1
sS'along '
p129
I1
sS'watching '
p130
I2
sS'buckshot '
p131
I1
sS'luchero '
p132
I1
sS'once '
p133
I4
sS'graduated '
p134
I1
sS'fix '
p135
I3
sS'at '
p136
I2
sS'figure '
p137
I1
sS'goes '
p138
I4
sS'leave '
p139
I1
sS'take '
p140
I1
sS'carriage '
p141
I1
sS'there, '
p142
I3
sS'way '
p143
I8
sS'works '
p144
I1
sS'courtrooms '
p145
I1
sS'went '
p146
I6
sS'hangout '
p147
I1
sS'county '
p148
I1
sS'ebb '
p149
I1
sS'show '
p150
I1
sS'go '
p151
I310
sS'jessica '
p152
I1
sS'out '
p153
I36
sS'close '
p154
I2
sS'stand '
p155
I1
sS'hil '
p156
I1
sS'lot '
p157
I2
sS'flat '
p158
I1
sS'there '
p159
I44
sS'shoulder '
p160
I1
sS'every '
p161
I7
sS'anywhere '
p162
I1
sS'love '
p163
I1
sS'wants '
p164
I3
sS'be '
p165
I3
sS'now '
p166
I11
sS'308 '
p167
I1
sS'right '
p168
I8
sS'place '
p169
I3
sS'careful '
p170
I1
sS'watch '
p171
I2
sS'from '
p172
I1
sS'round '
p173
I1
sS'off '
p174
I16
sS'taking '
p175
I16
sS'closer '
p176
I1
sS'friend '
p177
I1
sS'handle '
p178
I7
sS'headed '
p179
I27
sS'zen- '
p180
I1
sS'251 '
p181
I1
sS'aaahhh '
p182
I1
sS'put '
p183
I4
sS'crushed '
p184
I1
sS'to '
p185
I5
sS'gonna '
p186
I1
sS'huh '
p187
I1
sS'where '
p188
I4
sS'over '
p189
I29
sS'lead '
p190
I1
sS'bed '
p191
I2
sS'guys '
p192
I1
sS'around '
p193
I3
sS'away '
p194
I5
sS'glrl '
p195
I1
sS'hell '
p196
I1
sS'nose '
p197
I1
sS'craze '
p198
I1
sS'newer '
p199
I1
sS'hurry '
p200
I1
sS'stall '
p201
I1
sS'heading '
p202
I14
sS'near '
p203
I1
sS'move '
p204
I1
sS'roundtrip '
p205
I2
sS'again '
p206
I1
sS'looking '
p207
I2
sS'awesome '
p208
I2
sS'in '
p209
I8
sS'lift '
p210
I1
sS'here '
p211
I4
sS'argument '
p212
I1
sS'get '
p213
I1
sS'gone '
p214
I24
sS'cool '
p215
I1
sS'villagers '
p216
I1
sS'thing '
p217
I2
sS'back '
p218
I8
stp219
a((lp220
S'geschafft'
p221
aS'Geschafft'
p222
a(dp223
S'messed '
p224
I1
sS'down '
p225
I2
sS'making '
p226
I2
sS'$20 '
p227
I1
sS'ugh '
p228
I1
sS'did '
p229
I27
sS'gotten '
p230
I2
sS'solve '
p231
I1
sS'manage '
p232
I12
sS'pulled '
p233
I3
sS'it '
p234
I5
sS'accomplished '
p235
I7
sS'god '
p236
I1
sS'fine '
p237
I1
sS'ha '
p238
I1
sS'cherry '
p239
I1
sS'successful '
p240
I1
sS'ouch '
p241
I1
sS'house '
p242
I1
sS'got '
p243
I8
sS'afro '
p244
I1
sS'impressions '
p245
I1
sS'exam '
p246
I1
sS'finished '
p247
I6
sS'could '
p248
I1
sS'make '
p249
I71
sS'good '
p250
I3
sS'time '
p251
I1
sS'doing '
p252
I1
sS'taken '
p253
I1
sS'volcano '
p254
I1
sS'way '
p255
I3
sS'able '
p256
I3
sS'managed '
p257
I49
sS'through '
p258
I11
sS'tip '
p259
I1
sS'crewman '
p260
I1
sS'out '
p261
I3
sS'here '
p262
I1
sS'fred '
p263
I1
sS'sprung '
p264
I1
sS'carried '
p265
I1
sS'survive '
p266
I1
sS'done '
p267
I56
sS'oughta '
p268
I1
sS'goob '
p269
I1
sS'there '
p270
I1
sS'home '
p271
I1
sS'worked '
p272
I1
sS'juggling '
p273
I1
sS'needed '
p274
I1
sS'achieved '
p275
I1
sS'visuals '
p276
I1
sS'couldn '
p277
I2
sS'off '
p278
I3
sS'forward '
p279
I1
sS'smart '
p280
I1
sS'held '
p281
I1
sS'bandage '
p282
I1
sS'charlie '
p283
I1
sS'okay '
p284
I3
sS'cardiac '
p285
I1
sS'chimp '
p286
I1
sS'tapped '
p287
I1
sS'snap '
p288
I1
sS'well '
p289
I1
sS'knackered '
p290
I1
sS'endured '
p291
I1
sS'colin '
p292
I1
sS'succeeded '
p293
I2
sS'invest '
p294
I1
sS'clear '
p295
I1
sS'away '
p296
I3
sS'worry '
p297
I1
sS'brad '
p298
I1
sS'does, '
p299
I1
sS'beat '
p300
I3
sS'made '
p301
I162
sS'longer '
p302
I1
sS'long '
p303
I1
sS'verge '
p304
I1
sS'free '
p305
I1
sS'get '
p306
I5
sS'nailed '
p307
I1
sS'weight '
p308
I1
sS'finally '
p309
I3
sS'hold '
p310
I1
sS'do '
p311
I6
sS'yeah '
p312
I1
stp313
a((lp314
S'schaffst'
p315
aS'Schaffst'
p316
a(dp317
S'gotta '
p318
I1
sS'stay '
p319
I2
sS'gonna '
p320
I3
sS'got '
p321
I6
sS'lame '
p322
I2
sS'daughter '
p323
I1
sS"'ll "
p324
I17
sS'bien '
p325
I1
sS'shelly '
p326
I1
sS'sighs '
p327
I1
sS'mastered '
p328
I2
sS'top '
p329
I1
sS'couldn '
p330
I1
sS'kinds '
p331
I1
sS'senses '
p332
I1
sS'do '
p333
I13
sS'could '
p334
I3
sS'applause '
p335
I1
sS'make '
p336
I28
sS'won '
p337
I1
sS'aboard '
p338
I1
sS'somehow, '
p339
I1
sS'manage '
p340
I8
sS'doing '
p341
I1
sS'can '
p342
I80
sS'on '
p343
I1
sS'longer '
p344
I1
sS'pulling '
p345
I1
sS'hello '
p346
I2
sS'stick '
p347
I1
sS'ok '
p348
I1
sS'would '
p349
I1
sS'pass '
p350
I1
sS'able '
p351
I1
sS'jobs '
p352
I1
sS'tough '
p353
I1
sS'are '
p354
I3
sS'through '
p355
I1
sS'get '
p356
I8
sS"'t, "
p357
I1
sS'elevate '
p358
I1
sS'thereon '
p359
I1
sS'go '
p360
I2
sS"'re "
p361
I15
sS'actualy '
p362
I2
sS'will '
p363
I3
sS'hang '
p364
I1
stp365
a((lp366
S'zurecht'
p367
aS'Zurecht'
p368
a(dp369
S'successful '
p370
I1
sS'getting '
p371
I1
sS'myself '
p372
I1
sS'over '
p373
I2
sS'ok '
p374
I3
sS'manages '
p375
I1
sS'hillary '
p376
I1
sS'dressed '
p377
I3
sS'deal '
p378
I1
sS'own '
p379
I2
sS'work '
p380
I1
sS'do '
p381
I1
sS'cope '
p382
I4
sS'ready '
p383
I1
sS'right '
p384
I8
sS'place '
p385
I1
sS'secret '
p386
I1
sS'clean '
p387
I1
sS'manage '
p388
I8
sS'she '
p389
I1
sS'rightly '
p390
I1
sS'managing '
p391
I2
sS'roll '
p392
I1
sS'nice '
p393
I1
sS'pouk\\u00b3ada '
p394
I1
sS'way '
p395
I2
sS'entertain '
p396
I1
sS'moment '
p397
I1
sS'considering '
p398
I1
sS'handle '
p399
I9
sS'along '
p400
I6
sS'okay '
p401
I6
sS'comic '
p402
I1
sS'fine '
p403
I15
sS'care '
p404
I2
sS'herself '
p405
I1
sS'sorted '
p406
I1
sS'holding '
p407
I3
sS'by '
p408
I5
stp409
a((lp410
S'managen'
p411
aS'Managen'
p412
a(dp413
S'manage '
p414
I6
sS'handle '
p415
I2
sS'adamant '
p416
I1
sS'managing '
p417
I2
sS'run '
p418
I1
sS'honest '
p419
I1
stp420
a((lp421
S'handhaben'
p422
aS'Handhaben'
p423
a(dp424
S'manage '
p425
I5
sS'handle '
p426
I8
sS'prefer '
p427
I1
sS'sign '
p428
I1
sS'figure '
p429
I1
sS'handling '
p430
I2
sS'managing '
p431
I1
sS'mishandling '
p432
I1
sS'play '
p433
I1
sS'fun '
p434
I1
sS'kins '
p435
I1
sS'manipulate '
p436
I1
sS'thinki '
p437
I2
stp438
a((lp439
S'hinbekommen'
p440
aS'Hinbekommen'
p441
a(dp442
S'got '
p443
I1
sS'hats '
p444
I1
sS'hi '
p445
I1
sS'done '
p446
I5
sS'cleaned '
p447
I1
sS'together '
p448
I1
sS'figure '
p449
I2
sS'work '
p450
I7
sS'worked '
p451
I2
sS'build '
p452
I4
sS'pretty '
p453
I1
sS'manage '
p454
I4
sS'thefamous '
p455
I1
sS'managed '
p456
I3
sS'both '
p457
I1
sS'whoa '
p458
I1
sS'made '
p459
I1
sS'handle '
p460
I5
sS'missing '
p461
I1
sS'get '
p462
I3
sS'happen '
p463
I2
sS'tech '
p464
I1
sS'comparred '
p465
I1
stp466
a((lp467
S'schaffe'
p468
aS'Schaffe'
p469
a(dp470
S'level '
p471
I2
sS'laden '
p472
I1
sS"'m "
p473
I11
sS'am '
p474
I2
sS'got '
p475
I11
sS'saturdays '
p476
I1
sS'would '
p477
I1
sS'most- '
p478
I1
sS"'ll "
p479
I11
sS'gather '
p480
I2
sS'create '
p481
I6
sS'work '
p482
I2
sS'do '
p483
I3
sS'could '
p484
I5
sS'up '
p485
I2
sS'make '
p486
I20
sS'adam '
p487
I1
sS'footloose '
p488
I1
sS'manage '
p489
I4
sS'arrest '
p490
I1
sS'can '
p491
I91
sS'can, '
p492
I1
sS'bi\\u0436u '
p493
I1
sS'swastikas '
p494
I1
sS'hat '
p495
I1
sS'able '
p496
I2
sS'handle '
p497
I1
sS'celebrating '
p498
I1
sS'inside '
p499
I1
sS'hoping '
p500
I1
sS'take '
p501
I1
sS'tick '
p502
I1
stp503
a((lp504
S'einrichten'
p505
aS'Einrichten'
p506
a(dp507
S'arrange '
p508
I6
sS'manage '
p509
I4
sS'set '
p510
I5
sS'arranging '
p511
I1
sS'work '
p512
I1
sS'arranged '
p513
I5
sS'make '
p514
I9
sS'pa '
p515
I1
sS'happen '
p516
I2
sS'laughs '
p517
I1
sS'staged '
p518
I2
sS'squeeze '
p519
I1
sS'decorate '
p520
I1
sS'reasonable '
p521
I1
stp522
a((lp523
S'schon'
p524
aS'Schon'
p525
a(dp526
S'one '
p527
I9
sS'aii '
p528
I1
sS'matter '
p529
I9
sS'waiting '
p530
I2
sS'going '
p531
I17
sS'better '
p532
I3
sS'only '
p533
I2
sS'afraid '
p534
I1
sS'am '
p535
I18
sS'no '
p536
I18
sS'ever '
p537
I48
sS'chuckles '
p538
I1
sS'the '
p539
I2
sS'ok '
p540
I11
sS'covered '
p541
I2
sS'hey '
p542
I2
sS'prefab '
p543
I2
sS'hyped '
p544
I2
sS'down '
p545
I5
sS'nevermind '
p546
I1
sS'mom '
p547
I2
sS'actually '
p548
I4
sS'rather '
p549
I3
sS'beckett '
p550
I1
sS'leh '
p551
I1
sS'good '
p552
I6
sS'cheesecake '
p553
I1
sS'another '
p554
I1
sS'already '
p555
I1615
sS'did '
p556
I55
sS'paste '
p557
I1
sS'work '
p558
I5
sS'something '
p559
I3
sS'then '
p560
I2
sS'really '
p561
I3
sS'true '
p562
I2
sS'up '
p563
I16
sS'run '
p564
I1
sS'seen '
p565
I5
sS"'mon "
p566
I17
sS'cheesy '
p567
I1
sS'dead '
p568
I1
sS'perfectly '
p569
I1
sS'post '
p570
I1
sS'manage '
p571
I4
sS'cooper '
p572
I1
sS'myself '
p573
I1
sS'cut '
p574
I1
sS'solution '
p575
I2
sS'talk '
p576
I1
sS'earlier '
p577
I1
sS'it '
p578
I677
sS'almost '
p579
I7
sS'jordan '
p580
I2
sS'childproofing '
p581
I1
sS'about '
p582
I3
sS'more '
p583
I3
sS'classed '
p584
I1
sS'save '
p585
I4
sS'please '
p586
I1
sS'sorry '
p587
I4
sS'four '
p588
I1
sS'suppose '
p589
I1
sS'macs '
p590
I1
sS"'ve "
p591
I75
sS'whatever '
p592
I1
sS'- '
p593
I1
sS'all '
p594
I266
sS'had '
p595
I16
sS'oh '
p596
I2
sS'fine '
p597
I122
sS'any '
p598
I5
sS'say '
p599
I1
sS'partner '
p600
I1
sS'have '
p601
I43
sS"'re "
p602
I5
sS've '
p603
I4
sS'them '
p604
I3
sS'short '
p605
I1
sS'probably '
p606
I6
sS'teach '
p607
I1
sS'gaza '
p608
I1
sS'soon '
p609
I16
sS'shh '
p610
I1
sS'appointment '
p611
I4
sS'none '
p612
I4
sS'me '
p613
I23
sS'very '
p614
I1
sS'getting '
p615
I10
sS'got '
p616
I10
sS'her '
p617
I1
sS'has '
p618
I5
sS'jo '
p619
I1
sS"'ll "
p620
I13
sS'goodness '
p621
I1
sS'once '
p622
I4
sS'having '
p623
I1
sS'early '
p624
I5
sS'by '
p625
I4
sS'knew '
p626
I1
sS'cinch '
p627
I2
sS'gettin '
p628
I1
sS'emplacements '
p629
I1
sS'just '
p630
I29
sS'she '
p631
I5
sS'at '
p632
I2
sS'laurie '
p633
I1
sS'dig '
p634
I1
sS'mention '
p635
I2
sS'could '
p636
I3
sS'before '
p637
I167
sS'come '
p638
I14
sS'find '
p639
I1
sS'yes '
p640
I14
sS'man '
p641
I4
sS'move '
p642
I3
sS"'em "
p643
I1
sS'understood '
p644
I1
sS'pretty '
p645
I8
sS'goin '
p646
I1
sS'start '
p647
I4
sS'is '
p648
I34
sS'time '
p649
I3
sS'funny '
p650
I1
sS'him '
p651
I4
sS'doing '
p652
I6
sS'thorpe '
p653
I1
sS'anyway '
p654
I2
sS'forever '
p655
I2
sS'neodelchewaegeurae '
p656
I1
sS'even '
p657
I27
sS'leela '
p658
I1
sS'after '
p659
I1
sS'think '
p660
I3
sS'rudi '
p661
I1
sS'lovely '
p662
I1
sS'taken '
p663
I2
sS'fresh '
p664
I1
sS'nothings '
p665
I1
sS'told '
p666
I1
sS'interview '
p667
I1
sS'to '
p668
I1
sS'tra '
p669
I1
sS'maybe '
p670
I1
sS'noodlebaum '
p671
I1
sS'talked '
p672
I3
sS"'dicksicle "
p673
I1
sS'murdered '
p674
I1
sS'go '
p675
I82
sS'forget '
p676
I4
sS'out '
p677
I15
sS"'s "
p678
I103
sS'happen '
p679
I2
sS'starting '
p680
I3
sS'forgive '
p681
I1
sS'quite '
p682
I24
sS'way '
p683
I7
sS'always '
p684
I5
sS'mine '
p685
I2
sS'hear '
p686
I4
sS'! '
p687
I3
sS'but '
p688
I1
sS'gracias '
p689
I1
sS'anyone '
p690
I2
sS'too '
p691
I2
sS'innit '
p692
I1
sS'there '
p693
I1
sS'for '
p694
I14
sS'headband '
p695
I1
sS'shoulder '
p696
I1
sS'guess '
p697
I4
sS'takes '
p698
I1
sS'done '
p699
I25
sS'know '
p700
I43
sS'difference '
p701
I1
sS'else '
p702
I2
sS'fit '
p703
I1
sS'roommates '
p704
I1
sS'nah '
p705
I1
sS'long '
p706
I5
sS'ready '
p707
I2
sS'be '
p708
I32
sS'on, '
p709
I86
sS'now '
p710
I66
sS'ringing '
p711
I1
sS'sure '
p712
I11
sS'baby '
p713
I1
sS'home '
p714
I1
sS'easy '
p715
I1
sS'right '
p716
I37
sS'hearda '
p717
I1
sS'again '
p718
I4
sS'enough '
p719
I4
sS'were '
p720
I3
sS'eventually '
p721
I3
sS'so '
p722
I114
sS'ah '
p723
I1
sS'working '
p724
I1
sS'from '
p725
I4
sS'that '
p726
I71
sS'on '
p727
I1384
sS'tuck '
p728
I1
sS'you '
p729
I29
sS'last '
p730
I1
sS'don '
p731
I1
sS'beautiful '
p732
I1
sS'alrey '
p733
I1
sS'what '
p734
I4
sS'would '
p735
I2
sS'was '
p736
I16
sS'scissors '
p737
I1
sS'guy '
p738
I1
sS'axe '
p739
I1
sS'handle '
p740
I1
sS'possibly '
p741
I7
sS'okay '
p742
I40
sS'are '
p743
I13
sS'us '
p744
I5
sS'would, '
p745
I1
sS"'d "
p746
I1
sS'burning '
p747
I1
sS'gelato '
p748
I1
sS'bit '
p749
I1
sS'known '
p750
I6
sS'comin '
p751
I2
sS'experienced '
p752
I2
sS'nothing '
p753
I3
sS'head '
p754
I1
sS'will '
p755
I9
sS'bbeen '
p756
I1
sS'yep '
p757
I1
sS'alright '
p758
I5
sS'vibrating '
p759
I1
sS'gonna '
p760
I14
sS'back '
p761
I3
sS'elocuted '
p762
I1
sS"' "
p763
I2
sS'lame '
p764
I1
sS'thought '
p765
I1
sS'over '
p766
I2
sS'said '
p767
I4
sS'coming '
p768
I5
sS'beginning '
p769
I5
sS'kind '
p770
I7
sS'quick '
p771
I1
sS'heard '
p772
I2
sS'well '
p773
I7
sS'walked '
p774
I2
sS'point '
p775
I2
sS'mushrooms '
p776
I1
sS'b& '
p777
I1
sS'though '
p778
I2
sS'like '
p779
I1
sS', '
p780
I10
sS"'t "
p781
I4
sS'do '
p782
I118
sS"'m "
p783
I4
sS'since '
p784
I9
sS'around '
p785
I3
sS'worry '
p786
I7
sS'late '
p787
I1
sS'hurry '
p788
I1
sS'some '
p789
I5
sS'allan '
p790
I1
sS'not '
p791
I2
sS'does '
p792
I22
sS'a '
p793
I30
sS'an '
p794
I1
sS'lee '
p795
I1
sS'can '
p796
I33
sS'sec '
p797
I2
sS'horse '
p798
I1
sS'happened '
p799
I1
sS'talley '
p800
I1
sS'never '
p801
I24
sS'tell '
p802
I1
sS'moving '
p803
I4
sS'ahead '
p804
I62
sS'nice '
p805
I10
sS'al '
p806
I3
sS'proceeds '
p807
I1
sS'see '
p808
I2
sS'i '
p809
I39
sS'been '
p810
I798
sS'in '
p811
I4
sS'bollocks '
p812
I1
sS'hey, '
p813
I1
sS'scrub '
p814
I1
sS'have, '
p815
I1
sS'here '
p816
I9
sS'deal '
p817
I6
sS'get '
p818
I6
sS'gone '
p819
I6
sS'need '
p820
I1
sS'cool '
p821
I1
sS'yet '
p822
I180
sS'calm '
p823
I2
sS'hold '
p824
I1
sS'thing '
p825
I1
sS'lump '
p826
I1
sS'still '
p827
I2
sS'kiwe '
p828
I2
sS'yeah '
p829
I23
stp830
a((lp831
S'schaff'
p832
aS'Schaff'
p833
a(dp834
S'manage '
p835
I4
sS'handle '
p836
I1
sS'portalo '
p837
I1
sS'keep '
p838
I2
sS'can '
p839
I34
sS'get '
p840
I87
sS'got '
p841
I10
sS"'m "
p842
I7
sS'make '
p843
I5
sS"'ll "
p844
I5
sS'deal '
p845
I1
sS'move '
p846
I1
sS'd\xc3\xa9brouiller '
p847
I1
sS'take '
p848
I3
sS'leave '
p849
I1
sS'handling '
p850
I1
sS'remove '
p851
I1
stp852
a((lp853
S'kommezurecht'
p854
aS'Kommezurecht'
p855
a(dp856
S'manage '
p857
I3
stp858
a((lp859
S'schafft'
p860
aS'Schafft'
p861
a(dp862
S'manage '
p863
I3
sS'gonna '
p864
I1
sS'getting '
p865
I1
sS'breeds '
p866
I1
sS'creates '
p867
I5
sS'accomplish '
p868
I1
sS"'ll "
p869
I2
sS'manages '
p870
I3
sS'hanging '
p871
I1
sS'bring '
p872
I1
sS'shovels '
p873
I1
sS'beam '
p874
I1
sS'create '
p875
I1
sS'did '
p876
I2
sS"'s "
p877
I1
sS'wheel '
p878
I1
sS'do '
p879
I7
sS'make '
p880
I45
sS'capable '
p881
I1
sS'planning '
p882
I1
sS'is '
p883
I3
sS'yale '
p884
I1
sS'sitting '
p885
I1
sS'does '
p886
I3
sS'toss '
p887
I1
sS'can '
p888
I39
sS'move '
p889
I3
sS'managing '
p890
I1
sS'pull '
p891
I2
sS'makes '
p892
I1
sS'made '
p893
I1
sS'don '
p894
I1
sS'both '
p895
I1
sS'able '
p896
I1
sS'handle '
p897
I2
sS'through '
p898
I1
sS'get '
p899
I88
sS'fine '
p900
I1
sS'catch '
p901
I3
sS'wait '
p902
I1
sS'take '
p903
I8
sS'will '
p904
I1
stp905
a((lp906
S'f\xc3\xbchren'
p907
aS'F\xc3\xbchren'
p908
a(dp909
S'live '
p910
I5
sS'waging '
p911
I1
sS'direction '
p912
I1
sS'end '
p913
I1
sS'living '
p914
I3
sS'have '
p915
I6
sS'led '
p916
I2
sS'running '
p917
I1
sS'making '
p918
I6
sS'bring '
p919
I1
sS'traced '
p920
I3
sS'leading '
p921
I20
sS'takes '
p922
I1
sS'carry '
p923
I6
sS'do '
p924
I3
sS'sinne '
p925
I1
sS'make '
p926
I1
sS'roads '
p927
I1
sS'conduct '
p928
I3
sS'guiding '
p929
I1
sS'him '
p930
I1
sS'manage '
p931
I3
sS'point '
p932
I1
sS'lead '
p933
I140
sS'walk '
p934
I1
sS'heading '
p935
I2
sS'execute '
p936
I3
sS'performing '
p937
I1
sS'wage '
p938
I1
sS'cause '
p939
I1
sS'guide '
p940
I20
sS'thereceiving '
p941
I1
sS'fight '
p942
I1
sS'leads '
p943
I4
sS'piece '
p944
I1
sS'taking '
p945
I1
sS'run '
p946
I20
sS'are '
p947
I3
sS'wield '
p948
I1
sS'show '
p949
I5
sS'go '
p950
I2
sS'introducing '
p951
I1
sS'conducting '
p952
I1
sS"'re "
p953
I6
sS'mignolo '
p954
I1
sS'take '
p955
I18
sS'act '
p956
I1
sS'will '
p957
I1
sS'periodical '
p958
I1
stp959
a((lp960
S'machen'
p961
aS'Machen'
p962
a(dp963
S'one '
p964
I1
sS"'m "
p965
I1
sS'going '
p966
I12
sS'better '
p967
I1
sS'only '
p968
I1
sS'knock '
p969
I2
sS'do, '
p970
I7
sS'no '
p971
I1
sS'project '
p972
I2
sS'would '
p973
I1
sS'party '
p974
I1
sS'while '
p975
I3
sS'kill '
p976
I1
sS'please '
p977
I6
sS'continue '
p978
I1
sS'down '
p979
I1
sS'making '
p980
I177
sS'lessons '
p981
I1
sS'deal '
p982
I5
sS'did '
p983
I4
sS'joe '
p984
I1
sS'hit '
p985
I1
sS'work '
p986
I11
sS'then '
p987
I2
sS'really '
p988
I1
sS'with '
p989
I4
sS'up '
p990
I37
sS'regrettable '
p991
I1
sS'cook '
p992
I1
sS'won '
p993
I1
sS'gomey '
p994
I1
sS'follow '
p995
I6
sS'try '
p996
I1
sS'truth '
p997
I1
sS'manage '
p998
I3
sS'relax '
p999
I1
sS'for '
p1000
I7
sS'cut '
p1001
I2
sS'room '
p1002
I4
sS'this '
p1003
I2
sS'dowith '
p1004
I1
sS'consist '
p1005
I1
sS'it '
p1006
I9
sS'kids '
p1007
I1
sS'about '
p1008
I8
sS'meeting '
p1009
I1
sS'sorry '
p1010
I1
sS'seal '
p1011
I1
sS'flip '
p1012
I1
sS'sight '
p1013
I1
sS"'ve "
p1014
I2
sS'let '
p1015
I88
sS'help '
p1016
I4
sS'wiggling '
p1017
I1
sS'all '
p1018
I1
sS'fine '
p1019
I1
sS'dot '
p1020
I1
sS"'re "
p1021
I208
sS'desert '
p1022
I1
sS'them '
p1023
I1
sS'affecting '
p1024
I1
sS'smoke '
p1025
I2
sS'suit '
p1026
I1
sS'gig '
p1027
I1
sS'day- '
p1028
I1
sS'know '
p1029
I4
sS'vacation '
p1030
I1
sS'difficult '
p1031
I1
sS'got '
p1032
I5
sS'zip '
p1033
I2
sS'open '
p1034
I22
sS'areyoudoing '
p1035
I1
sS"'ll "
p1036
I45
sS'decided '
p1037
I3
sS'having '
p1038
I1
sS'break '
p1039
I1
sS'myself '
p1040
I1
sS'unlock '
p1041
I1
sS'should '
p1042
I9
sS'answer '
p1043
I3
sS'fix '
p1044
I10
sS'just '
p1045
I5
sS'number '
p1046
I1
sS'want '
p1047
I1
sS'uncool '
p1048
I1
sS'could '
p1049
I2
sS'that '
p1050
I3
sS'come '
p1051
I15
sS'make '
p1052
I1737
sS'man '
p1053
I1
sS'carry '
p1054
I2
sS'creep '
p1055
I1
sS'leave '
p1056
I1
sS'start '
p1057
I8
sS'is '
p1058
I9
sS'time '
p1059
I4
sS'him '
p1060
I7
sS'clean '
p1061
I1
sS'doing '
p1062
I479
sS'stuff '
p1063
I1
sS'latif '
p1064
I1
sS'think '
p1065
I2
sS'doin '
p1066
I2
sS'through '
p1067
I4
sS'grumpy '
p1068
I1
sS'mercedes '
p1069
I1
sS'send '
p1070
I2
sS'fixed '
p1071
I6
sS'thanks '
p1072
I1
sS'grab '
p1073
I1
sS'things '
p1074
I4
sS'go '
p1075
I95
sS'happening '
p1076
I1
sS'out '
p1077
I7
sS'beautiful '
p1078
I1
sS'close '
p1079
I8
sS'stand '
p1080
I2
sS'play '
p1081
I6
sS"'am, "
p1082
I1
sS'way '
p1083
I6
sS'crashed '
p1084
I1
sS'money '
p1085
I1
sS'bhock '
p1086
I1
sS'track '
p1087
I1
sS'happens '
p1088
I1
sS'kick '
p1089
I5
sS'makes '
p1090
I10
sS'have '
p1091
I8
sS'done '
p1092
I34
sS'jack '
p1093
I1
sS'difference '
p1094
I1
sS'minutes '
p1095
I1
sS'bring '
p1096
I4
sS'together '
p1097
I5
sS'dig '
p1098
I1
sS'me '
p1099
I2
sS'ml '
p1100
I1
sS'stop '
p1101
I2
sS'dissension '
p1102
I1
sS'cheers '
p1103
I1
sS'run '
p1104
I9
sS'works '
p1105
I1
sS'be '
p1106
I23
sS'use '
p1107
I3
sS'now '
p1108
I9
sS'sure '
p1109
I2
sS'agh '
p1110
I1
sS'right '
p1111
I2
sS'place '
p1112
I9
sS'omar '
p1113
I1
sS'stay '
p1114
I2
sS'were '
p1115
I6
sS'why '
p1116
I1
sS'surgery '
p1117
I1
sS'so '
p1118
I1
sS'chatting '
p1119
I1
sS'christmas '
p1120
I1
sS'shoot '
p1121
I1
sS'on '
p1122
I5
sS'roll '
p1123
I3
sS'ahead '
p1124
I1
sS'don '
p1125
I27
sS'uradim '
p1126
I1
sS'what '
p1127
I7
sS'clocks '
p1128
I1
sS'turn '
p1129
I22
sS'handle '
p1130
I19
sS'bother '
p1131
I1
sS'okay '
p1132
I6
sS'are '
p1133
I749
sS'give '
p1134
I15
sS'redo '
p1135
I1
sS'enjoying '
p1136
I1
sS'catch '
p1137
I1
sS'bulb '
p1138
I1
sS'care '
p1139
I2
sS'put '
p1140
I33
sS'take '
p1141
I101
sS'will '
p1142
I18
sS'to '
p1143
I10
sS'hang '
p1144
I3
sS'ourselves '
p1145
I1
sS'gonna '
p1146
I6
sS'needn '
p1147
I4
sS'fairies '
p1148
I1
sS'uncuff '
p1149
I3
sS"'d "
p1150
I3
sS'alright '
p1151
I1
sS'plan '
p1152
I4
sS"' "
p1153
I1
sS'blame '
p1154
I1
sS'heard '
p1155
I1
sS'well '
p1156
I3
sS'point '
p1157
I1
sS'keep '
p1158
I4
sS', '
p1159
I2
sS"'s "
p1160
I21
sS'boyfriend '
p1161
I1
sS'j '
p1162
I1
sS'do '
p1163
I3646
sS'clear '
p1164
I3
sS'around '
p1165
I2
sS'away '
p1166
I2
sS'muah- '
p1167
I1
sS'hurry '
p1168
I3
sS'pull '
p1169
I2
sS'line '
p1170
I3
sS'does '
p1171
I2
sS'severance '
p1172
I1
sS'business '
p1173
I2
sS'neighing '
p1174
I1
sS'elderwine '
p1175
I1
sS'can '
p1176
I6
sS'move '
p1177
I15
sS'oh '
p1178
I1
sS'made '
p1179
I18
sS'hold '
p1180
I1
sS'create '
p1181
I3
sS'waste '
p1182
I1
sS'newsletter '
p1183
I1
sS'thing '
p1184
I2
sS'? '
p1185
I2
sS'shall '
p1186
I3
sS'taking '
p1187
I3
sS'people '
p1188
I1
sS'off '
p1189
I2
sS'get '
p1190
I94
sS'nip '
p1191
I1
sS'growls '
p1192
I1
sS'shut '
p1193
I1
sS'act '
p1194
I1
sS'maid '
p1195
I1
sS'yeah '
p1196
I1
stp1197
a((lp1198
S'zurechtkommen'
p1199
aS'Zurechtkommen'
p1200
a(dp1201
S'manage '
p1202
I3
sS'handle '
p1203
I3
sS'deal '
p1204
I2
sS'okay '
p1205
I3
sS'cope '
p1206
I3
sS'relate '
p1207
I2
sS'alongside '
p1208
I1
sS'dear '
p1209
I1
sS'flourish '
p1210
I1
sS'along '
p1211
I3
stp1212
a((lp1213
S'klar'
p1214
aS'Klar'
p1215
a(dp1216
S'definitely '
p1217
I2
sS'rules '
p1218
I1
sS'sweet '
p1219
I1
sS'remember '
p1220
I1
sS'stay '
p1221
I2
sS'follow '
p1222
I3
sS'uh '
p1223
I3
sS'damaged '
p1224
I1
sS'am '
p1225
I1
sS'clearing '
p1226
I4
sS'no '
p1227
I15
sS'record '
p1228
I6
sS'would '
p1229
I1
sS'hi '
p1230
I2
sS'ok '
p1231
I48
sS'luck '
p1232
I1
sS'recognition '
p1233
I1
sS'realized '
p1234
I50
sS'sharp '
p1235
I2
sS'steady '
p1236
I1
sS'kidding '
p1237
I1
sS'man '
p1238
I9
sS'course '
p1239
I158
sS'sorry '
p1240
I2
sS'break '
p1241
I1
sS'did '
p1242
I2
sS'understand '
p1243
I50
sS'set '
p1244
I4
sS'really '
p1245
I2
sS'absolutely '
p1246
I14
sS'up '
p1247
I19
sS'ready '
p1248
I11
sS'goes '
p1249
I2
sS'duh '
p1250
I1
sS'tight '
p1251
I1
sS'dead '
p1252
I1
sS'try '
p1253
I1
sS'\\u00bf '
p1254
I1
sS'lucid '
p1255
I6
sS'cut '
p1256
I1
sS'mode '
p1257
I1
sS'buddy '
p1258
I1
sS'ey '
p1259
I1
sS'raj '
p1260
I1
sS'is '
p1261
I1
sS'fact '
p1262
I1
sS'storybook '
p1263
I1
sS'it '
p1264
I61
sS'surprised '
p1265
I1
sS'kids '
p1266
I1
sS'check '
p1267
I1
sS'established '
p1268
I2
sS'great '
p1269
I7
sS'down- '
p1270
I1
sS'tomorrow '
p1271
I2
sS'upfront '
p1272
I1
sS'please '
p1273
I5
sS'sure, '
p1274
I1
sS'moment '
p1275
I2
sS'mm- '
p1276
I1
sS'flip '
p1277
I2
sS'asshole '
p1278
I1
sS'those, '
p1279
I1
sS'consultants '
p1280
I1
sS'we '
p1281
I3
sS'next '
p1282
I1
sS'- '
p1283
I8
sS'help '
p1284
I2
sS'weisskopf '
p1285
I1
sS'cleared '
p1286
I2
sS'tali '
p1287
I1
sS'lohss '
p1288
I2
sS'fine '
p1289
I55
sS'timpleman '
p1290
I1
sS'guess '
p1291
I1
sS'praise '
p1292
I1
sS'aware '
p1293
I11
sS'totally '
p1294
I1
sS'situation '
p1295
I1
sS'clean '
p1296
I1
sS'say '
p1297
I1
sS'worries '
p1298
I1
sS'artichoke- '
p1299
I2
sS'does '
p1300
I1
sS'lifts '
p1301
I1
sS'me '
p1302
I1
sS'definitive '
p1303
I1
sS'jazz '
p1304
I1
sS'amigo '
p1305
I1
sS'got '
p1306
I77
sS'simple '
p1307
I1
sS'straight '
p1308
I24
sS'marion '
p1309
I1
sS'rim '
p1310
I1
sS'mysehf '
p1311
I1
sS'wha- '
p1312
I1
sS'urinating '
p1313
I1
sS'or '
p1314
I1
sS'face '
p1315
I3
sS'*** '
p1316
I2
sS'figure '
p1317
I2
sS'that '
p1318
I16
sS'come '
p1319
I3
sS'yes '
p1320
I40
sS'good '
p1321
I65
sS'gavel '
p1322
I1
sS'charlotte '
p1323
I1
sS"'em "
p1324
I4
sS'understood '
p1325
I13
sS'allright '
p1326
I2
sS'time '
p1327
I2
sS'funny '
p1328
I1
sS'inferno '
p1329
I1
sS'accept '
p1330
I1
sS'doing '
p1331
I21
sS'gotcha '
p1332
I4
sS'****** '
p1333
I1
sS'she '
p1334
I2
sS'order '
p1335
I1
sS'never '
p1336
I1
sS'throh '
p1337
I1
sS'them '
p1338
I4
sS'loud '
p1339
I1
sS'rht '
p1340
I1
sS'doin '
p1341
I1
sS'let" '
p1342
I1
sS'surely '
p1343
I1
sS"'ight "
p1344
I3
sS'squawks '
p1345
I1
sS'let '
p1346
I1
sS'pal '
p1347
I1
sS'everything '
p1348
I1
sS'seriously '
p1349
I3
sS'pointing '
p1350
I1
sS'nuts '
p1351
I1
sS'thanks '
p1352
I5
sS'grab '
p1353
I1
sS'light '
p1354
I1
sS'along '
p1355
I3
sS'mellifluous '
p1356
I1
sS'square '
p1357
I1
sS'novelty '
p1358
I1
sS'yep '
p1359
I3
sS'cancer '
p1360
I1
sS'attention '
p1361
I1
sS'go '
p1362
I5
sS'happening '
p1363
I2
sS'breakdown '
p1364
I1
sS'cope '
p1365
I1
sS'without '
p1366
I1
sS'um '
p1367
I1
sS'sorted '
p1368
I2
sS'here '
p1369
I1
sS'yourself '
p1370
I1
sS'tubbs '
p1371
I2
sS'amazing '
p1372
I1
sS'farms '
p1373
I1
sS'ten- '
p1374
I2
sS'excited '
p1375
I1
sS'live '
p1376
I2
sS'knew '
p1377
I6
sS'myself '
p1378
I2
sS'agree '
p1379
I1
sS'wanna '
p1380
I1
sS'true '
p1381
I1
sS'sense '
p1382
I1
sS'cool, '
p1383
I1
sS'sharon '
p1384
I1
sS'dot '
p1385
I1
sS'done '
p1386
I10
sS'know '
p1387
I76
sS'honey '
p1388
I1
sS'obviously '
p1389
I3
sS'dig '
p1390
I2
sS'right, '
p1391
I87
sS'realizes '
p1392
I1
sS'crack '
p1393
I1
sS'hiccup '
p1394
I1
sS'love '
p1395
I1
sS'righty '
p1396
I7
sS'baby '
p1397
I1
sS'clever '
p1398
I1
sS'suddenly '
p1399
I1
sS'familiar '
p1400
I1
sS'now '
p1401
I1
sS'ass '
p1402
I1
sS'hey '
p1403
I2
sS'obvous '
p1404
I1
sS'sure '
p1405
I525
sS'obvious '
p1406
I23
sS'leonard '
p1407
I1
sS'right '
p1408
I2387
sS'nathan- '
p1409
I1
sS'fiat '
p1410
I1
sS'poll '
p1411
I1
sS'laughs '
p1412
I2
sS'enough '
p1413
I3
sS'why '
p1414
I1
sS'needed '
p1415
I1
sS'hardison '
p1416
I1
sS'fucking '
p1417
I1
sS'like '
p1418
I1
sS'rehearsal '
p1419
I1
sS'sound '
p1420
I1
sS'on '
p1421
I12
sS'tally '
p1422
I1
sS'you '
p1423
I33
sS'noticed '
p1424
I1
sS'wilcox '
p1425
I1
sS'whatever '
p1426
I1
sS'feature '
p1427
I1
sS'what '
p1428
I1
sS'sunk '
p1429
I1
sS'oi '
p1430
I1
sS'dude '
p1431
I1
sS'door '
p1432
I1
sS'handle '
p1433
I33
sS'plain '
p1434
I3
sS'okay '
p1435
I191
sS'clearly '
p1436
I56
sS"'ll "
p1437
I1
sS'certainly '
p1438
I3
sS'wasn '
p1439
I1
sS'going '
p1440
I3
sS'jared '
p1441
I1
sS'dictatorship '
p1442
I1
sS'put '
p1443
I1
sS'eh '
p1444
I1
sS'mistake '
p1445
I1
sS'will '
p1446
I2
sS'artifact '
p1447
I1
sS'who '
p1448
I1
sS'riall '
p1449
I1
sS'manage '
p1450
I3
sS'realizing '
p1451
I2
sS'figured '
p1452
I10
sS'klara '
p1453
I3
sS'huh '
p1454
I4
sS'ex '
p1455
I1
sS'prepare '
p1456
I1
sS'realised '
p1457
I13
sS'sir '
p1458
I2
sS'coping '
p1459
I1
sS'reservation '
p1460
I1
sS'112 '
p1461
I1
sS'bet '
p1462
I3
sS'alright '
p1463
I104
sS'brother '
p1464
I2
sS'settled '
p1465
I5
sS'whee '
p1466
I1
sS'right\\u00a1 '
p1467
I1
sS'yeah, '
p1468
I2
sS'well '
p1469
I18
sS'problem '
p1470
I5
sS'point '
p1471
I1
sS'floyd '
p1472
I2
sS'realize '
p1473
I120
sS'memos '
p1474
I1
sS'do '
p1475
I5
sS'clear '
p1476
I382
sS'guys '
p1477
I2
sS'naturally '
p1478
I1
sS'chuckllng '
p1479
I1
sS'geniuses '
p1480
I1
sS'figures '
p1481
I4
sS'roger '
p1482
I2
sS'remaining '
p1483
I1
sS'shoot '
p1484
I1
sS'realise '
p1485
I14
sS'sheldonopolis '
p1486
I1
sS'easy '
p1487
I2
sS'telling '
p1488
I2
sS'mate '
p1489
I1
sS'crazy '
p1490
I1
sS'girl, '
p1491
I1
sS'can '
p1492
I2
sS'klar '
p1493
I8
sS'sit '
p1494
I1
sS'managing '
p1495
I1
sS'indeed '
p1496
I3
sS'oh '
p1497
I12
sS'baby- '
p1498
I1
sS'tell '
p1499
I2
sS'ben '
p1500
I2
sS'hear '
p1501
I2
sS'see '
p1502
I22
sS'gasps '
p1503
I1
sS'i '
p1504
I18
sS'aaaaah '
p1505
I1
sS'ahead '
p1506
I3
sS'in '
p1507
I1
sS'awesomest '
p1508
I1
sS'laugh '
p1509
I1
sS'mind '
p1510
I1
sS'deal '
p1511
I12
sS'elena '
p1512
I1
sS'hofer '
p1513
I1
sS'zack '
p1514
I1
sS'confused '
p1515
I2
sS'get '
p1516
I13
sS'normal '
p1517
I1
sS'eottae '
p1518
I1
sS'explain '
p1519
I1
sS'peed '
p1520
I1
sS'liz '
p1521
I1
sS'cool '
p1522
I14
sS'idea '
p1523
I3
sS'killed '
p1524
I1
sS'copy '
p1525
I3
sS'phony '
p1526
I1
sS'thing '
p1527
I1
sS'okeydoke '
p1528
I2
sS'yeah '
p1529
I283
stp1530
a((lp1531
S'regelst'
p1532
aS'Regelst'
p1533
a(dp1534
S'work '
p1535
I1
sS'manage '
p1536
I2
sS'handle '
p1537
I1
stp1538
a((lp1539
S'l\xc3\xb6sen'
p1540
aS'L\xc3\xb6sen'
p1541
a(dp1542
S'breaking '
p1543
I1
sS'disengage '
p1544
I2
sS'solved '
p1545
I1
sS'resolve '
p1546
I12
sS'liquidating '
p1547
I1
sS'conflict '
p1548
I3
sS'relieve '
p1549
I1
sS'into '
p1550
I4
sS'unlock '
p1551
I1
sS'break '
p1552
I1
sS'ended '
p1553
I1
sS'gonnasolve '
p1554
I1
sS'fix '
p1555
I9
sS'disconnect '
p1556
I1
sS'rag '
p1557
I1
sS'deal '
p1558
I1
sS'set '
p1559
I1
sS'figure '
p1560
I6
sS'work '
p1561
I2
sS'do '
p1562
I1
sS'loosen '
p1563
I2
sS'solving '
p1564
I14
sS'disappear '
p1565
I3
sS'crack '
p1566
I5
sS'tag- '
p1567
I1
sS'solve '
p1568
I127
sS'peoplesolving '
p1569
I1
sS'conduct '
p1570
I1
sS'manage '
p1571
I2
sS'neutralise '
p1572
I1
sS'loose '
p1573
I2
sS'make '
p1574
I1
sS'arranged '
p1575
I1
sS'cash '
p1576
I2
sS'handle '
p1577
I4
sS'prisoners '
p1578
I1
sS'sort '
p1579
I1
sS'recalibrate '
p1580
I1
sS'go '
p1581
I1
sS'out '
p1582
I4
sS'unravel '
p1583
I1
sS'care '
p1584
I1
sS'troubleto '
p1585
I1
stp1586
a((lp1587
S'auswertungsrunden'
p1588
aS'Auswertungsrunden'
p1589
a(dp1590
S'manage '
p1591
I1
stp1592
a((lp1593
S'regele'
p1594
aS'Regele'
p1595
a(dp1596
S'manage '
p1597
I1
sS'handle '
p1598
I3
sS'settle '
p1599
I1
sS'resolve '
p1600
I1
sS"'ll "
p1601
I1
stp1602
a((lp1603
S'sicher'
p1604
aS'Sicher'
p1605
a(dp1606
S'definitely '
p1607
I22
sS'checked '
p1608
I1
sS'certain '
p1609
I169
sS'could '
p1610
I3
sS'may '
p1611
I1
sS'uh '
p1612
I1
sS'clearing '
p1613
I1
sS'doc '
p1614
I1
sS'no '
p1615
I7
sS'record '
p1616
I1
sS'would '
p1617
I7
sS'hi '
p1618
I2
sS'ok '
p1619
I2
sS'redcap '
p1620
I1
sS'fat '
p1621
I1
sS'confirm '
p1622
I2
sS'steady '
p1623
I1
sS'certa\xc3\xadnly '
p1624
I1
sS'mattress '
p1625
I1
sS'course '
p1626
I67
sS'already '
p1627
I3
sS'bait '
p1628
I1
sS'de\\u011filim '
p1629
I1
sS'confidentthat '
p1630
I1
sS'sureshe '
p1631
I1
sS'clarify '
p1632
I1
sS'gotta '
p1633
I3
sS'really '
p1634
I7
sS'absolutely '
p1635
I10
sS'few '
p1636
I1
sS'mother '
p1637
I1
sS'validation '
p1638
I1
sS'pleasure '
p1639
I1
sS'pictures '
p1640
I1
sS'manage '
p1641
I1
sS'isafe '
p1642
I3
sS'dodukanleyo '
p1643
I1
sS'seat '
p1644
I1
sS'thank '
p1645
I2
sS'fizbo- '
p1646
I1
sS'talk '
p1647
I1
sS'it '
p1648
I10
sS'hmm '
p1649
I1
sS'liz '
p1650
I1
sS'regular '
p1651
I1
sS'banana '
p1652
I1
sS'imagine '
p1653
I1
sS'please '
p1654
I1
sS'sorry '
p1655
I2
sS'clean '
p1656
I1
sS'agency '
p1657
I1
sS'whatever '
p1658
I1
sS'all '
p1659
I1
sS'guarantee '
p1660
I1
sS'hurry '
p1661
I1
sS'talking '
p1662
I1
sS'fine '
p1663
I4
sS'secured '
p1664
I1
sS'torn '
p1665
I1
sS'have '
p1666
I1
sS'pen '
p1667
I1
sS'birthday '
p1668
I1
sS'totally '
p1669
I3
sS'probably '
p1670
I62
sS'safer '
p1671
I3
sS'damm '
p1672
I1
sS'determined '
p1673
I1
sS'assure '
p1674
I1
sS'anything '
p1675
I2
sS'blocking '
p1676
I1
sS'safe '
p1677
I790
sS'got '
p1678
I2
sS'teammates '
p1679
I1
sS'*** '
p1680
I1
sS"'ll "
p1681
I3
sS'as '
p1682
I1
sS'invisible '
p1683
I1
sS'likely '
p1684
I1
sS'yup '
p1685
I1
sS'laughing '
p1686
I3
sS'face '
p1687
I1
sS'gunfire '
p1688
I1
sS'at '
p1689
I2
sS'johnny '
p1690
I1
sS'surethis '
p1691
I2
sS'hit '
p1692
I1
sS'assured '
p1693
I4
sS'that '
p1694
I1
sS'come '
p1695
I1
sS'find '
p1696
I1
sS'yes '
p1697
I6
sS'good '
p1698
I5
sS'safety '
p1699
I1
sS'even '
p1700
I1
sS'is '
p1701
I2
sS'nothing '
p1702
I1
sS'protected '
p1703
I4
sS'built '
p1704
I2
sS'count '
p1705
I1
sS'proof '
p1706
I3
sS'brilliant '
p1707
I1
sS'aid '
p1708
I1
sS'them '
p1709
I1
sS'dismiss '
p1710
I1
sS'might '
p1711
I8
sS'think '
p1712
I9
sS'ridikolus '
p1713
I1
sS'surely '
p1714
I51
sS'doesn '
p1715
I2
sS'hello '
p1716
I1
sS'saturday '
p1717
I1
sS'burke '
p1718
I1
sS'ruth '
p1719
I1
sS'cheney '
p1720
I1
sS'puhut '
p1721
I1
sS'seriously '
p1722
I2
sS'nuts '
p1723
I1
sS'jerry '
p1724
I2
sS'ones '
p1725
I1
sS'bruv '
p1726
I1
sS'joe '
p1727
I1
sS'su '
p1728
I1
sS'checking '
p1729
I1
sS'seymour, '
p1730
I1
sS'thanks '
p1731
I2
sS'happen '
p1732
I1
sS'must '
p1733
I49
sS'surethat '
p1734
I2
sS'constance '
p1735
I1
sS'quite '
p1736
I2
sS'threesome '
p1737
I1
sS'lot '
p1738
I2
sS'trust '
p1739
I3
sS'boring '
p1740
I1
sS'cookie '
p1741
I1
sS'deserves '
p1742
I1
sS'doubt '
p1743
I4
sS'angle '
p1744
I1
sS'neurobiologist '
p1745
I1
sS'live '
p1746
I1
sS'knew '
p1747
I2
sS'case '
p1748
I3
sS'see '
p1749
I3
sS'stakes '
p1750
I1
sS'wanna '
p1751
I1
sS'worried '
p1752
I2
sS'guess '
p1753
I3
sS'convinced '
p1754
I4
sS'know '
p1755
I45
sS'obviously '
p1756
I1
sS'ton '
p1757
I1
sS'brain '
p1758
I1
sS'toilets '
p1759
I1
sS'$23 '
p1760
I1
sS'passageway '
p1761
I1
sS'be '
p1762
I38
sS'thoughts '
p1763
I2
sS'there '
p1764
I3
sS'sure '
p1765
I4971
sS'suppose '
p1766
I5
sS'right '
p1767
I25
sS'insane '
p1768
I1
sS'unsafe '
p1769
I4
sS'me '
p1770
I2
sS'believe '
p1771
I2
sS'batman '
p1772
I1
sS'why '
p1773
I1
sS'so '
p1774
I1
sS'certainty '
p1775
I2
sS'crap '
p1776
I1
sS'jr '
p1777
I1
sS'safely '
p1778
I56
sS'ronstadt '
p1779
I1
sS'you '
p1780
I6
sS'off '
p1781
I1
sS'serious '
p1782
I19
sS'they '
p1783
I2
sS'what '
p1784
I1
sS'right- '
p1785
I1
sS'straight '
p1786
I2
sS'means '
p1787
I3
sS'odavde '
p1788
I1
sS'okay '
p1789
I9
sS'clearly '
p1790
I6
sS'certainly '
p1791
I86
sS'and '
p1792
I1
sS'won '
p1793
I1
sS'betcha '
p1794
I1
sS'mesome '
p1795
I1
sS'he '
p1796
I2
sS'shizzle '
p1797
I1
sS'eh '
p1798
I1
sS'mike '
p1799
I1
sS'will '
p1800
I3
sS'granted '
p1801
I4
sS'spot '
p1802
I1
sS'confident '
p1803
I13
sS'cheer '
p1804
I1
sS'gonna '
p1805
I3
sS'shure '
p1806
I1
sS'positive '
p1807
I31
sS"' "
p1808
I1
sS's\\u00fbr '
p1809
I1
sS'go '
p1810
I1
sS"'d "
p1811
I1
sS'bat '
p1812
I1
sS'bet '
p1813
I25
sS'cocksure '
p1814
I1
sS'none '
p1815
I1
sS'swear '
p1816
I1
sS'well '
p1817
I5
sS"'t "
p1818
I1
sS'solid '
p1819
I2
sS'though '
p1820
I1
sS', '
p1821
I1
sS'do '
p1822
I5
sS'clear '
p1823
I27
sS'made- '
p1824
I1
sS'understand '
p1825
I4
sS'hell '
p1826
I1
sS'watch '
p1827
I1
sS'compromised '
p1828
I1
sS'engaged '
p1829
I1
sS'soda '
p1830
I1
sS'eat '
p1831
I1
sS'point '
p1832
I1
sS'fact '
p1833
I6
sS'can '
p1834
I6
sS'sit '
p1835
I1
sS'oh '
p1836
I2
sS'sure, '
p1837
I23
sS'spend '
p1838
I1
sS'assurance '
p1839
I1
sS'surehe '
p1840
I1
sS'sicher '
p1841
I1
sS'ridiculous '
p1842
I1
sS'i '
p1843
I6
sS'she, '
p1844
I1
sS'ahead '
p1845
I1
sS're '
p1846
I3
sS'excuse '
p1847
I1
sS'door '
p1848
I1
sS'don '
p1849
I4
sS'katie '
p1850
I1
sS'real '
p1851
I1
sS'sire '
p1852
I3
sS'surei '
p1853
I1
sS'secure '
p1854
I51
sS'ensure '
p1855
I1
sS'covered '
p1856
I1
sS'great '
p1857
I2
sS'assuredly '
p1858
I1
sS'shut '
p1859
I1
sS'thing '
p1860
I1
sS'picking '
p1861
I1
sS'still '
p1862
I1
sS"'m "
p1863
I1
sS'yeah '
p1864
I30
sS'epitome '
p1865
I1
stp1866
a((lp1867
S'kennen'
p1868
aS'Kennen'
p1869
a(dp1870
S'other '
p1871
I11
sS'knew '
p1872
I25
sS'somewhere '
p1873
I1
sS'got '
p1874
I1
sS'knowneach '
p1875
I1
sS'meet '
p1876
I16
sS'have '
p1877
I32
sS'found '
p1878
I1
sS'remember '
p1879
I6
sS'know '
p1880
I944
sS'meeting '
p1881
I2
sS'knows '
p1882
I6
sS'heard '
p1883
I9
sS'possess '
p1884
I1
sS'i '
p1885
I1
sS'physicians '
p1886
I1
sS'did '
p1887
I4
sS'old '
p1888
I1
sS'recognize '
p1889
I7
sS'familiar '
p1890
I13
sS'before '
p1891
I1
sS'haven '
p1892
I3
sS'yes '
p1893
I1
sS'understand '
p1894
I5
sS'seen '
p1895
I16
sS'saw '
p1896
I1
sS'knowing '
p1897
I21
sS'manage '
p1898
I1
sS'havenwe '
p1899
I1
sS'eachother '
p1900
I2
sS'can '
p1901
I2
sS'acquainted '
p1902
I3
sS'don '
p1903
I3
sS'met '
p1904
I59
sS'simmons '
p1905
I1
sS'maze '
p1906
I1
sS'father '
p1907
I1
sS'love '
p1908
I1
sS"'ve "
p1909
I4
sS'- '
p1910
I1
sS'are '
p1911
I2
sS'strindberg '
p1912
I1
sS'go '
p1913
I4
sS'kazim '
p1914
I1
sS'wearing '
p1915
I1
sS'known '
p1916
I57
sS"'re "
p1917
I4
sS'aware '
p1918
I5
sS'friends '
p1919
I1
sS'situation '
p1920
I1
sS'do '
p1921
I174
stp1922
a((lp1923
S'zurande'
p1924
aS'Zurande'
p1925
a(dp1926
S'manage '
p1927
I1
stp1928
a((lp1929
S'sch\xc3\xbctzen'
p1930
aS'Sch\xc3\xbctzen'
p1931
a(dp1932
S'insulate '
p1933
I1
sS'safe '
p1934
I16
sS'shooter '
p1935
I36
sS'shielding '
p1936
I1
sS'shooter, '
p1937
I1
sS'covered '
p1938
I1
sS'publish '
p1939
I1
sS'secure '
p1940
I2
sS'saving '
p1941
I2
sS'guarding '
p1942
I3
sS'defend '
p1943
I2
sS'keep '
p1944
I2
sS'fewer '
p1945
I1
sS'sanctuary '
p1946
I1
sS'archer '
p1947
I1
sS'manage '
p1948
I1
sS'snipers '
p1949
I1
sS'protected '
p1950
I3
sS'sagittarius '
p1951
I2
sS'protect '
p1952
I293
sS'shoot '
p1953
I1
sS'shooters '
p1954
I31
sS'protecting '
p1955
I32
sS'save '
p1956
I15
sS'covering '
p1957
I1
sS'safeguard '
p1958
I2
sS'cover '
p1959
I5
sS'protection '
p1960
I3
sS'gunman '
p1961
I6
sS'archers '
p1962
I4
sS'shield '
p1963
I2
sS'sniper '
p1964
I2
sS'gunners '
p1965
I1
sS'preserve '
p1966
I1
sS'rifleman '
p1967
I1
sS'protects '
p1968
I1
stp1969
a((lp1970
S'schauen'
p1971
aS'Schauen'
p1972
a(dp1973
S'registered '
p1974
I1
sS'watching '
p1975
I22
sS'stare '
p1976
I1
sS'look, '
p1977
I4
sS'lego '
p1978
I1
sS'over '
p1979
I1
sS'hesitate '
p1980
I1
sS'luck '
p1981
I2
sS'find '
p1982
I1
sS'explore '
p1983
I1
sS'dre '
p1984
I1
sS'visit '
p1985
I1
sS'lookit, '
p1986
I1
sS'sake '
p1987
I1
sS'fair '
p1988
I1
sS'figure '
p1989
I2
sS'peek '
p1990
I3
sS'taller '
p1991
I1
sS'hey '
p1992
I1
sS'make '
p1993
I2
sS'risky '
p1994
I1
sS'tootsie '
p1995
I1
sS'nearest '
p1996
I1
sS'watch '
p1997
I36
sS'manage '
p1998
I1
sS'look '
p1999
I482
sS'sit '
p2000
I2
sS'groans '
p2001
I1
sS'evening- '
p2002
I2
sS'eyes '
p2003
I1
sS'oh '
p2004
I1
sS'looking '
p2005
I45
sS'upstairs '
p2006
I1
sS'observe '
p2007
I1
sS'see '
p2008
I129
sS'jen '
p2009
I1
sS'harold '
p2010
I1
sS'chamjaekhago '
p2011
I1
sS'let '
p2012
I56
sS'it/ '
p2013
I1
sS'are '
p2014
I1
sS'looky '
p2015
I1
sS'pardon '
p2016
I1
sS'show '
p2017
I1
sS'go '
p2018
I1
sS'check '
p2019
I21
sS'timing '
p2020
I1
sS'what '
p2021
I1
sS'glance '
p2022
I1
sS'facewhen '
p2023
I1
sS'take '
p2024
I2
sS'lookin '
p2025
I2
sS'raunchy '
p2026
I1
sS'centerpiece '
p2027
I1
sS'yeah '
p2028
I1
sS'which '
p2029
I1
stp2030
a((lp2031
S'klarkommen'
p2032
aS'Klarkommen'
p2033
a(dp2034
S'manage '
p2035
I1
sS'handle '
p2036
I6
sS'dealing '
p2037
I2
sS'deal '
p2038
I3
sS'own '
p2039
I2
sS'clear- '
p2040
I1
sS'boyfriend '
p2041
I1
sS'fine, '
p2042
I1
sS'gay '
p2043
I1
sS'gonnahave '
p2044
I1
sS'roll '
p2045
I1
sS'fine '
p2046
I8
sS'used '
p2047
I1
sS'ok '
p2048
I1
sS'right '
p2049
I4
sS'along '
p2050
I5
sS'team '
p2051
I1
sS'figure '
p2052
I1
stp2053
a((lp2054
S'bew\xc3\xa4ltigen'
p2055
aS'Bew\xc3\xa4ltigen'
p2056
a(dp2057
S'manage '
p2058
I1
sS'handle '
p2059
I9
sS'face '
p2060
I1
sS'managing '
p2061
I1
sS'overcome '
p2062
I2
sS'cope '
p2063
I6
sS'coping '
p2064
I1
sS'taken '
p2065
I1
sS'or '
p2066
I1
stp2067
a((lp2068
S'erledigen'
p2069
aS'Erledigen'
p2070
a(dp2071
S'places '
p2072
I1
sS'knock '
p2073
I1
sS'bye '
p2074
I1
sS'accomplish '
p2075
I2
sS'end '
p2076
I2
sS'meet '
p2077
I1
sS'done '
p2078
I30
sS'hanging '
p2079
I1
sS'down '
p2080
I5
sS'rid '
p2081
I2
sS'fix '
p2082
I2
sS'arrange '
p2083
I1
sS'deal '
p2084
I6
sS'mess '
p2085
I1
sS'hit '
p2086
I1
sS'finish '
p2087
I24
sS'do '
p2088
I203
sS'clear '
p2089
I3
sS'cover '
p2090
I1
sS'make '
p2091
I2
sS'run '
p2092
I1
sS'settle '
p2093
I8
sS'favor '
p2094
I1
sS's '
p2095
I1
sS'manage '
p2096
I1
sS'doing '
p2097
I6
sS'business '
p2098
I3
sS'walk '
p2099
I2
sS'eh '
p2100
I1
sS'desmond '
p2101
I1
sS'first '
p2102
I1
sS'errands '
p2103
I3
sS'reckon '
p2104
I1
sS'popping '
p2105
I1
sS'death '
p2106
I1
sS'tend '
p2107
I2
sS'tired '
p2108
I1
sS'organise '
p2109
I1
sS'errand '
p2110
I5
sS'ofthem '
p2111
I1
sS'handle '
p2112
I17
sS'********* '
p2113
I1
sS'terminate '
p2114
I8
sS'unfinished '
p2115
I3
sS'attend '
p2116
I4
sS'get '
p2117
I5
sS'dispose '
p2118
I1
sS'things '
p2119
I3
sS'go '
p2120
I1
sS'work '
p2121
I1
sS'stuff '
p2122
I1
sS'take '
p2123
I20
sS'sort '
p2124
I1
sS'boo '
p2125
I1
sS'crush '
p2126
I1
sS'to '
p2127
I1
sS'somethingnice '
p2128
I1
sS'kill '
p2129
I14
stp2130
a((lp2131
S'leiten'
p2132
aS'Leiten'
p2133
a(dp2134
S'arrange '
p2135
I2
sS'chair '
p2136
I1
sS'dumping '
p2137
I6
sS'lead '
p2138
I9
sS'set '
p2139
I2
sS'ran '
p2140
I2
sS'direct '
p2141
I3
sS'manage '
p2142
I1
sS'leading '
p2143
I2
sS'guide '
p2144
I13
sS'run '
p2145
I37
sS'divert '
p2146
I4
sS'govern '
p2147
I1
sS'617 '
p2148
I1
sS'runningan '
p2149
I1
sS'running '
p2150
I14
sS'conduct '
p2151
I2
sS'hahaha '
p2152
I1
sS'channel '
p2153
I1
sS'charge '
p2154
I3
stp2155
a((lp2156
S'fertig'
p2157
aS'Fertig'
p2158
a(dp2159
S'bottom '
p2160
I1
sS'that '
p2161
I1
sS'exhausts '
p2162
I1
sS'comers '
p2163
I1
sS'almost '
p2164
I2
sS'hi '
p2165
I1
sS'ok '
p2166
I1
sS'ground '
p2167
I2
sS'kill '
p2168
I4
sS'down '
p2169
I28
sS'kills '
p2170
I1
sS'with, '
p2171
I1
sS'disgusting '
p2172
I1
sS'wow '
p2173
I1
sS'tired '
p2174
I1
sS'whacked '
p2175
I2
sS'course '
p2176
I1
sS'deal '
p2177
I14
sS'break '
p2178
I1
sS'did '
p2179
I1
sS'gear '
p2180
I1
sS'up '
p2181
I51
sS'ruin '
p2182
I1
sS'ready '
p2183
I487
sS'zinger '
p2184
I1
sS'finishing '
p2185
I10
sS'size '
p2186
I1
sS'ohh '
p2187
I1
sS'goodbye '
p2188
I1
sS'wreck '
p2189
I3
sS'cooper '
p2190
I1
sS'wore '
p2191
I1
sS'table '
p2192
I1
sS'it '
p2193
I14
sS'found '
p2194
I1
sS'liz '
p2195
I1
sS'finishes '
p2196
I1
sS'donelooking '
p2197
I1
sS'wreak '
p2198
I1
sS'petting '
p2199
I1
sS'fully '
p2200
I1
sS'knock- '
p2201
I1
sS'all '
p2202
I1
sS'week '
p2203
I1
sS'whip '
p2204
I1
sS'fine '
p2205
I3
sS'killing '
p2206
I11
sS'wrap '
p2207
I1
sS'done, '
p2208
I2
sS'actress '
p2209
I1
sS'had '
p2210
I1
sS'clean '
p2211
I1
sS'vomit '
p2212
I1
sS'shit '
p2213
I7
sS'quit '
p2214
I2
sS'fire '
p2215
I1
sS'sucker '
p2216
I3
sS'bye '
p2217
I1
sS'hate '
p2218
I1
sS"'ll "
p2219
I1
sS'destroy '
p2220
I4
sS'handle, '
p2221
I1
sS'running '
p2222
I1
sS'past '
p2223
I1
sS'worn '
p2224
I4
sS'messing '
p2225
I1
sS'nerves '
p2226
I1
sS'fix '
p2227
I1
sS'rule '
p2228
I1
sS'dressed '
p2229
I2
sS'completed '
p2230
I6
sS'terrible '
p2231
I1
sS'finished '
p2232
I253
sS'finish '
p2233
I126
sS'cope '
p2234
I3
sS'bury '
p2235
I1
sS'good '
p2236
I19
sS"'em "
p2237
I6
sS'zen '
p2238
I2
sS'undone '
p2239
I2
sS'ram '
p2240
I1
sS'screw '
p2241
I1
sS'paid '
p2242
I1
sS'book '
p2243
I1
sS'destroyed '
p2244
I2
sS'sensitive '
p2245
I1
sS'ugur '
p2246
I1
sS'after '
p2247
I1
sS'through '
p2248
I42
sS'agitated '
p2249
I1
sS'completes '
p2250
I2
sS'sugar '
p2251
I1
sS'already '
p2252
I3
sS'landed '
p2253
I1
sS'fixed '
p2254
I5
sS'quack '
p2255
I1
sS'mops '
p2256
I1
sS'exhausted '
p2257
I3
sS'freaked '
p2258
I2
sS'attention '
p2259
I1
sS'go '
p2260
I10
sS'out '
p2261
I16
sS'low '
p2262
I1
sS'colombia '
p2263
I1
sS'stand '
p2264
I1
sS'tick '
p2265
I1
sS'yourself '
p2266
I1
sS'stop '
p2267
I1
sS'screwed '
p2268
I1
sS'underestimate '
p2269
I1
sS'there '
p2270
I8
sS'complete '
p2271
I6
sS'bad, '
p2272
I1
sS'mountain '
p2273
I1
sS'done '
p2274
I864
sS'served '
p2275
I1
sS'together '
p2276
I1
sS'bloated '
p2277
I1
sS'seriously '
p2278
I1
sS'hammered '
p2279
I1
sS'laid '
p2280
I1
sS'now '
p2281
I3
sS'ass '
p2282
I10
sS'two '
p2283
I1
sS'baby '
p2284
I1
sS'j\xc3\xa4ljell\xc3\xa4 '
p2285
I1
sS'worked '
p2286
I1
sS'right '
p2287
I3
sS'colombian '
p2288
I1
sS'loaded '
p2289
I1
sS'enough '
p2290
I2
sS'prepared '
p2291
I1
sS'fucked '
p2292
I2
sS'platoon '
p2293
I1
sS'crap '
p2294
I2
sS'angeli '
p2295
I1
sS'tore '
p2296
I1
sS'on '
p2297
I3
sS'destroying '
p2298
I1
sS'you '
p2299
I4
sS'off '
p2300
I2
sS'goes '
p2301
I1
sS'pay '
p2302
I1
sS'beaten '
p2303
I1
sS'handle '
p2304
I27
sS'struggling '
p2305
I1
sS'okay '
p2306
I2
sS'end '
p2307
I1
sS'wiped '
p2308
I3
sS'materials, '
p2309
I1
sS'going '
p2310
I2
sS'wait '
p2311
I1
sS'take '
p2312
I5
sS'crush '
p2313
I2
sS'merci '
p2314
I1
sS'lag '
p2315
I1
sS'yep '
p2316
I1
sS'sad '
p2317
I2
sS'manage '
p2318
I1
sS'cooked '
p2319
I1
sS'bum- '
p2320
I1
sS'toasted '
p2321
I1
sS'mess '
p2322
I4
sS'prepare '
p2323
I7
sS'final '
p2324
I1
sS'over '
p2325
I20
sS'closes '
p2326
I1
sS'circle '
p2327
I1
sS'rattles '
p2328
I1
sS'alright '
p2329
I1
sS'amy '
p2330
I2
sS'fucking '
p2331
I1
sS'set '
p2332
I71
sS'clear '
p2333
I8
sS'bucks '
p2334
I1
sS'away '
p2335
I1
sS'cult '
p2336
I1
sS'bad '
p2337
I2
sS'incidentally '
p2338
I1
sS'wasted '
p2339
I1
sS'beat '
p2340
I14
sS'rip '
p2341
I1
sS'" '
p2342
I1
sS'karma '
p2343
I1
sS'can '
p2344
I1
sS'as- '
p2345
I1
sS'again '
p2346
I2
sS'buckle '
p2347
I1
sS'bird '
p2348
I1
sS'watson '
p2349
I1
sS'upset '
p2350
I3
sS'crazy '
p2351
I1
sS'hon '
p2352
I1
sS'get '
p2353
I6
sS'gone '
p2354
I2
sS'dealt '
p2355
I3
sS'sharp '
p2356
I2
sS'great '
p2357
I2
sS'yet '
p2358
I1
sS'killed '
p2359
I1
sS'ends '
p2360
I3
sS'i\\u2019 '
p2361
I1
sS'dinner '
p2362
I1
sS'destiny '
p2363
I1
sS'yeah '
p2364
I3
sS'sleep '
p2365
I1
stp2366
a((lp2367
S'arrangieren'
p2368
aS'Arrangieren'
p2369
a(dp2370
S'arrange '
p2371
I41
sS'rearrange '
p2372
I1
sS'bologna '
p2373
I1
sS'breathes '
p2374
I1
sS'set '
p2375
I10
sS'beta '
p2376
I1
sS'work '
p2377
I1
sS'players '
p2378
I1
sS'arranged '
p2379
I3
sS'find '
p2380
I1
sS'good '
p2381
I1
sS'happen '
p2382
I2
sS'adjust '
p2383
I1
sS'arranging '
p2384
I3
sS'together '
p2385
I1
sS'transfer '
p2386
I1
sS'manage '
p2387
I1
stp2388
a((lp2389
S'komme'
p2390
aS'Komme'
p2391
a(dp2392
S'feel '
p2393
I15
sS'else '
p2394
I1
sS'join '
p2395
I1
sS'make '
p2396
I1
sS'am '
p2397
I18
sS'myself '
p2398
I1
sS'no '
p2399
I1
sS'makes '
p2400
I3
sS'dress '
p2401
I1
sS"'d "
p2402
I14
sS"'ll "
p2403
I313
sS'left '
p2404
I1
sS"'ii "
p2405
I3
sS'coming '
p2406
I365
sS'up '
p2407
I1
sS'was '
p2408
I1
sS'going '
p2409
I1
sS'mom '
p2410
I1
sS'komme '
p2411
I1
sS'i '
p2412
I2
sS'just '
p2413
I4
sS'm '
p2414
I2
sS'il '
p2415
I1
sS'catch '
p2416
I3
sS'drop '
p2417
I1
sS'do '
p2418
I22
sS"'m "
p2419
I245
sS'there '
p2420
I1
sS'come '
p2421
I410
sS'954 '
p2422
I1
sS'yes '
p2423
I2
sS'she '
p2424
I1
sS'right '
p2425
I2
sS'won '
p2426
I1
sS'is '
p2427
I2
sS'incoming '
p2428
I1
sS'went '
p2429
I1
sS'roxanne '
p2430
I1
sS'mate '
p2431
I1
sS'shall '
p2432
I1
sS'cut '
p2433
I1
sS'lighten '
p2434
I1
sS'can '
p2435
I69
sS'manage '
p2436
I1
sS'count '
p2437
I1
sS'came '
p2438
I24
sS"'il "
p2439
I1
sS'with '
p2440
I1
sS'explosion '
p2441
I1
sS'grew '
p2442
I1
sS'don '
p2443
I2
sS'michelle '
p2444
I1
sS'fate '
p2445
I1
sS'way '
p2446
I2
sS'gets '
p2447
I1
sS"'hh "
p2448
I2
sS'god '
p2449
I1
sS'll '
p2450
I1
sS'jeff '
p2451
I1
sS'did '
p2452
I2
sS"'ve "
p2453
I5
sS'return '
p2454
I2
sS'defeated '
p2455
I1
sS'vacuum '
p2456
I1
sS'get '
p2457
I44
sS'poor '
p2458
I1
sS'takes '
p2459
I1
sS'show '
p2460
I2
sS'go '
p2461
I8
sS'dealt '
p2462
I1
sS'ensure '
p2463
I1
sS'comin '
p2464
I11
sS'ain '
p2465
I1
sS'yeah '
p2466
I1
sS"'ll, "
p2467
I1
sS'hold '
p2468
I4
sS'will '
p2469
I19
sS'big '
p2470
I1
sS'here '
p2471
I1
sS'be '
p2472
I7
sS'back '
p2473
I3
sS'implements '
p2474
I1
stp2475
a((lp2476
S'klargekommen'
p2477
aS'Klargekommen'
p2478
a(dp2479
S'manage '
p2480
I1
sS'our '
p2481
I1
sS'insatiable '
p2482
I1
sS'handled '
p2483
I1
sS'check '
p2484
I1
stp2485
a((lp2486
S'hinkriegen'
p2487
aS'Hinkriegen'
p2488
a(dp2489
S'manage '
p2490
I1
sS'intend '
p2491
I1
sS'rocko '
p2492
I1
sS'can '
p2493
I1
sS'gonna '
p2494
I4
sS'work '
p2495
I5
sS'caseload '
p2496
I1
sS'fine '
p2497
I2
sS'handle '
p2498
I3
sS'out '
p2499
I1
sS'happen '
p2500
I1
sS'right '
p2501
I2
sS'fix '
p2502
I10
stp2503
a((lp2504
S'empfangsraum'
p2505
aS'Empfangsraum'
p2506
a(dp2507
S'manage '
p2508
I1
sS'barreled '
p2509
I1
stp2510
a((lp2511
S'bekomme'
p2512
aS'Bekomme'
p2513
a(dp2514
S'having '
p2515
I7
sS'getting '
p2516
I58
sS'am '
p2517
I10
sS'got '
p2518
I10
sS'chomped '
p2519
I1
sS"'ll "
p2520
I2
sS'want '
p2521
I1
sS'gives '
p2522
I6
sS"'ti "
p2523
I1
sS'may '
p2524
I1
sS'gettin '
p2525
I2
sS'receive '
p2526
I1
sS'payment '
p2527
I1
sS'do '
p2528
I12
sS"'m "
p2529
I7
sS'giving '
p2530
I1
sS'beyond '
p2531
I1
sS'master '
p2532
I2
sS'freaks '
p2533
I1
sS'scar '
p2534
I1
sS'is '
p2535
I1
sS'manage '
p2536
I1
sS'fee '
p2537
I2
sS'can '
p2538
I38
sS"'ok "
p2539
I1
sS'isn '
p2540
I1
sS'obtain '
p2541
I1
sS'weirdo '
p2542
I1
sS'spirituality '
p2543
I1
sS'seriously '
p2544
I1
sS'wrinkles '
p2545
I2
sS'esteem '
p2546
I1
sS'shot '
p2547
I1
sS'grandpa '
p2548
I1
sS'get '
p2549
I225
sS'had '
p2550
I1
sS'have '
p2551
I27
sS'starting '
p2552
I1
sS'will '
p2553
I2
stp2554
a((lp2555
S'gestalten'
p2556
aS'Gestalten'
p2557
a(dp2558
S'manage '
p2559
I1
sS'simplify '
p2560
I1
sS'create '
p2561
I1
sS'shapes '
p2562
I1
sS'make '
p2563
I6
sS'figures '
p2564
I1
sS'bopping '
p2565
I1
sS'characters '
p2566
I2
stp2567
a((lp2568
S'hoffentlich'
p2569
aS'Hoffentlich'
p2570
a(dp2571
S'better '
p2572
I21
sS'hopef\xc3\xbcily '
p2573
I1
sS'hopefuily '
p2574
I1
sS'implications '
p2575
I1
sS'hopefully '
p2576
I131
sS'luck '
p2577
I1
sS'analyze '
p2578
I1
sS'may '
p2579
I1
sS'wish '
p2580
I1
sS'be '
p2581
I1
sS'right '
p2582
I2
sS'andy '
p2583
I1
sS'if '
p2584
I2
sS'signed '
p2585
I1
sS'each '
p2586
I1
sS'studying '
p2587
I2
sS'manage '
p2588
I1
sS'hope '
p2589
I114
sS'they '
p2590
I1
sS'please '
p2591
I1
sS'let '
p2592
I2
sS'fate '
p2593
I1
sS'perhaps '
p2594
I1
sS'hopefully, '
p2595
I2
sS'hoping '
p2596
I2
stp2597
a((lp2598
S'manage'
p2599
aS'Manage'
p2600
a(dp2601
S'manage '
p2602
I1
sS'managing '
p2603
I1
stp2604
a((lp2605
S'schwierig'
p2606
aS'Schwierig'
p2607
a(dp2608
S'difficult, '
p2609
I1
sS'score '
p2610
I1
sS'character '
p2611
I1
sS'difficult '
p2612
I156
sS'anymore '
p2613
I1
sS'tricky '
p2614
I16
sS'brother '
p2615
I1
sS'iscrpljen '
p2616
I1
sS'problem '
p2617
I1
sS'troubled '
p2618
I4
sS'messy '
p2619
I4
sS'easy '
p2620
I6
sS'strange '
p2621
I1
sS'soup '
p2622
I1
sS'manage '
p2623
I1
sS'hard '
p2624
I79
sS'handful '
p2625
I4
sS'vision '
p2626
I1
sS'decisions '
p2627
I2
sS'critical '
p2628
I1
sS'tight '
p2629
I2
sS'disabled '
p2630
I1
sS'... '
p2631
I1
sS'siberia '
p2632
I1
sS'dffcult '
p2633
I1
sS'tough '
p2634
I22
sS'degree '
p2635
I1
sS'crucial '
p2636
I1
sS'anthropologie '
p2637
I1
sS'dyslexia '
p2638
I1
sS'trying '
p2639
I1
sS'complicated '
p2640
I5
sS'close '
p2641
I1
sS'heavy '
p2642
I1
sS'trouble '
p2643
I2
stp2644
a((lp2645
S'funktionieren'
p2646
aS'Funktionieren'
p2647
a(dp2648
S'worked, '
p2649
I1
sS'treasure '
p2650
I1
sS'going '
p2651
I2
sS'work, '
p2652
I1
sS'working '
p2653
I18
sS'goggles '
p2654
I1
sS'heck '
p2655
I1
sS'functioning '
p2656
I1
sS'tired '
p2657
I1
sS'aren '
p2658
I2
sS'shutting '
p2659
I1
sS'work '
p2660
I323
sS'works '
p2661
I8
sS'do '
p2662
I1
sS'fail '
p2663
I1
sS'good '
p2664
I1
sS'malfunction '
p2665
I1
sS'worked '
p2666
I6
sS'way, '
p2667
I2
sS'manage '
p2668
I1
sS'howard, '
p2669
I1
sS'jay '
p2670
I1
sS'success '
p2671
I1
sS'fly '
p2672
I1
sS'dropping '
p2673
I1
sS'pass '
p2674
I2
sS'freak '
p2675
I1
sS'ridiculous '
p2676
I1
sS'this '
p2677
I1
sS'okay '
p2678
I1
sS'centers '
p2679
I1
sS'defective '
p2680
I1
sS'studied '
p2681
I1
sS'ray '
p2682
I1
sS'function '
p2683
I5
sS'happen '
p2684
I5
sS'are '
p2685
I3
sS'hold '
p2686
I1
sS'way '
p2687
I1
sS'functional '
p2688
I3
stp2689
a((lp2690
S'fortschritte'
p2691
aS'Fortschritte'
p2692
a(dp2693
S'manage '
p2694
I1
sS'improvement '
p2695
I1
sS'stride '
p2696
I1
sS'along '
p2697
I1
sS'going '
p2698
I1
sS'xxxx '
p2699
I1
sS'proceedings '
p2700
I1
sS'getting '
p2701
I4
sS'huh '
p2702
I1
sS'advances '
p2703
I5
sS'leap '
p2704
I1
sS'recovery '
p2705
I4
sS'headway '
p2706
I6
sS'strides '
p2707
I3
sS'monthsyou '
p2708
I1
sS'breakthrough '
p2709
I5
sS'progress '
p2710
I59
sS'developments '
p2711
I1
sS'moves '
p2712
I1
sS'weaseling '
p2713
I1
sS'processed '
p2714
I1
stp2715
a((lp2716
S'klappt"'
p2717
aS'Klappt"'
p2718
a(dp2719
S'manage '
p2720
I1
sS'rest '
p2721
I1
stp2722
a((lp2723
S'ihnen'
p2724
aS'Ihnen'
p2725
a(dp2726
S'one '
p2727
I1
sS'feel '
p2728
I2
sS'going '
p2729
I4
sS'actions '
p2730
I1
sS'y '
p2731
I1
sS'knock '
p2732
I2
sS'spectacular '
p2733
I1
sS'permission '
p2734
I1
sS'yo5 '
p2735
I1
sS'micah '
p2736
I1
sS'knocked '
p2737
I1
sS'break '
p2738
I1
sS'wow '
p2739
I1
sS'em '
p2740
I5
sS'today '
p2741
I1
sS'either '
p2742
I1
sS'manage '
p2743
I1
sS'everyone '
p2744
I1
sS'it '
p2745
I7
sS'inappropriate '
p2746
I1
sS'about '
p2747
I1
sS"'am "
p2748
I1
sS'please '
p2749
I2
sS'offer '
p2750
I2
sS'whenyou '
p2751
I2
sS'help '
p2752
I2
sS'all '
p2753
I2
sS'our '
p2754
I2
sS'fine '
p2755
I1
sS'have '
p2756
I14
sS'unsolicited '
p2757
I1
sS'any '
p2758
I3
sS'uncle '
p2759
I2
sS'house '
p2760
I1
sS'a '
p2761
I1
sS'willie '
p2762
I1
sS'got '
p2763
I2
sS'implying '
p2764
I1
sS'theirs '
p2765
I5
sS'that '
p2766
I1
sS'come '
p2767
I1
sS'make '
p2768
I2
sS'good '
p2769
I1
sS"'em "
p2770
I181
sS'their '
p2771
I50
sS'him '
p2772
I13
sS'doing '
p2773
I1
sS'them '
p2774
I2367
sS'exactly '
p2775
I1
sS'tell '
p2776
I1
sS'say '
p2777
I3
sS'them, '
p2778
I2
sS'shitcomes '
p2779
I1
sS'pursuit '
p2780
I2
sS'demands '
p2781
I1
sS'mister '
p2782
I1
sS'such '
p2783
I1
sS'empire '
p2784
I1
sS'those '
p2785
I4
sS'very '
p2786
I1
sS'whom '
p2787
I3
sS'here '
p2788
I4
sS'yourself '
p2789
I5
sS'owes '
p2790
I1
sS'boys '
p2791
I1
sS'. '
p2792
I1
sS'be '
p2793
I3
sS'recognized '
p2794
I1
sS'there '
p2795
I3
sS'prepared '
p2796
I1
sS'sir '
p2797
I1
sS'on '
p2798
I1
sS'bride '
p2799
I1
sS'you '
p2800
I6936
sS'stays '
p2801
I1
sS'they '
p2802
I131
sS'curse '
p2803
I1
sS'themi '
p2804
I1
sS'bathtub '
p2805
I1
sS'charge '
p2806
I1
sS'three '
p2807
I1
sS'observation '
p2808
I1
sS'us '
p2809
I2
sS'give '
p2810
I2
sS'parents '
p2811
I1
sS'take '
p2812
I1
sS'to '
p2813
I23
sS'tracy '
p2814
I1
sS'ya '
p2815
I15
sS'aiutarvi '
p2816
I1
sS'gonna '
p2817
I2
sS'side '
p2818
I1
sS'everybody '
p2819
I2
sS'well '
p2820
I1
sS"'t "
p2821
I1
sS'these '
p2822
I7
sS'bed '
p2823
I1
sS"'m "
p2824
I1
sS'giving '
p2825
I1
sS'your '
p2826
I108
sS'you, '
p2827
I21
sS'call '
p2828
I4
sS'neyi '
p2829
I1
sS'youa '
p2830
I2
sS'taste '
p2831
I2
sS'can '
p2832
I1
sS'looking '
p2833
I1
sS'yours '
p2834
I138
sS'nice '
p2835
I2
sS'granger '
p2836
I2
sS'ahead '
p2837
I1
sS'hooper '
p2838
I1
sS'people '
p2839
I2
sS'aiding '
p2840
I1
sS'get '
p2841
I7
sS'trust '
p2842
I1
sS'need '
p2843
I1
sS'english '
p2844
I1
sS'haley '
p2845
I1
stp2846
a((lp2847
S'kontrollieren'
p2848
aS'Kontrollieren'
p2849
a(dp2850
S'handcheck '
p2851
I2
sS'panting '
p2852
I1
sS'card '
p2853
I2
sS'stopped '
p2854
I1
sS'win '
p2855
I2
sS'manage '
p2856
I1
sS'controlled '
p2857
I5
sS'carding '
p2858
I2
sS'inspect '
p2859
I2
sS'kontrollieren '
p2860
I1
sS'contain '
p2861
I6
sS'nice '
p2862
I1
sS'stepbrother '
p2863
I1
sS'controls '
p2864
I1
sS'handle '
p2865
I1
sS'checking '
p2866
I4
sS'check '
p2867
I14
sS'controlling '
p2868
I23
sS'stand '
p2869
I1
sS'hold '
p2870
I1
sS'control '
p2871
I301
sS'choose '
p2872
I1
stp2873
a((lp2874
S'geht'
p2875
aS'Geht'
p2876
a(dp2877
S'feel '
p2878
I36
sS'going '
p2879
I124
sS'better '
p2880
I2
sS'drives '
p2881
I1
sS'okay '
p2882
I7
sS'attack '
p2883
I1
sS'am '
p2884
I29
sS'no '
p2885
I7
sS'would '
p2886
I4
sS'hi '
p2887
I7
sS'ok '
p2888
I13
sS'party '
p2889
I1
sS"'ii "
p2890
I1
sS'bullshit '
p2891
I1
sS'was '
p2892
I13
sS'hanging '
p2893
I1
sS'stay '
p2894
I3
sS'busting '
p2895
I1
sS'surround '
p2896
I1
sS'disgusting '
p2897
I1
sS'stake '
p2898
I1
sS'mmm- '
p2899
I1
sS'doing, '
p2900
I2
sS'possible '
p2901
I9
sS'step '
p2902
I2
sS'work '
p2903
I6
sS'wasn '
p2904
I1
sS'gotta '
p2905
I1
sS'really '
p2906
I3
sS'up '
p2907
I49
sS'officiant '
p2908
I1
sS'won '
p2909
I16
sS'archie '
p2910
I1
sS'muerte '
p2911
I1
sS'truth '
p2912
I1
sS'manage '
p2913
I1
sS'nothin '
p2914
I1
sS'question '
p2915
I2
sS'isn '
p2916
I124
sS'handle '
p2917
I1
sS'everyone '
p2918
I2
sS'bad '
p2919
I1
sS'happened '
p2920
I5
sS'al '
p2921
I2
sS'runs '
p2922
I2
sS'hmm '
p2923
I2
sS'about '
p2924
I26
sS'pursuing '
p2925
I1
sS'sleep '
p2926
I1
sS'opens '
p2927
I3
sS'please '
p2928
I5
sS'fares '
p2929
I2
sS'pass '
p2930
I1
sS'** '
p2931
I1
sS"'ve "
p2932
I2
sS'hardison '
p2933
I1
sS'turns '
p2934
I1
sS'we '
p2935
I4
sS'did '
p2936
I2
sS'- '
p2937
I4
sS'all '
p2938
I39
sS'time '
p2939
I2
sS'fine '
p2940
I16
sS'gong '
p2941
I1
sS'boils '
p2942
I1
sS'ain '
p2943
I22
sS'bets '
p2944
I7
sS'moves '
p2945
I3
sS'inwards '
p2946
I1
sS"' "
p2947
I1
sS'fire '
p2948
I2
sS'getting '
p2949
I2
sS'formal '
p2950
I1
sS'got '
p2951
I28
sS'sheldon '
p2952
I1
sS'has '
p2953
I26
sS'auntie '
p2954
I1
sS'missed '
p2955
I1
sS'leaving '
p2956
I11
sS"'ll "
p2957
I36
sS'kyouichi '
p2958
I1
sS'having '
p2959
I4
sS'running '
p2960
I4
sS'harder '
p2961
I1
sS'unlock '
p2962
I1
sS'should '
p2963
I5
sS'seems '
p2964
I1
sS'revolves '
p2965
I2
sS'keeps '
p2966
I1
sS'just '
p2967
I5
sS'y '
p2968
I3
sS'heading '
p2969
I1
sS'game '
p2970
I1
sS'youtube '
p2971
I1
sS'starts '
p2972
I2
sS'could '
p2973
I14
sS'badger '
p2974
I1
sS'come '
p2975
I24
sS'good '
p2976
I2
sS'wants '
p2977
I1
sS'goes '
p2978
I435
sS'mission '
p2979
I1
sS'if '
p2980
I1
sS'leave '
p2981
I49
sS'is '
p2982
I1287
sS'don\\u2019 '
p2983
I1
sS'mind '
p2984
I3
sS'doing '
p2985
I180
sS'rightey- '
p2986
I1
sS'wellbeing '
p2987
I1
sS'head '
p2988
I2
sS'mcnally '
p2989
I1
sS'goin '
p2990
I1
sS'doin '
p2991
I36
sS'role- '
p2992
I1
sS'deal '
p2993
I1
sS'hello '
p2994
I2
sS'gets '
p2995
I26
sS'everything '
p2996
I2
sS'works '
p2997
I25
sS'went '
p2998
I3
sS'light '
p2999
I1
sS'puked '
p3000
I1
sS'his '
p3001
I1
sS'goe '
p3002
I1
sS'mimimimimi '
p3003
I1
sS'courtesy '
p3004
I1
sS'go '
p3005
I515
sS'happening '
p3006
I10
sS'out '
p3007
I8
sS"'s "
p3008
I3247
sS'um '
p3009
I1
sS'stand '
p3010
I4
sS'play '
p3011
I3
sS'way '
p3012
I13
sS'thrivin '
p3013
I1
sS'love '
p3014
I1
sS'predates '
p3015
I1
sS'balloon- '
p3016
I1
sS'too '
p3017
I1
sS'hope '
p3018
I1
sS'makes '
p3019
I2
sS'walks '
p3020
I20
sS'passes '
p3021
I1
sS'have '
p3022
I15
sS'done '
p3023
I2
sS'honey '
p3024
I1
sS'fast '
p3025
I1
sS'couldn '
p3026
I3
sS'jefe '
p3027
I1
sS'non '
p3028
I2
sS'proceed '
p3029
I1
sS'cuts '
p3030
I1
sS'be '
p3031
I2
sS'up, '
p3032
I2
sS'now '
p3033
I3
sS'hey '
p3034
I4
sS'buddy '
p3035
I1
sS'sure '
p3036
I1
sS'worked '
p3037
I2
sS'right '
p3038
I8
sS'place '
p3039
I1
sS'sup '
p3040
I2
sS'luc '
p3041
I1
sS'choice '
p3042
I1
sS'watch '
p3043
I2
sS'why '
p3044
I1
sS'insist '
p3045
I1
sS'much '
p3046
I1
sS'sir '
p3047
I1
sS'sheriff '
p3048
I1
sS'takes '
p3049
I3
sS'doesn '
p3050
I20
sS'on '
p3051
I1
sS'steam '
p3052
I1
sS'you '
p3053
I72
sS'don '
p3054
I15
sS'peacefuljudge '
p3055
I1
sS'feels '
p3056
I4
sS'uses '
p3057
I1
sS'what '
p3058
I6
sS'steve '
p3059
I1
sS'honk '
p3060
I1
sS'feeling '
p3061
I26
sS'djaq '
p3062
I1
sS'dena '
p3063
I2
sS'facts '
p3064
I1
sS'scattered '
p3065
I1
sS'are '
p3066
I1126
sS'attend '
p3067
I1
sS'feelin '
p3068
I2
sS'here '
p3069
I1
sS'dog '
p3070
I1
sS'kicks '
p3071
I1
sS'[ '
p3072
I1
sS'care '
p3073
I3
sS'nothing '
p3074
I1
sS'take '
p3075
I15
sS'spirits '
p3076
I1
sS'will '
p3077
I35
sS'is- '
p3078
I1
sS'ya '
p3079
I1
sS'feei '
p3080
I1
sS'rigsby '
p3081
I1
sS'so- '
p3082
I2
sS'comes '
p3083
I55
sS'slow '
p3084
I1
sS'coming '
p3085
I2
sS'check '
p3086
I1
sS'none '
p3087
I28
sS'water '
p3088
I1
sS'youguys '
p3089
I1
sS'happens '
p3090
I10
sS'roger '
p3091
I2
sS'problem '
p3092
I1
sS'point '
p3093
I1
sS'ls '
p3094
I6
sS', '
p3095
I31
sS'bread '
p3096
I1
sS'do '
p3097
I107
sS"'m "
p3098
I682
sS'dad '
p3099
I1
sS'leads '
p3100
I1
sS'bulldozers '
p3101
I1
sS'glrl '
p3102
I1
sS"'re "
p3103
I264
sS'how '
p3104
I9
sS"'up "
p3105
I2
sS'steps '
p3106
I3
sS'passed '
p3107
I1
sS'aldo '
p3108
I1
sS's '
p3109
I15
sS'disperse '
p3110
I1
sS'not '
p3111
I1
sS'does '
p3112
I56
sS'involves '
p3113
I1
sS'walk '
p3114
I13
sS'can '
p3115
I240
sS'move '
p3116
I10
sS'oh '
p3117
I1
sS'yours '
p3118
I1
sS'moving '
p3119
I2
sS'impossible '
p3120
I3
sS'dals '
p3121
I1
sS'week '
p3122
I1
sS'whassup '
p3123
I2
sS'see '
p3124
I3
sS'concerns '
p3125
I7
sS'i '
p3126
I5
sS'tab '
p3127
I2
sS'vais '
p3128
I1
sS'cover '
p3129
I1
sS'concern '
p3130
I4
sS'drill '
p3131
I1
sS'excuse '
p3132
I1
sS'leaves '
p3133
I33
sS'off '
p3134
I1
sS'get '
p3135
I104
sS'staying '
p3136
I1
sS'panda '
p3137
I1
sS'stray '
p3138
I1
sS'risin '
p3139
I1
sS'cool '
p3140
I3
sS'calmed '
p3141
I1
sS'hasn '
p3142
I6
sS'yeah '
p3143
I5
stp3144
a((lp3145
S'regle'
p3146
aS'Regle'
p3147
a(dp3148
S'manage '
p3149
I1
sS'handle '
p3150
I4
sS"'ll "
p3151
I1
sS'opera '
p3152
I1
sS'got '
p3153
I1
sS'working '
p3154
I1
sS'run '
p3155
I2
sS'take '
p3156
I6
sS'settle '
p3157
I3
sS'straighten '
p3158
I3
sS'dena '
p3159
I1
stp3160
a((lp3161
S'hinbekommt'
p3162
aS'Hinbekommt'
p3163
a(dp3164
S'manage '
p3165
I1
sS'handle '
p3166
I1
sS'fixed '
p3167
I1
stp3168
a((lp3169
S'manager'
p3170
aS'Manager'
p3171
a(dp3172
S'camup '
p3173
I1
sS'manage '
p3174
I1
sS'managerial '
p3175
I1
sS'ha '
p3176
I1
sS'managing '
p3177
I1
sS'executive '
p3178
I2
sS'std '
p3179
I1
sS'guy '
p3180
I1
sS'doorbroke '
p3181
I1
sS'executives '
p3182
I1
sS'managers '
p3183
I2
sS'manager '
p3184
I168
sS'promoter '
p3185
I1
sS'site '
p3186
I1
stp3187
a((lp3188
S'verwalten'
p3189
aS'Verwalten'
p3190
a(dp3191
S'manage '
p3192
I1
sS'money '
p3193
I1
sS'administer '
p3194
I3
sS'dispose '
p3195
I2
sS'govern '
p3196
I1
sS'managing '
p3197
I1
sS'teach '
p3198
I1
stp3199
a((lp3200
S'hinbekomme'
p3201
aS'Hinbekomme'
p3202
a(dp3203
S'manage '
p3204
I1
sS'handle '
p3205
I2
sS'happen '
p3206
I1
sS'can '
p3207
I2
stp3208
a((lp3209
S'backen'
p3210
aS'Backen'
p3211
a(dp3212
S'manage '
p3213
I1
sS'baking '
p3214
I7
sS'lockers '
p3215
I1
sS'cooking '
p3216
I3
sS'halo '
p3217
I1
sS'cheeks '
p3218
I4
sS'bake '
p3219
I19
stp3220
a((lp3221
S'kriegs'
p3222
aS'Kriegs'
p3223
a(dp3224
S'manage '
p3225
I1
sS'war '
p3226
I4
stp3227
a((lp3228
S'gelungen'
p3229
aS'Gelungen'
p3230
a(dp3231
S'ones '
p3232
I1
sS'managed '
p3233
I4
sS'did '
p3234
I3
sS'succeeded '
p3235
I6
sS'manage '
p3236
I1
sS'got '
p3237
I1
sS'could '
p3238
I1
sS'couldn '
p3239
I3
sS'teed '
p3240
I1
sS'good '
p3241
I1
sS'worked '
p3242
I1
sS'succeed '
p3243
I1
sS'screwed '
p3244
I1
sS'job '
p3245
I1
sS'able '
p3246
I3
sS'last '
p3247
I2
stp3248
a((lp3249
S'trainieren'
p3250
aS'Trainieren'
p3251
a(dp3252
S'coaching '
p3253
I1
sS'working '
p3254
I6
sS'pointers '
p3255
I1
sS'training '
p3256
I20
sS'practice '
p3257
I14
sS'train '
p3258
I40
sS'work '
p3259
I11
sS'meetings '
p3260
I1
sS'stopped '
p3261
I2
sS'coach '
p3262
I5
sS'workout '
p3263
I1
sS'sometime '
p3264
I1
sS'gym '
p3265
I4
sS'manage '
p3266
I1
sS'exercise '
p3267
I5
sS'swear '
p3268
I1
sS'techniques '
p3269
I3
sS'trained '
p3270
I1
sS'practicing '
p3271
I2
sS'therapist '
p3272
I1
sS'get '
p3273
I1
sS'go '
p3274
I1
sS'practise '
p3275
I3
sS'practising '
p3276
I1
sS'stop '
p3277
I1
stp3278
a((lp3279
S'stehen'
p3280
aS'Stehen'
p3281
a(dp3282
S'attracted '
p3283
I1
sS'stay '
p3284
I2
sS'nightclub '
p3285
I1
sS'down '
p3286
I1
sS'break '
p3287
I1
sS'comfort '
p3288
I1
sS'with '
p3289
I2
sS'up '
p3290
I21
sS'stopped '
p3291
I4
sS'represent '
p3292
I2
sS'try '
p3293
I1
sS'manage '
p3294
I1
sS'look '
p3295
I3
sS'it '
p3296
I2
sS"'am "
p3297
I1
sS'moment '
p3298
I1
sS"'ve "
p3299
I4
sS'help '
p3300
I1
sS'dick '
p3301
I2
sS'bottom '
p3302
I1
sS'front '
p3303
I3
sS"'re "
p3304
I122
sS'stopping '
p3305
I1
sS'palsley '
p3306
I1
sS'seem '
p3307
I1
sS'rise '
p3308
I1
sS'got '
p3309
I3
sS'stands '
p3310
I1
sS'toe '
p3311
I3
sS'quick '
p3312
I1
sS'left '
p3313
I1
sS'feet '
p3314
I1
sS'aren '
p3315
I2
sS'ground '
p3316
I1
sS'come '
p3317
I3
sS'carry '
p3318
I1
sS'leave '
p3319
I2
sS'is '
p3320
I2
sS'police '
p3321
I1
sS'involved '
p3322
I1
sS'two, '
p3323
I1
sS'parked '
p3324
I1
sS'gibbons '
p3325
I1
sS'stops '
p3326
I2
sS'suit '
p3327
I2
sS'go '
p3328
I2
sS'out '
p3329
I1
sS"'s "
p3330
I4
sS'stand '
p3331
I216
sS'here '
p3332
I1
sS'ditch '
p3333
I1
sS'wakey '
p3334
I1
sS'boy '
p3335
I1
sS'now '
p3336
I1
sS'have '
p3337
I1
sS'conjoined '
p3338
I1
sS'love '
p3339
I3
sS'halt '
p3340
I2
sS'be '
p3341
I13
sS'there '
p3342
I11
sS'hey '
p3343
I1
sS"'go "
p3344
I1
sS'right '
p3345
I1
sS'manifests '
p3346
I2
sS'were '
p3347
I4
sS'lie '
p3348
I2
sS'hots '
p3349
I1
sS'like '
p3350
I2
sS'on '
p3351
I3
sS'standing '
p3352
I92
sS'are '
p3353
I208
sS'headmaster '
p3354
I1
sS'hall '
p3355
I1
sS'wait '
p3356
I1
sS'written '
p3357
I1
sS'holding '
p3358
I1
sS'where '
p3359
I1
sS'rising '
p3360
I1
sS'tranny '
p3361
I1
sS'sec '
p3362
I1
sS'of '
p3363
I2
sS', '
p3364
I3
sS'do '
p3365
I2
sS'away '
p3366
I1
sS'crantini '
p3367
I1
sS'does '
p3368
I1
sS'walk '
p3369
I1
sS'insects '
p3370
I1
sS'can '
p3371
I2
sS'move '
p3372
I9
sS'moving '
p3373
I2
sS'stick '
p3374
I4
sS'i '
p3375
I1
sS'sale '
p3376
I1
sS'embrace '
p3377
I1
sS'get '
p3378
I54
sS'ons '
p3379
I1
sS'stop '
p3380
I66
sS'pietoday '
p3381
I1
sS'hold '
p3382
I14
sS'freeze '
p3383
I46
sS'back '
p3384
I1
stp3385
a((lp3386
S'asi'
p3387
aS'Asi'
p3388
a(dp3389
S'manage '
p3390
I1
sS'wanker '
p3391
I1
sS'lamer '
p3392
I1
stp3393
a((lp3394
S'geholfen'
p3395
aS'Geholfen'
p3396
a(dp3397
S'reaching '
p3398
I1
sS'better '
p3399
I1
sS'helpful '
p3400
I2
sS'fine '
p3401
I2
sS'friggin '
p3402
I1
sS'done '
p3403
I1
sS'work '
p3404
I3
sS'worked '
p3405
I1
sS'window '
p3406
I2
sS'roaring '
p3407
I1
sS'manage '
p3408
I1
sS'foryour '
p3409
I1
sS'backing '
p3410
I1
sS'happened '
p3411
I1
sS'upstairs '
p3412
I1
sS'assisted '
p3413
I1
sS'revealed '
p3414
I1
sS'supportive '
p3415
I2
sS'fixed '
p3416
I1
sS'helped '
p3417
I243
sS'help '
p3418
I83
sS'aided '
p3419
I3
sS'retrieving '
p3420
I1
sS'helping '
p3421
I78
sS'support '
p3422
I1
sS'rehab '
p3423
I1
sS'carol '
p3424
I1
sS'818 '
p3425
I1
stp3426
a((lp3427
S'gelingt'
p3428
aS'Gelingt'
p3429
a(dp3430
S'manage '
p3431
I1
sS'can '
p3432
I5
sS'effective '
p3433
I1
sS'do '
p3434
I1
sS'trip '
p3435
I1
sS'fail '
p3436
I2
sS'succeed '
p3437
I3
sS'if '
p3438
I1
stp3439
a((lp3440
S'halte'
p3441
aS'Halte'
p3442
a(dp3443
S'grip '
p3444
I1
sS'feel '
p3445
I1
sS'stay '
p3446
I19
sS'attached '
p3447
I1
sS'got '
p3448
I8
sS'what '
p3449
I1
sS'charles '
p3450
I1
sS'fulfilling '
p3451
I1
sS'go '
p3452
I1
sS'slow '
p3453
I1
sS"'ll "
p3454
I12
sS'******* '
p3455
I1
sS'have '
p3456
I5
sS'ok '
p3457
I1
sS'hey '
p3458
I1
sS'picks '
p3459
I1
sS'jinsana '
p3460
I1
sS'prosze '
p3461
I1
sS'save '
p3462
I2
sS'just '
p3463
I3
sS'keep '
p3464
I127
sS'feelings '
p3465
I1
sS'shut '
p3466
I1
sS'want '
p3467
I1
sS'do '
p3468
I4
sS"'m "
p3469
I20
sS'invite '
p3470
I1
sS'all '
p3471
I1
sS'man '
p3472
I2
sS'suppose '
p3473
I1
sS'endure '
p3474
I1
sS'hou '
p3475
I1
sS'spot '
p3476
I1
sS'leave '
p3477
I2
sS'slap '
p3478
I1
sS'believe '
p3479
I2
sS'mind '
p3480
I1
sS'feel, '
p3481
I1
sS'sticking '
p3482
I1
sS'manage '
p3483
I1
sS"'ve "
p3484
I1
sS'stall '
p3485
I9
sS'stand '
p3486
I8
sS'can '
p3487
I31
sS'keeping '
p3488
I11
sS'count '
p3489
I1
sS'pull '
p3490
I3
sS'be '
p3491
I1
sS'might '
p3492
I2
sS'think '
p3493
I75
sS'standing '
p3494
I1
sS'observe '
p3495
I1
sS'consider '
p3496
I4
sS'won '
p3497
I1
sS'will '
p3498
I3
sS'hanging '
p3499
I1
sS'own '
p3500
I1
sS'withhold '
p3501
I1
sS'grab '
p3502
I1
sS'collagen '
p3503
I1
sS"'d "
p3504
I1
sS'innovator '
p3505
I1
sS'taking '
p3506
I1
sS'okay '
p3507
I1
sS'are '
p3508
I1
sS'don '
p3509
I13
sS'get '
p3510
I4
sS'receiving '
p3511
I1
sS'stick '
p3512
I5
sS'drag '
p3513
I1
sS'open '
p3514
I1
sS'hang '
p3515
I50
sS"'s "
p3516
I10
sS'slowing '
p3517
I3
sS'put '
p3518
I3
sS'take '
p3519
I4
sS'grabbing '
p3520
I1
sS'hold '
p3521
I136
sS'stopping '
p3522
I3
sS'joy '
p3523
I1
sS'holding '
p3524
I13
sS'freeze '
p3525
I1
sS'stop '
p3526
I31
sS'seem '
p3527
I1
stp3528
a((lp3529
S'werde'
p3530
aS'Werde'
p3531
a(dp3532
S'going '
p3533
I44
sS'may '
p3534
I4
sS'sole '
p3535
I1
sS'am '
p3536
I357
sS'knock '
p3537
I1
sS'd '
p3538
I2
sS'would '
p3539
I29
sS"'ii "
p3540
I3
sS'screaming '
p3541
I1
sS'hanging '
p3542
I1
sS'perfect '
p3543
I2
sS'fletch '
p3544
I1
sS'then '
p3545
I1
sS'gotta '
p3546
I27
sS'burn '
p3547
I1
sS'won '
p3548
I506
sS'wont '
p3549
I2
sS'turn '
p3550
I7
sS'lose '
p3551
I1
sS'required '
p3552
I2
sS'swear '
p3553
I1
sS'shan '
p3554
I3
sS'liz '
p3555
I1
sS'god '
p3556
I2
sS'chance '
p3557
I1
sS"'ve "
p3558
I3
sS'let '
p3559
I13
sS'have '
p3560
I10
sS"'re "
p3561
I1
sS'nick '
p3562
I1
sS'soon '
p3563
I1
sS'agh '
p3564
I1
sS'got '
p3565
I26
sS"'ll "
p3566
I3665
sS'left '
p3567
I1
sS'stew '
p3568
I1
sS'should '
p3569
I8
sS'think '
p3570
I2
sS'just '
p3571
I1
sS'il '
p3572
I28
sS'women '
p3573
I1
sS'make '
p3574
I2
sS'ain '
p3575
I50
sS'start '
p3576
I1
sS'is '
p3577
I3
sS'wiil '
p3578
I2
sS"'il "
p3579
I20
sS'might '
p3580
I5
sS'upstairs '
p3581
I1
sS'faro '
p3582
I1
sS"'llil "
p3583
I1
sS'wealthy '
p3584
I1
sS'father '
p3585
I1
sS'thanks '
p3586
I1
sS'love '
p3587
I1
sS'go '
p3588
I16
sS'out '
p3589
I1
sS'occupant '
p3590
I1
sS'can\\u2019 '
p3591
I1
sS'myself '
p3592
I1
sS'wanna '
p3593
I9
sS'want '
p3594
I31
sS'fiscal '
p3595
I1
sS'know '
p3596
I2
sS'become '
p3597
I33
sS'dig '
p3598
I1
sS'turning '
p3599
I1
sS'm '
p3600
I21
sS'my, '
p3601
I1
sS'. '
p3602
I2
sS'be '
p3603
I30
sS'strand '
p3604
I1
sS'germs '
p3605
I1
sS'getting '
p3606
I4
sS'right '
p3607
I1
sS'if '
p3608
I1
sS'aim '
p3609
I2
sS'pretended '
p3610
I1
sS'becomes '
p3611
I1
sS'don '
p3612
I8
sS'wiii '
p3613
I1
sS'... '
p3614
I3
sS'okay '
p3615
I1
sS'are '
p3616
I1
sS'looped '
p3617
I1
sS'dispose '
p3618
I1
sS'give '
p3619
I3
sS'softball '
p3620
I1
sS'put '
p3621
I2
sS'take '
p3622
I4
sS'contain '
p3623
I1
sS'will '
p3624
I2048
sS'to '
p3625
I6
sS'manage '
p3626
I1
sS'gonna '
p3627
I153
sS'search '
p3628
I1
sS'morphine '
p3629
I1
sS"'d "
p3630
I46
sS'bet '
p3631
I1
sS'plan '
p3632
I2
sS'well '
p3633
I1
sS'keep '
p3634
I2
sS', '
p3635
I19
sS'do '
p3636
I31
sS"'m "
p3637
I3722
sS'-- '
p3638
I1
sS'can '
p3639
I44
sS'set '
p3640
I1
sS'tell '
p3641
I3
sS'buff '
p3642
I1
sS'i '
p3643
I2
sS"'ma "
p3644
I1
sS'shall '
p3645
I66
sS'intend '
p3646
I3
sS'taking '
p3647
I1
sS'get '
p3648
I102
sS'won\\u2019 '
p3649
I1
sS"'ll- "
p3650
I1
sS'grow '
p3651
I1
sS'need '
p3652
I3
stp3653
a((lp3654
S'fertigbringen'
p3655
aS'Fertigbringen'
p3656
a(dp3657
S'manage '
p3658
I1
stp3659
a.